---
triple:          'arm64-apple-darwin'
binary-path:     project8
relocations:
  - { offsetInCU: 0x52, offset: 0x52, size: 0x8, addend: 0x0, symName: _rgbColorMap, symObjAddr: 0xEF6F0, symBinAddr: 0x100018000, symSize: 0x0 }
  - { offsetInCU: 0x51DD, offset: 0x51DD, size: 0x8, addend: 0x0, symName: __ZNSt3__1L19piecewise_constructE, symObjAddr: 0x10C83, symBinAddr: 0x100012F10, symSize: 0x0 }
  - { offsetInCU: 0xCE7D, offset: 0xCE7D, size: 0x8, addend: 0x0, symName: __ZNSt3__124__put_character_sequenceB8ue170006IcNS_11char_traitsIcEEEERNS_13basic_ostreamIT_T0_EES7_PKS4_m, symObjAddr: 0x35C8, symBinAddr: 0x10000592C, symSize: 0x1EC }
  - { offsetInCU: 0x11715, offset: 0x11715, size: 0x8, addend: 0x0, symName: __ZNSt3__17advanceB8ue170006INS_21__tree_const_iteratorINS_12__value_typeINS_12basic_stringIcNS_11char_traitsIcEENS_9allocatorIcEEEEiEEPNS_11__tree_nodeIS9_PvEElEEllvEEvRT_T0_, symObjAddr: 0x5A3C, symBinAddr: 0x100007DA0, symSize: 0x38 }
  - { offsetInCU: 0x140E1, offset: 0x140E1, size: 0x8, addend: 0x0, symName: __ZNSt3__17advanceB8ue170006INS_21__tree_const_iteratorINS_12__value_typeINS_12basic_stringIcNS_11char_traitsIcEENS_9allocatorIcEEEEdEEPNS_11__tree_nodeIS9_PvEElEEllvEEvRT_T0_, symObjAddr: 0x7E70, symBinAddr: 0x10000A1D4, symSize: 0x38 }
  - { offsetInCU: 0x16D99, offset: 0x16D99, size: 0x8, addend: 0x0, symName: __ZNSt3__17advanceB8ue170006INS_21__tree_const_iteratorINS_12__value_typeINS_12basic_stringIcNS_11char_traitsIcEENS_9allocatorIcEEEES8_EEPNS_11__tree_nodeIS9_PvEElEEllvEEvRT_T0_, symObjAddr: 0xAE3C, symBinAddr: 0x10000D1A0, symSize: 0x38 }
  - { offsetInCU: 0x16E2A, offset: 0x16E2A, size: 0x8, addend: 0x0, symName: __ZNSt3__17advanceB8ue170006INS_21__tree_const_iteratorINS_12__value_typeINS_12basic_stringIcNS_11char_traitsIcEENS_9allocatorIcEEEEN2cv7Scalar_IdEEEEPNS_11__tree_nodeISC_PvEElEEllvEEvRT_T0_, symObjAddr: 0xD274, symBinAddr: 0x10000F5D8, symSize: 0x38 }
  - { offsetInCU: 0x1C217, offset: 0x1C217, size: 0x8, addend: 0x0, symName: __ZNSt3__1neB8ue170006IPKNS_12basic_stringIcNS_11char_traitsIcEENS_9allocatorIcEEEEEEbRKNS_11__wrap_iterIT_EESD_, symObjAddr: 0x1170, symBinAddr: 0x1000034D4, symSize: 0x34 }
  - { offsetInCU: 0x1C25A, offset: 0x1C25A, size: 0x8, addend: 0x0, symName: __ZNSt3__1eqB8ue170006ERKNS_14__map_iteratorINS_15__tree_iteratorINS_12__value_typeINS_12basic_stringIcNS_11char_traitsIcEENS_9allocatorIcEEEEiEEPNS_11__tree_nodeIS9_PvEElEEEESH_, symObjAddr: 0x11BC, symBinAddr: 0x100003520, symSize: 0x30 }
  - { offsetInCU: 0x1C297, offset: 0x1C297, size: 0x8, addend: 0x0, symName: __ZNSt3__1eqB8ue170006ERKNS_14__map_iteratorINS_15__tree_iteratorINS_12__value_typeINS_12basic_stringIcNS_11char_traitsIcEENS_9allocatorIcEEEEdEEPNS_11__tree_nodeIS9_PvEElEEEESH_, symObjAddr: 0x1264, symBinAddr: 0x1000035C8, symSize: 0x30 }
  - { offsetInCU: 0x1C650, offset: 0x1C650, size: 0x8, addend: 0x0, symName: __ZNSt3__1lsB8ue170006INS_11char_traitsIcEEEERNS_13basic_ostreamIcT_EES6_PKc, symObjAddr: 0x1544, symBinAddr: 0x1000038A8, symSize: 0x48 }
  - { offsetInCU: 0x1C696, offset: 0x1C696, size: 0x8, addend: 0x0, symName: __ZNSt3__1lsB8ue170006IcNS_11char_traitsIcEEEERNS_13basic_ostreamIT_T0_EES7_RKNS_8__iom_t5E, symObjAddr: 0x158C, symBinAddr: 0x1000038F0, symSize: 0x40 }
  - { offsetInCU: 0x1C6E2, offset: 0x1C6E2, size: 0x8, addend: 0x0, symName: __ZNSt3__15fixedB8ue170006ERNS_8ios_baseE, symObjAddr: 0x160C, symBinAddr: 0x100003970, symSize: 0x30 }
  - { offsetInCU: 0x1C710, offset: 0x1C710, size: 0x8, addend: 0x0, symName: __ZNSt3__112setprecisionB8ue170006Ei, symObjAddr: 0x163C, symBinAddr: 0x1000039A0, symSize: 0x2C }
  - { offsetInCU: 0x1C73C, offset: 0x1C73C, size: 0x8, addend: 0x0, symName: __ZNSt3__1neB8ue170006ERKNS_14__map_iteratorINS_15__tree_iteratorINS_12__value_typeINS_12basic_stringIcNS_11char_traitsIcEENS_9allocatorIcEEEES8_EEPNS_11__tree_nodeIS9_PvEElEEEESH_, symObjAddr: 0x187C, symBinAddr: 0x100003BE0, symSize: 0x30 }
  - { offsetInCU: 0x1C779, offset: 0x1C779, size: 0x8, addend: 0x0, symName: __ZNSt3__1lsB8ue170006IcNS_11char_traitsIcEENS_9allocatorIcEEEERNS_13basic_ostreamIT_T0_EES9_RKNS_12basic_stringIS6_S7_T1_EE, symObjAddr: 0x1924, symBinAddr: 0x100003C88, symSize: 0x4C }
  - { offsetInCU: 0x1C7DC, offset: 0x1C7DC, size: 0x8, addend: 0x0, symName: __ZNSt3__1neB8ue170006IPNS_6vectorIN2cv6Point_IiEENS_9allocatorIS4_EEEEEEbRKNS_11__wrap_iterIT_EESD_, symObjAddr: 0x27EC, symBinAddr: 0x100004B50, symSize: 0x34 }
  - { offsetInCU: 0x1C81F, offset: 0x1C81F, size: 0x8, addend: 0x0, symName: __ZNSt3__14endlB8ue170006IcNS_11char_traitsIcEEEERNS_13basic_ostreamIT_T0_EES7_, symObjAddr: 0x2CEC, symBinAddr: 0x100005050, symSize: 0x58 }
  - { offsetInCU: 0x1C85F, offset: 0x1C85F, size: 0x8, addend: 0x0, symName: __ZNSt3__1eqB8ue170006IPKNS_12basic_stringIcNS_11char_traitsIcEENS_9allocatorIcEEEEEEbRKNS_11__wrap_iterIT_EESD_, symObjAddr: 0x2D9C, symBinAddr: 0x100005100, symSize: 0x48 }
  - { offsetInCU: 0x1C8A2, offset: 0x1C8A2, size: 0x8, addend: 0x0, symName: __ZNSt3__1eqB8ue170006IPNS_6vectorIN2cv6Point_IiEENS_9allocatorIS4_EEEEEEbRKNS_11__wrap_iterIT_EESD_, symObjAddr: 0x31EC, symBinAddr: 0x100005550, symSize: 0x48 }
  - { offsetInCU: 0x1C8E5, offset: 0x1C8E5, size: 0x8, addend: 0x0, symName: __ZNSt3__118__constexpr_strlenB8ue170006EPKc, symObjAddr: 0x34D0, symBinAddr: 0x100005834, symSize: 0x24 }
  - { offsetInCU: 0x1C911, offset: 0x1C911, size: 0x8, addend: 0x0, symName: __ZNSt3__116__pad_and_outputB8ue170006IcNS_11char_traitsIcEEEENS_19ostreambuf_iteratorIT_T0_EES6_PKS4_S8_S8_RNS_8ios_baseES4_, symObjAddr: 0x37D0, symBinAddr: 0x100005B34, symSize: 0x240 }
  - { offsetInCU: 0x1C9E0, offset: 0x1C9E0, size: 0x8, addend: 0x0, symName: __ZNSt3__112__to_addressB8ue170006IKcEEPT_S3_, symObjAddr: 0x3C40, symBinAddr: 0x100005FA4, symSize: 0x14 }
  - { offsetInCU: 0x1CA48, offset: 0x1CA48, size: 0x8, addend: 0x0, symName: __ZNSt3__19use_facetB8ue170006INS_5ctypeIcEEEERKT_RKNS_6localeE, symObjAddr: 0x3EC0, symBinAddr: 0x100006224, symSize: 0x2C }
  - { offsetInCU: 0x1CF6C, offset: 0x1CF6C, size: 0x8, addend: 0x0, symName: __ZNSt3__1eqB8ue170006ERKNS_21__tree_const_iteratorINS_12__value_typeINS_12basic_stringIcNS_11char_traitsIcEENS_9allocatorIcEEEEiEEPNS_11__tree_nodeIS8_PvEElEESF_, symObjAddr: 0x5090, symBinAddr: 0x1000073F4, symSize: 0x30 }
  - { offsetInCU: 0x1CFA9, offset: 0x1CFA9, size: 0x8, addend: 0x0, symName: __ZNSt3__14nextB8ue170006INS_21__tree_const_iteratorINS_12__value_typeINS_12basic_stringIcNS_11char_traitsIcEENS_9allocatorIcEEEEiEEPNS_11__tree_nodeIS9_PvEElEEEENS_9enable_ifIXsr29__has_input_iterator_categoryIT_EE5valueESG_E4typeESG_NS_15iterator_traitsISG_E15difference_typeE, symObjAddr: 0x5400, symBinAddr: 0x100007764, symSize: 0x3C }
  - { offsetInCU: 0x1CFEC, offset: 0x1CFEC, size: 0x8, addend: 0x0, symName: __ZNSt3__1ltB8ue170006IcNS_11char_traitsIcEENS_9allocatorIcEEEEbRKNS_12basic_stringIT_T0_T1_EESB_, symObjAddr: 0x5548, symBinAddr: 0x1000078AC, symSize: 0x38 }
  - { offsetInCU: 0x1D044, offset: 0x1D044, size: 0x8, addend: 0x0, symName: __ZNSt3__13minB8ue170006ImEERKT_S3_S3_, symObjAddr: 0x57AC, symBinAddr: 0x100007B10, symSize: 0x2C }
  - { offsetInCU: 0x1D087, offset: 0x1D087, size: 0x8, addend: 0x0, symName: __ZNSt3__13minB8ue170006ImNS_6__lessIvvEEEERKT_S5_S5_T0_, symObjAddr: 0x57D8, symBinAddr: 0x100007B3C, symSize: 0x54 }
  - { offsetInCU: 0x1D126, offset: 0x1D126, size: 0x8, addend: 0x0, symName: __ZNSt3__116__tree_prev_iterB8ue170006IPNS_16__tree_node_baseIPvEEPNS_15__tree_end_nodeIS4_EEEET_T0_, symObjAddr: 0x58C8, symBinAddr: 0x100007C2C, symSize: 0xA4 }
  - { offsetInCU: 0x1D172, offset: 0x1D172, size: 0x8, addend: 0x0, symName: __ZNSt3__110__tree_maxB8ue170006IPNS_16__tree_node_baseIPvEEEET_S5_, symObjAddr: 0x596C, symBinAddr: 0x100007CD0, symSize: 0x40 }
  - { offsetInCU: 0x1D1A7, offset: 0x1D1A7, size: 0x8, addend: 0x0, symName: __ZNSt3__120__tree_is_left_childB8ue170006IPNS_16__tree_node_baseIPvEEEEbT_, symObjAddr: 0x59AC, symBinAddr: 0x100007D10, symSize: 0x2C }
  - { offsetInCU: 0x1D1DC, offset: 0x1D1DC, size: 0x8, addend: 0x0, symName: __ZNSt3__121__convert_to_integralB8ue170006El, symObjAddr: 0x5A74, symBinAddr: 0x100007DD8, symSize: 0x14 }
  - { offsetInCU: 0x1D208, offset: 0x1D208, size: 0x8, addend: 0x0, symName: __ZNSt3__19__advanceB8ue170006INS_21__tree_const_iteratorINS_12__value_typeINS_12basic_stringIcNS_11char_traitsIcEENS_9allocatorIcEEEEiEEPNS_11__tree_nodeIS9_PvEElEEEEvRT_NS_15iterator_traitsISF_E15difference_typeENS_26bidirectional_iterator_tagE, symObjAddr: 0x5A88, symBinAddr: 0x100007DEC, symSize: 0xA4 }
  - { offsetInCU: 0x1D251, offset: 0x1D251, size: 0x8, addend: 0x0, symName: __ZNSt3__116__tree_next_iterB8ue170006IPNS_15__tree_end_nodeIPNS_16__tree_node_baseIPvEEEES5_EET_T0_, symObjAddr: 0x5B64, symBinAddr: 0x100007EC8, symSize: 0x80 }
  - { offsetInCU: 0x1D28F, offset: 0x1D28F, size: 0x8, addend: 0x0, symName: __ZNSt3__110__tree_minB8ue170006IPNS_16__tree_node_baseIPvEEEET_S5_, symObjAddr: 0x5BE4, symBinAddr: 0x100007F48, symSize: 0x40 }
  - { offsetInCU: 0x1D2E2, offset: 0x1D2E2, size: 0x8, addend: 0x0, symName: __ZNSt3__117__libcpp_allocateB8ue170006Emm, symObjAddr: 0x5E88, symBinAddr: 0x1000081EC, symSize: 0x28 }
  - { offsetInCU: 0x1D31F, offset: 0x1D31F, size: 0x8, addend: 0x0, symName: __ZNSt3__121__libcpp_operator_newB8ue170006IJmEEEPvDpT_, symObjAddr: 0x5EC4, symBinAddr: 0x100008228, symSize: 0x24 }
  - { offsetInCU: 0x1D358, offset: 0x1D358, size: 0x8, addend: 0x0, symName: __ZNSt3__127__tree_balance_after_insertB8ue170006IPNS_16__tree_node_baseIPvEEEEvT_S5_, symObjAddr: 0x6160, symBinAddr: 0x1000084C4, symSize: 0x27C }
  - { offsetInCU: 0x1D3D4, offset: 0x1D3D4, size: 0x8, addend: 0x0, symName: __ZNSt3__118__tree_left_rotateB8ue170006IPNS_16__tree_node_baseIPvEEEEvT_, symObjAddr: 0x6404, symBinAddr: 0x100008768, symSize: 0xD8 }
  - { offsetInCU: 0x1D416, offset: 0x1D416, size: 0x8, addend: 0x0, symName: __ZNSt3__119__tree_right_rotateB8ue170006IPNS_16__tree_node_baseIPvEEEEvT_, symObjAddr: 0x64DC, symBinAddr: 0x100008840, symSize: 0xCC }
  - { offsetInCU: 0x1D458, offset: 0x1D458, size: 0x8, addend: 0x0, symName: __ZNSt3__119__libcpp_deallocateB8ue170006EPvmm, symObjAddr: 0x6814, symBinAddr: 0x100008B78, symSize: 0x30 }
  - { offsetInCU: 0x1D4A0, offset: 0x1D4A0, size: 0x8, addend: 0x0, symName: __ZNSt3__127__do_deallocate_handle_sizeB8ue170006IJEEEvPvmDpT_, symObjAddr: 0x6844, symBinAddr: 0x100008BA8, symSize: 0x28 }
  - { offsetInCU: 0x1D4DE, offset: 0x1D4DE, size: 0x8, addend: 0x0, symName: __ZNSt3__124__libcpp_operator_deleteB8ue170006IJPvEEEvDpT_, symObjAddr: 0x686C, symBinAddr: 0x100008BD0, symSize: 0x24 }
  - { offsetInCU: 0x1D513, offset: 0x1D513, size: 0x8, addend: 0x0, symName: __ZNSt3__1eqB8ue170006ERKNS_21__tree_const_iteratorINS_12__value_typeINS_12basic_stringIcNS_11char_traitsIcEENS_9allocatorIcEEEEdEEPNS_11__tree_nodeIS8_PvEElEESF_, symObjAddr: 0x79A0, symBinAddr: 0x100009D04, symSize: 0x30 }
  - { offsetInCU: 0x1D550, offset: 0x1D550, size: 0x8, addend: 0x0, symName: __ZNSt3__14nextB8ue170006INS_21__tree_const_iteratorINS_12__value_typeINS_12basic_stringIcNS_11char_traitsIcEENS_9allocatorIcEEEEdEEPNS_11__tree_nodeIS9_PvEElEEEENS_9enable_ifIXsr29__has_input_iterator_categoryIT_EE5valueESG_E4typeESG_NS_15iterator_traitsISG_E15difference_typeE, symObjAddr: 0x7D10, symBinAddr: 0x10000A074, symSize: 0x3C }
  - { offsetInCU: 0x1D593, offset: 0x1D593, size: 0x8, addend: 0x0, symName: __ZNSt3__19__advanceB8ue170006INS_21__tree_const_iteratorINS_12__value_typeINS_12basic_stringIcNS_11char_traitsIcEENS_9allocatorIcEEEEdEEPNS_11__tree_nodeIS9_PvEElEEEEvRT_NS_15iterator_traitsISF_E15difference_typeENS_26bidirectional_iterator_tagE, symObjAddr: 0x7EA8, symBinAddr: 0x10000A20C, symSize: 0xA4 }
  - { offsetInCU: 0x1D5FA, offset: 0x1D5FA, size: 0x8, addend: 0x0, symName: __ZNSt3__1neB8ue170006ERKNS_15__tree_iteratorINS_12__value_typeINS_12basic_stringIcNS_11char_traitsIcEENS_9allocatorIcEEEEiEEPNS_11__tree_nodeIS8_PvEElEESF_, symObjAddr: 0x8A64, symBinAddr: 0x10000ADC8, symSize: 0x34 }
  - { offsetInCU: 0x1D637, offset: 0x1D637, size: 0x8, addend: 0x0, symName: __ZNSt3__1eqB8ue170006ERKNS_15__tree_iteratorINS_12__value_typeINS_12basic_stringIcNS_11char_traitsIcEENS_9allocatorIcEEEEiEEPNS_11__tree_nodeIS8_PvEElEESF_, symObjAddr: 0x8AC0, symBinAddr: 0x10000AE24, symSize: 0x30 }
  - { offsetInCU: 0x1D674, offset: 0x1D674, size: 0x8, addend: 0x0, symName: __ZNSt3__1neB8ue170006ERKNS_15__tree_iteratorINS_12__value_typeINS_12basic_stringIcNS_11char_traitsIcEENS_9allocatorIcEEEEdEEPNS_11__tree_nodeIS8_PvEElEESF_, symObjAddr: 0x8CA4, symBinAddr: 0x10000B008, symSize: 0x34 }
  - { offsetInCU: 0x1D6B1, offset: 0x1D6B1, size: 0x8, addend: 0x0, symName: __ZNSt3__1eqB8ue170006ERKNS_15__tree_iteratorINS_12__value_typeINS_12basic_stringIcNS_11char_traitsIcEENS_9allocatorIcEEEEdEEPNS_11__tree_nodeIS8_PvEElEESF_, symObjAddr: 0x8D00, symBinAddr: 0x10000B064, symSize: 0x30 }
  - { offsetInCU: 0x1D725, offset: 0x1D725, size: 0x8, addend: 0x0, symName: __ZNSt3__116forward_as_tupleB8ue170006IJRKNS_12basic_stringIcNS_11char_traitsIcEENS_9allocatorIcEEEEEEENS_5tupleIJDpOT_EEESC_, symObjAddr: 0x8E48, symBinAddr: 0x10000B1AC, symSize: 0x2C }
  - { offsetInCU: 0x1D75E, offset: 0x1D75E, size: 0x8, addend: 0x0, symName: __ZNSt3__116forward_as_tupleB8ue170006IJEEENS_5tupleIJDpOT_EEES4_, symObjAddr: 0x8E74, symBinAddr: 0x10000B1D8, symSize: 0x4 }
  - { offsetInCU: 0x1D78D, offset: 0x1D78D, size: 0x8, addend: 0x0, symName: __ZNSt3__13getB8ue170006ILm0EJRKNS_12basic_stringIcNS_11char_traitsIcEENS_9allocatorIcEEEEEEERNS_13tuple_elementIXT_ENS_5tupleIJDpT0_EEEE4typeERSD_, symObjAddr: 0x910C, symBinAddr: 0x10000B470, symSize: 0x24 }
  - { offsetInCU: 0x1D85A, offset: 0x1D85A, size: 0x8, addend: 0x0, symName: __ZNSt3__1eqB8ue170006ERKNS_21__tree_const_iteratorINS_12__value_typeINS_12basic_stringIcNS_11char_traitsIcEENS_9allocatorIcEEEES7_EEPNS_11__tree_nodeIS8_PvEElEESF_, symObjAddr: 0xA96C, symBinAddr: 0x10000CCD0, symSize: 0x30 }
  - { offsetInCU: 0x1D897, offset: 0x1D897, size: 0x8, addend: 0x0, symName: __ZNSt3__14nextB8ue170006INS_21__tree_const_iteratorINS_12__value_typeINS_12basic_stringIcNS_11char_traitsIcEENS_9allocatorIcEEEES8_EEPNS_11__tree_nodeIS9_PvEElEEEENS_9enable_ifIXsr29__has_input_iterator_categoryIT_EE5valueESG_E4typeESG_NS_15iterator_traitsISG_E15difference_typeE, symObjAddr: 0xACDC, symBinAddr: 0x10000D040, symSize: 0x3C }
  - { offsetInCU: 0x1D8DA, offset: 0x1D8DA, size: 0x8, addend: 0x0, symName: __ZNSt3__19__advanceB8ue170006INS_21__tree_const_iteratorINS_12__value_typeINS_12basic_stringIcNS_11char_traitsIcEENS_9allocatorIcEEEES8_EEPNS_11__tree_nodeIS9_PvEElEEEEvRT_NS_15iterator_traitsISF_E15difference_typeENS_26bidirectional_iterator_tagE, symObjAddr: 0xAE74, symBinAddr: 0x10000D1D8, symSize: 0xA4 }
  - { offsetInCU: 0x1D941, offset: 0x1D941, size: 0x8, addend: 0x0, symName: __ZNSt3__1neB8ue170006ERKNS_15__tree_iteratorINS_12__value_typeINS_12basic_stringIcNS_11char_traitsIcEENS_9allocatorIcEEEES7_EEPNS_11__tree_nodeIS8_PvEElEESF_, symObjAddr: 0xB9E8, symBinAddr: 0x10000DD4C, symSize: 0x34 }
  - { offsetInCU: 0x1D97E, offset: 0x1D97E, size: 0x8, addend: 0x0, symName: __ZNSt3__1eqB8ue170006ERKNS_15__tree_iteratorINS_12__value_typeINS_12basic_stringIcNS_11char_traitsIcEENS_9allocatorIcEEEES7_EEPNS_11__tree_nodeIS8_PvEElEESF_, symObjAddr: 0xBA44, symBinAddr: 0x10000DDA8, symSize: 0x30 }
  - { offsetInCU: 0x1D9EE, offset: 0x1D9EE, size: 0x8, addend: 0x0, symName: __ZNSt3__1eqB8ue170006ERKNS_21__tree_const_iteratorINS_12__value_typeINS_12basic_stringIcNS_11char_traitsIcEENS_9allocatorIcEEEEN2cv7Scalar_IdEEEEPNS_11__tree_nodeISB_PvEElEESI_, symObjAddr: 0xCDA4, symBinAddr: 0x10000F108, symSize: 0x30 }
  - { offsetInCU: 0x1DA2B, offset: 0x1DA2B, size: 0x8, addend: 0x0, symName: __ZNSt3__14nextB8ue170006INS_21__tree_const_iteratorINS_12__value_typeINS_12basic_stringIcNS_11char_traitsIcEENS_9allocatorIcEEEEN2cv7Scalar_IdEEEEPNS_11__tree_nodeISC_PvEElEEEENS_9enable_ifIXsr29__has_input_iterator_categoryIT_EE5valueESJ_E4typeESJ_NS_15iterator_traitsISJ_E15difference_typeE, symObjAddr: 0xD114, symBinAddr: 0x10000F478, symSize: 0x3C }
  - { offsetInCU: 0x1DA6E, offset: 0x1DA6E, size: 0x8, addend: 0x0, symName: __ZNSt3__19__advanceB8ue170006INS_21__tree_const_iteratorINS_12__value_typeINS_12basic_stringIcNS_11char_traitsIcEENS_9allocatorIcEEEEN2cv7Scalar_IdEEEEPNS_11__tree_nodeISC_PvEElEEEEvRT_NS_15iterator_traitsISI_E15difference_typeENS_26bidirectional_iterator_tagE, symObjAddr: 0xD2AC, symBinAddr: 0x10000F610, symSize: 0xA4 }
  - { offsetInCU: 0x1DAD5, offset: 0x1DAD5, size: 0x8, addend: 0x0, symName: __ZNSt3__112__to_addressB8ue170006INS_6vectorIN2cv6Point_IiEENS_9allocatorIS4_EEEEEEPT_S9_, symObjAddr: 0xE25C, symBinAddr: 0x1000105C0, symSize: 0x14 }
  - { offsetInCU: 0x1DB0A, offset: 0x1DB0A, size: 0x8, addend: 0x0, symName: __ZNSt3__112__to_addressB8ue170006IN2cv6Point_IiEEEEPT_S5_, symObjAddr: 0xE620, symBinAddr: 0x100010984, symSize: 0x14 }
  - { offsetInCU: 0x1DB3F, offset: 0x1DB3F, size: 0x8, addend: 0x0, symName: __ZNSt3__122__make_exception_guardB8ue170006INS_6vectorINS_12basic_stringIcNS_11char_traitsIcEENS_9allocatorIcEEEENS5_IS7_EEE16__destroy_vectorEEENS_28__exception_guard_exceptionsIT_EESC_, symObjAddr: 0xEB94, symBinAddr: 0x100010EF8, symSize: 0x40 }
  - { offsetInCU: 0x1DB74, offset: 0x1DB74, size: 0x8, addend: 0x0, symName: __ZNSt3__119__allocate_at_leastB8ue170006INS_9allocatorINS_12basic_stringIcNS_11char_traitsIcEENS1_IcEEEEEEEENS_19__allocation_resultINS_16allocator_traitsIT_E7pointerEEERSA_m, symObjAddr: 0xEFA4, symBinAddr: 0x100011308, symSize: 0x40 }
  - { offsetInCU: 0x1DDB8, offset: 0x1DDB8, size: 0x8, addend: 0x0, symName: __ZNSt3__120__throw_length_errorB8ue170006EPKc, symObjAddr: 0xF1B4, symBinAddr: 0x100011518, symSize: 0x64 }
  - { offsetInCU: 0x1DDE2, offset: 0x1DDE2, size: 0x8, addend: 0x0, symName: __ZNSt3__112__to_addressB8ue170006INS_12basic_stringIcNS_11char_traitsIcEENS_9allocatorIcEEEEEEPT_S8_, symObjAddr: 0xF3EC, symBinAddr: 0x100011750, symSize: 0x14 }
  - { offsetInCU: 0x1DE17, offset: 0x1DE17, size: 0x8, addend: 0x0, symName: __ZNSt3__130__uninitialized_allocator_copyB8ue170006INS_9allocatorINS_12basic_stringIcNS_11char_traitsIcEENS1_IcEEEEEEPKS6_S9_PS6_EET2_RT_T0_T1_SB_, symObjAddr: 0xF49C, symBinAddr: 0x100011800, symSize: 0x80 }
  - { offsetInCU: 0x1DEB4, offset: 0x1DEB4, size: 0x8, addend: 0x0, symName: __ZNSt3__114__unwrap_rangeB8ue170006IPKNS_12basic_stringIcNS_11char_traitsIcEENS_9allocatorIcEEEES8_EENS_4pairIT0_SA_EET_SC_, symObjAddr: 0xF594, symBinAddr: 0x1000118F8, symSize: 0x60 }
  - { offsetInCU: 0x1DF00, offset: 0x1DF00, size: 0x8, addend: 0x0, symName: __ZNSt3__135__uninitialized_allocator_copy_implB8ue170006INS_9allocatorINS_12basic_stringIcNS_11char_traitsIcEENS1_IcEEEEEEPKS6_S9_PS6_EET2_RT_T0_T1_SB_, symObjAddr: 0xF5F4, symBinAddr: 0x100011958, symSize: 0xF4 }
  - { offsetInCU: 0x1DF9E, offset: 0x1DF9E, size: 0x8, addend: 0x0, symName: __ZNSt3__113__unwrap_iterB8ue170006IPNS_12basic_stringIcNS_11char_traitsIcEENS_9allocatorIcEEEENS_18__unwrap_iter_implIS7_Lb1EEELi0EEEDTclsrT0_8__unwrapclsr3stdE7declvalIT_EEEESB_, symObjAddr: 0xF6E8, symBinAddr: 0x100011A4C, symSize: 0x24 }
  - { offsetInCU: 0x1DFE2, offset: 0x1DFE2, size: 0x8, addend: 0x0, symName: __ZNSt3__113__rewrap_iterB8ue170006IPNS_12basic_stringIcNS_11char_traitsIcEENS_9allocatorIcEEEES7_NS_18__unwrap_iter_implIS7_Lb1EEEEET_SA_T0_, symObjAddr: 0xF70C, symBinAddr: 0x100011A70, symSize: 0x3C }
  - { offsetInCU: 0x1E037, offset: 0x1E037, size: 0x8, addend: 0x0, symName: __ZNSt3__19make_pairB8ue170006IPKNS_12basic_stringIcNS_11char_traitsIcEENS_9allocatorIcEEEES8_EENS_4pairINS_18__unwrap_ref_decayIT_E4typeENSA_IT0_E4typeEEEOSB_OSE_, symObjAddr: 0xF748, symBinAddr: 0x100011AAC, symSize: 0x38 }
  - { offsetInCU: 0x1E086, offset: 0x1E086, size: 0x8, addend: 0x0, symName: __ZNSt3__113__unwrap_iterB8ue170006IPKNS_12basic_stringIcNS_11char_traitsIcEENS_9allocatorIcEEEENS_18__unwrap_iter_implIS8_Lb1EEELi0EEEDTclsrT0_8__unwrapclsr3stdE7declvalIT_EEEESC_, symObjAddr: 0xF780, symBinAddr: 0x100011AE4, symSize: 0x24 }
  - { offsetInCU: 0x1E1F1, offset: 0x1E1F1, size: 0x8, addend: 0x0, symName: __ZNSt3__112__to_addressB8ue170006IKNS_12basic_stringIcNS_11char_traitsIcEENS_9allocatorIcEEEEEEPT_S9_, symObjAddr: 0xF838, symBinAddr: 0x100011B9C, symSize: 0x14 }
  - { offsetInCU: 0x1E226, offset: 0x1E226, size: 0x8, addend: 0x0, symName: __ZNSt3__122__make_exception_guardB8ue170006INS_29_AllocatorDestroyRangeReverseINS_9allocatorINS_12basic_stringIcNS_11char_traitsIcEENS2_IcEEEEEEPS7_EEEENS_28__exception_guard_exceptionsIT_EESC_, symObjAddr: 0xF84C, symBinAddr: 0x100011BB0, symSize: 0x4C }
  - { offsetInCU: 0x1E25C, offset: 0x1E25C, size: 0x8, addend: 0x0, symName: __ZNSt3__119__allocator_destroyB8ue170006INS_9allocatorINS_12basic_stringIcNS_11char_traitsIcEENS1_IcEEEEEENS_16reverse_iteratorIPS6_EESA_EEvRT_T0_T1_, symObjAddr: 0xFADC, symBinAddr: 0x100011E40, symSize: 0x70 }
  - { offsetInCU: 0x1E2BF, offset: 0x1E2BF, size: 0x8, addend: 0x0, symName: __ZNSt3__1neB8ue170006IPNS_12basic_stringIcNS_11char_traitsIcEENS_9allocatorIcEEEES7_EEbRKNS_16reverse_iteratorIT_EERKNS8_IT0_EE, symObjAddr: 0xFB80, symBinAddr: 0x100011EE4, symSize: 0x48 }
  - { offsetInCU: 0x1E30B, offset: 0x1E30B, size: 0x8, addend: 0x0, symName: __ZNSt3__112__to_addressB8ue170006INS_16reverse_iteratorIPNS_12basic_stringIcNS_11char_traitsIcEENS_9allocatorIcEEEEEEvEEu7__decayIDTclsr19__to_address_helperIT_EE6__callclsr3stdE7declvalIRKSA_EEEEESC_, symObjAddr: 0xFBF4, symBinAddr: 0x100011F58, symSize: 0x24 }
  - { offsetInCU: 0x1F1A8, offset: 0x1F1A8, size: 0x8, addend: 0x0, symName: __ZSt28__throw_bad_array_new_lengthB8ue170006v, symObjAddr: 0x5E54, symBinAddr: 0x1000081B8, symSize: 0x34 }
  - { offsetInCU: 0x24D90, offset: 0x24D90, size: 0x8, addend: 0x0, symName: __ZN2cvL28morphologyDefaultBorderValueEv, symObjAddr: 0x26D4, symBinAddr: 0x100004A38, symSize: 0x2C }
  - { offsetInCU: 0x2614C, offset: 0x2614C, size: 0x8, addend: 0x0, symName: __ZN2cvL13saturate_castIiEET_f, symObjAddr: 0xE9EC, symBinAddr: 0x100010D50, symSize: 0x24 }
  - { offsetInCU: 0x2B3CA, offset: 0x2B3CA, size: 0x8, addend: 0x0, symName: __Z3rgbiii, symObjAddr: 0x0, symBinAddr: 0x100002364, symSize: 0x70 }
  - { offsetInCU: 0x2B413, offset: 0x2B413, size: 0x8, addend: 0x0, symName: __ZN2cv7Scalar_IdEC1Edddd, symObjAddr: 0x70, symBinAddr: 0x1000023D4, symSize: 0x4C }
  - { offsetInCU: 0x2B47A, offset: 0x2B47A, size: 0x8, addend: 0x0, symName: __Z19decodeResistorValueRKNSt3__16vectorINS_12basic_stringIcNS_11char_traitsIcEENS_9allocatorIcEEEENS4_IS6_EEEE, symObjAddr: 0xBC, symBinAddr: 0x100002420, symSize: 0xCC0 }
  - { offsetInCU: 0x2B56B, offset: 0x2B56B, size: 0x8, addend: 0x0, symName: __ZNKSt3__16vectorINS_12basic_stringIcNS_11char_traitsIcEENS_9allocatorIcEEEENS4_IS6_EEE4sizeB8ue170006Ev, symObjAddr: 0xD7C, symBinAddr: 0x1000030E0, symSize: 0x28 }
  - { offsetInCU: 0x2B596, offset: 0x2B596, size: 0x8, addend: 0x0, symName: __ZNSt3__112basic_stringIcNS_11char_traitsIcEENS_9allocatorIcEEEC1B8ue170006ILi0EEEPKc, symObjAddr: 0xDA4, symBinAddr: 0x100003108, symSize: 0x34 }
  - { offsetInCU: 0x2B5F0, offset: 0x2B5F0, size: 0x8, addend: 0x0, symName: __ZNSt3__14pairIKNS_12basic_stringIcNS_11char_traitsIcEENS_9allocatorIcEEEEiEC1B8ue170006IRA6_KciLPv0EEEOT_OT0_, symObjAddr: 0xDD8, symBinAddr: 0x10000313C, symSize: 0x3C }
  - { offsetInCU: 0x2B664, offset: 0x2B664, size: 0x8, addend: 0x0, symName: __ZNSt3__14pairIKNS_12basic_stringIcNS_11char_traitsIcEENS_9allocatorIcEEEEiEC1B8ue170006IRA4_KciLPv0EEEOT_OT0_, symObjAddr: 0xE14, symBinAddr: 0x100003178, symSize: 0x3C }
  - { offsetInCU: 0x2B6D8, offset: 0x2B6D8, size: 0x8, addend: 0x0, symName: __ZNSt3__14pairIKNS_12basic_stringIcNS_11char_traitsIcEENS_9allocatorIcEEEEiEC1B8ue170006IRA7_KciLPv0EEEOT_OT0_, symObjAddr: 0xE50, symBinAddr: 0x1000031B4, symSize: 0x3C }
  - { offsetInCU: 0x2B74C, offset: 0x2B74C, size: 0x8, addend: 0x0, symName: __ZNSt3__14pairIKNS_12basic_stringIcNS_11char_traitsIcEENS_9allocatorIcEEEEiEC1B8ue170006IRA5_KciLPv0EEEOT_OT0_, symObjAddr: 0xE8C, symBinAddr: 0x1000031F0, symSize: 0x3C }
  - { offsetInCU: 0x2B7AA, offset: 0x2B7AA, size: 0x8, addend: 0x0, symName: __ZNSt3__14pairIKNS_12basic_stringIcNS_11char_traitsIcEENS_9allocatorIcEEEEiED1Ev, symObjAddr: 0xEC8, symBinAddr: 0x10000322C, symSize: 0x2C }
  - { offsetInCU: 0x2B7D6, offset: 0x2B7D6, size: 0x8, addend: 0x0, symName: __ZNSt3__13mapINS_12basic_stringIcNS_11char_traitsIcEENS_9allocatorIcEEEEiNS_4lessIS6_EENS4_INS_4pairIKS6_iEEEEEC1B8ue170006ESt16initializer_listISB_ERKS8_, symObjAddr: 0xEF4, symBinAddr: 0x100003258, symSize: 0x44 }
  - { offsetInCU: 0x2B81E, offset: 0x2B81E, size: 0x8, addend: 0x0, symName: __ZNSt3__14pairIKNS_12basic_stringIcNS_11char_traitsIcEENS_9allocatorIcEEEEdEC1B8ue170006IRA6_KciLPv0EEEOT_OT0_, symObjAddr: 0xF38, symBinAddr: 0x10000329C, symSize: 0x3C }
  - { offsetInCU: 0x2B87C, offset: 0x2B87C, size: 0x8, addend: 0x0, symName: __ZNSt3__14pairIKNS_12basic_stringIcNS_11char_traitsIcEENS_9allocatorIcEEEEdEC1B8ue170006IRA4_KciLPv0EEEOT_OT0_, symObjAddr: 0xF74, symBinAddr: 0x1000032D8, symSize: 0x3C }
  - { offsetInCU: 0x2B8DA, offset: 0x2B8DA, size: 0x8, addend: 0x0, symName: __ZNSt3__14pairIKNS_12basic_stringIcNS_11char_traitsIcEENS_9allocatorIcEEEEdEC1B8ue170006IRA7_KciLPv0EEEOT_OT0_, symObjAddr: 0xFB0, symBinAddr: 0x100003314, symSize: 0x3C }
  - { offsetInCU: 0x2B938, offset: 0x2B938, size: 0x8, addend: 0x0, symName: __ZNSt3__14pairIKNS_12basic_stringIcNS_11char_traitsIcEENS_9allocatorIcEEEEdEC1B8ue170006IRA5_KciLPv0EEEOT_OT0_, symObjAddr: 0xFEC, symBinAddr: 0x100003350, symSize: 0x3C }
  - { offsetInCU: 0x2B99B, offset: 0x2B99B, size: 0x8, addend: 0x0, symName: __ZNSt3__14pairIKNS_12basic_stringIcNS_11char_traitsIcEENS_9allocatorIcEEEEdEC1B8ue170006IRA5_KcdLPv0EEEOT_OT0_, symObjAddr: 0x1028, symBinAddr: 0x10000338C, symSize: 0x3C }
  - { offsetInCU: 0x2B9F9, offset: 0x2B9F9, size: 0x8, addend: 0x0, symName: __ZNSt3__14pairIKNS_12basic_stringIcNS_11char_traitsIcEENS_9allocatorIcEEEEdEC1B8ue170006IRA7_KcdLPv0EEEOT_OT0_, symObjAddr: 0x1064, symBinAddr: 0x1000033C8, symSize: 0x3C }
  - { offsetInCU: 0x2BA57, offset: 0x2BA57, size: 0x8, addend: 0x0, symName: __ZNSt3__14pairIKNS_12basic_stringIcNS_11char_traitsIcEENS_9allocatorIcEEEEdED1Ev, symObjAddr: 0x10A0, symBinAddr: 0x100003404, symSize: 0x2C }
  - { offsetInCU: 0x2BA83, offset: 0x2BA83, size: 0x8, addend: 0x0, symName: __ZNSt3__13mapINS_12basic_stringIcNS_11char_traitsIcEENS_9allocatorIcEEEEdNS_4lessIS6_EENS4_INS_4pairIKS6_dEEEEEC1B8ue170006ESt16initializer_listISB_ERKS8_, symObjAddr: 0x10CC, symBinAddr: 0x100003430, symSize: 0x44 }
  - { offsetInCU: 0x2BACB, offset: 0x2BACB, size: 0x8, addend: 0x0, symName: __ZNKSt3__16vectorINS_12basic_stringIcNS_11char_traitsIcEENS_9allocatorIcEEEENS4_IS6_EEE5beginB8ue170006Ev, symObjAddr: 0x1110, symBinAddr: 0x100003474, symSize: 0x30 }
  - { offsetInCU: 0x2BAF3, offset: 0x2BAF3, size: 0x8, addend: 0x0, symName: __ZNKSt3__16vectorINS_12basic_stringIcNS_11char_traitsIcEENS_9allocatorIcEEEENS4_IS6_EEE3endB8ue170006Ev, symObjAddr: 0x1140, symBinAddr: 0x1000034A4, symSize: 0x30 }
  - { offsetInCU: 0x2BB1B, offset: 0x2BB1B, size: 0x8, addend: 0x0, symName: __ZNKSt3__111__wrap_iterIPKNS_12basic_stringIcNS_11char_traitsIcEENS_9allocatorIcEEEEEdeB8ue170006Ev, symObjAddr: 0x11A4, symBinAddr: 0x100003508, symSize: 0x18 }
  - { offsetInCU: 0x2BB41, offset: 0x2BB41, size: 0x8, addend: 0x0, symName: __ZNSt3__13mapINS_12basic_stringIcNS_11char_traitsIcEENS_9allocatorIcEEEEiNS_4lessIS6_EENS4_INS_4pairIKS6_iEEEEE4findB8ue170006ERSA_, symObjAddr: 0x11EC, symBinAddr: 0x100003550, symSize: 0x40 }
  - { offsetInCU: 0x2BB76, offset: 0x2BB76, size: 0x8, addend: 0x0, symName: __ZNSt3__13mapINS_12basic_stringIcNS_11char_traitsIcEENS_9allocatorIcEEEEiNS_4lessIS6_EENS4_INS_4pairIKS6_iEEEEE3endB8ue170006Ev, symObjAddr: 0x122C, symBinAddr: 0x100003590, symSize: 0x38 }
  - { offsetInCU: 0x2BB9C, offset: 0x2BB9C, size: 0x8, addend: 0x0, symName: __ZNSt3__13mapINS_12basic_stringIcNS_11char_traitsIcEENS_9allocatorIcEEEEdNS_4lessIS6_EENS4_INS_4pairIKS6_dEEEEE4findB8ue170006ERSA_, symObjAddr: 0x1294, symBinAddr: 0x1000035F8, symSize: 0x40 }
  - { offsetInCU: 0x2BBD1, offset: 0x2BBD1, size: 0x8, addend: 0x0, symName: __ZNSt3__13mapINS_12basic_stringIcNS_11char_traitsIcEENS_9allocatorIcEEEEdNS_4lessIS6_EENS4_INS_4pairIKS6_dEEEEE3endB8ue170006Ev, symObjAddr: 0x12D4, symBinAddr: 0x100003638, symSize: 0x38 }
  - { offsetInCU: 0x2BBF7, offset: 0x2BBF7, size: 0x8, addend: 0x0, symName: __ZNSt3__111__wrap_iterIPKNS_12basic_stringIcNS_11char_traitsIcEENS_9allocatorIcEEEEEppB8ue170006Ev, symObjAddr: 0x130C, symBinAddr: 0x100003670, symSize: 0x20 }
  - { offsetInCU: 0x2BC1D, offset: 0x2BC1D, size: 0x8, addend: 0x0, symName: __ZNSt3__13mapINS_12basic_stringIcNS_11char_traitsIcEENS_9allocatorIcEEEEiNS_4lessIS6_EENS4_INS_4pairIKS6_iEEEEEixERSA_, symObjAddr: 0x132C, symBinAddr: 0x100003690, symSize: 0x80 }
  - { offsetInCU: 0x2BC54, offset: 0x2BC54, size: 0x8, addend: 0x0, symName: __ZNKSt3__16vectorINS_12basic_stringIcNS_11char_traitsIcEENS_9allocatorIcEEEENS4_IS6_EEEixB8ue170006Em, symObjAddr: 0x13AC, symBinAddr: 0x100003710, symSize: 0x2C }
  - { offsetInCU: 0x2BC8B, offset: 0x2BC8B, size: 0x8, addend: 0x0, symName: __ZNSt3__13mapINS_12basic_stringIcNS_11char_traitsIcEENS_9allocatorIcEEEEdNS_4lessIS6_EENS4_INS_4pairIKS6_dEEEEEixERSA_, symObjAddr: 0x13D8, symBinAddr: 0x10000373C, symSize: 0x80 }
  - { offsetInCU: 0x2BD12, offset: 0x2BD12, size: 0x8, addend: 0x0, symName: __ZNSt3__119basic_ostringstreamIcNS_11char_traitsIcEENS_9allocatorIcEEEC1B8ue170006Ev, symObjAddr: 0x1458, symBinAddr: 0x1000037BC, symSize: 0xEC }
  - { offsetInCU: 0x2BD3C, offset: 0x2BD3C, size: 0x8, addend: 0x0, symName: __ZNSt3__113basic_ostreamIcNS_11char_traitsIcEEElsB8ue170006EPFRNS_8ios_baseES5_E, symObjAddr: 0x15CC, symBinAddr: 0x100003930, symSize: 0x40 }
  - { offsetInCU: 0x2BD86, offset: 0x2BD86, size: 0x8, addend: 0x0, symName: __ZNSt3__14pairIKNS_12basic_stringIcNS_11char_traitsIcEENS_9allocatorIcEEEES6_EC1B8ue170006IRA6_KcRA3_SA_LPv0EEEOT_OT0_, symObjAddr: 0x1668, symBinAddr: 0x1000039CC, symSize: 0x3C }
  - { offsetInCU: 0x2BDE4, offset: 0x2BDE4, size: 0x8, addend: 0x0, symName: __ZNSt3__14pairIKNS_12basic_stringIcNS_11char_traitsIcEENS_9allocatorIcEEEES6_EC1B8ue170006IRA4_KcRA3_SA_LPv0EEEOT_OT0_, symObjAddr: 0x16A4, symBinAddr: 0x100003A08, symSize: 0x3C }
  - { offsetInCU: 0x2BE42, offset: 0x2BE42, size: 0x8, addend: 0x0, symName: __ZNSt3__14pairIKNS_12basic_stringIcNS_11char_traitsIcEENS_9allocatorIcEEEES6_EC1B8ue170006IRA6_KcRA5_SA_LPv0EEEOT_OT0_, symObjAddr: 0x16E0, symBinAddr: 0x100003A44, symSize: 0x3C }
  - { offsetInCU: 0x2BEA0, offset: 0x2BEA0, size: 0x8, addend: 0x0, symName: __ZNSt3__14pairIKNS_12basic_stringIcNS_11char_traitsIcEENS_9allocatorIcEEEES6_EC1B8ue170006IRA5_KcRA6_SA_LPv0EEEOT_OT0_, symObjAddr: 0x171C, symBinAddr: 0x100003A80, symSize: 0x3C }
  - { offsetInCU: 0x2BEFE, offset: 0x2BEFE, size: 0x8, addend: 0x0, symName: __ZNSt3__14pairIKNS_12basic_stringIcNS_11char_traitsIcEENS_9allocatorIcEEEES6_EC1B8ue170006IRA7_KcRA5_SA_LPv0EEEOT_OT0_, symObjAddr: 0x1758, symBinAddr: 0x100003ABC, symSize: 0x3C }
  - { offsetInCU: 0x2BF5C, offset: 0x2BF5C, size: 0x8, addend: 0x0, symName: __ZNSt3__14pairIKNS_12basic_stringIcNS_11char_traitsIcEENS_9allocatorIcEEEES6_EC1B8ue170006IRA5_KcRA3_SA_LPv0EEEOT_OT0_, symObjAddr: 0x1794, symBinAddr: 0x100003AF8, symSize: 0x3C }
  - { offsetInCU: 0x2BFBA, offset: 0x2BFBA, size: 0x8, addend: 0x0, symName: __ZNSt3__14pairIKNS_12basic_stringIcNS_11char_traitsIcEENS_9allocatorIcEEEES6_EC1B8ue170006IRA7_KcRA4_SA_LPv0EEEOT_OT0_, symObjAddr: 0x17D0, symBinAddr: 0x100003B34, symSize: 0x3C }
  - { offsetInCU: 0x2C018, offset: 0x2C018, size: 0x8, addend: 0x0, symName: __ZNSt3__14pairIKNS_12basic_stringIcNS_11char_traitsIcEENS_9allocatorIcEEEES6_ED1Ev, symObjAddr: 0x180C, symBinAddr: 0x100003B70, symSize: 0x2C }
  - { offsetInCU: 0x2C044, offset: 0x2C044, size: 0x8, addend: 0x0, symName: __ZNSt3__13mapINS_12basic_stringIcNS_11char_traitsIcEENS_9allocatorIcEEEES6_NS_4lessIS6_EENS4_INS_4pairIKS6_S6_EEEEEC1B8ue170006ESt16initializer_listISB_ERKS8_, symObjAddr: 0x1838, symBinAddr: 0x100003B9C, symSize: 0x44 }
  - { offsetInCU: 0x2C08C, offset: 0x2C08C, size: 0x8, addend: 0x0, symName: __ZNSt3__13mapINS_12basic_stringIcNS_11char_traitsIcEENS_9allocatorIcEEEES6_NS_4lessIS6_EENS4_INS_4pairIKS6_S6_EEEEE4findB8ue170006ERSA_, symObjAddr: 0x18AC, symBinAddr: 0x100003C10, symSize: 0x40 }
  - { offsetInCU: 0x2C0C1, offset: 0x2C0C1, size: 0x8, addend: 0x0, symName: __ZNSt3__13mapINS_12basic_stringIcNS_11char_traitsIcEENS_9allocatorIcEEEES6_NS_4lessIS6_EENS4_INS_4pairIKS6_S6_EEEEE3endB8ue170006Ev, symObjAddr: 0x18EC, symBinAddr: 0x100003C50, symSize: 0x38 }
  - { offsetInCU: 0x2C0E7, offset: 0x2C0E7, size: 0x8, addend: 0x0, symName: __ZNSt3__13mapINS_12basic_stringIcNS_11char_traitsIcEENS_9allocatorIcEEEES6_NS_4lessIS6_EENS4_INS_4pairIKS6_S6_EEEEEixERSA_, symObjAddr: 0x1970, symBinAddr: 0x100003CD4, symSize: 0x80 }
  - { offsetInCU: 0x2C11E, offset: 0x2C11E, size: 0x8, addend: 0x0, symName: __ZNSt3__13mapINS_12basic_stringIcNS_11char_traitsIcEENS_9allocatorIcEEEES6_NS_4lessIS6_EENS4_INS_4pairIKS6_S6_EEEEED1B8ue170006Ev, symObjAddr: 0x19F0, symBinAddr: 0x100003D54, symSize: 0x2C }
  - { offsetInCU: 0x2C148, offset: 0x2C148, size: 0x8, addend: 0x0, symName: __ZNKSt3__119basic_ostringstreamIcNS_11char_traitsIcEENS_9allocatorIcEEE3strB8ue170006Ev, symObjAddr: 0x1A1C, symBinAddr: 0x100003D80, symSize: 0x30 }
  - { offsetInCU: 0x2C173, offset: 0x2C173, size: 0x8, addend: 0x0, symName: __ZNSt3__119basic_ostringstreamIcNS_11char_traitsIcEENS_9allocatorIcEEED1Ev, symObjAddr: 0x1A4C, symBinAddr: 0x100003DB0, symSize: 0x40 }
  - { offsetInCU: 0x2C1A0, offset: 0x2C1A0, size: 0x8, addend: 0x0, symName: __ZNSt3__13mapINS_12basic_stringIcNS_11char_traitsIcEENS_9allocatorIcEEEEdNS_4lessIS6_EENS4_INS_4pairIKS6_dEEEEED1B8ue170006Ev, symObjAddr: 0x1A8C, symBinAddr: 0x100003DF0, symSize: 0x2C }
  - { offsetInCU: 0x2C1CA, offset: 0x2C1CA, size: 0x8, addend: 0x0, symName: __ZNSt3__13mapINS_12basic_stringIcNS_11char_traitsIcEENS_9allocatorIcEEEEiNS_4lessIS6_EENS4_INS_4pairIKS6_iEEEEED1B8ue170006Ev, symObjAddr: 0x1AB8, symBinAddr: 0x100003E1C, symSize: 0x2C }
  - { offsetInCU: 0x2C1F4, offset: 0x2C1F4, size: 0x8, addend: 0x0, symName: __ZNSt3__14pairIKNS_12basic_stringIcNS_11char_traitsIcEENS_9allocatorIcEEEEN2cv7Scalar_IdEEEC1B8ue170006IRA6_KcSA_LPv0EEEOT_OT0_, symObjAddr: 0x1AE4, symBinAddr: 0x100003E48, symSize: 0x3C }
  - { offsetInCU: 0x2C252, offset: 0x2C252, size: 0x8, addend: 0x0, symName: __ZNSt3__14pairIKNS_12basic_stringIcNS_11char_traitsIcEENS_9allocatorIcEEEEN2cv7Scalar_IdEEEC1B8ue170006IRA4_KcSA_LPv0EEEOT_OT0_, symObjAddr: 0x1B20, symBinAddr: 0x100003E84, symSize: 0x3C }
  - { offsetInCU: 0x2C2B0, offset: 0x2C2B0, size: 0x8, addend: 0x0, symName: __ZNSt3__14pairIKNS_12basic_stringIcNS_11char_traitsIcEENS_9allocatorIcEEEEN2cv7Scalar_IdEEEC1B8ue170006IRA7_KcSA_LPv0EEEOT_OT0_, symObjAddr: 0x1B5C, symBinAddr: 0x100003EC0, symSize: 0x3C }
  - { offsetInCU: 0x2C30E, offset: 0x2C30E, size: 0x8, addend: 0x0, symName: __ZNSt3__14pairIKNS_12basic_stringIcNS_11char_traitsIcEENS_9allocatorIcEEEEN2cv7Scalar_IdEEEC1B8ue170006IRA5_KcSA_LPv0EEEOT_OT0_, symObjAddr: 0x1B98, symBinAddr: 0x100003EFC, symSize: 0x3C }
  - { offsetInCU: 0x2C36C, offset: 0x2C36C, size: 0x8, addend: 0x0, symName: __ZNSt3__14pairIKNS_12basic_stringIcNS_11char_traitsIcEENS_9allocatorIcEEEEN2cv7Scalar_IdEEED1Ev, symObjAddr: 0x1BD4, symBinAddr: 0x100003F38, symSize: 0x2C }
  - { offsetInCU: 0x2C398, offset: 0x2C398, size: 0x8, addend: 0x0, symName: __ZNSt3__13mapINS_12basic_stringIcNS_11char_traitsIcEENS_9allocatorIcEEEEN2cv7Scalar_IdEENS_4lessIS6_EENS4_INS_4pairIKS6_S9_EEEEEC1B8ue170006ESt16initializer_listISE_ERKSB_, symObjAddr: 0x1C00, symBinAddr: 0x100003F64, symSize: 0x44 }
  - { offsetInCU: 0x2C3E0, offset: 0x2C3E0, size: 0x8, addend: 0x0, symName: __ZNSt3__13mapINS_12basic_stringIcNS_11char_traitsIcEENS_9allocatorIcEEEEN2cv7Scalar_IdEENS_4lessIS6_EENS4_INS_4pairIKS6_S9_EEEEED1B8ue170006Ev, symObjAddr: 0x1C44, symBinAddr: 0x100003FA8, symSize: 0x2C }
  - { offsetInCU: 0x2C409, offset: 0x2C409, size: 0x8, addend: 0x0, symName: __Z12processFrameRN2cv3MatE, symObjAddr: 0x1C70, symBinAddr: 0x100003FD4, symSize: 0x8F8 }
  - { offsetInCU: 0x2C505, offset: 0x2C505, size: 0x8, addend: 0x0, symName: __ZN2cv11_InputArrayC1ERKNS_3MatE, symObjAddr: 0x2568, symBinAddr: 0x1000048CC, symSize: 0x34 }
  - { offsetInCU: 0x2C53F, offset: 0x2C53F, size: 0x8, addend: 0x0, symName: __ZN2cv12_OutputArrayC1ERNS_3MatE, symObjAddr: 0x259C, symBinAddr: 0x100004900, symSize: 0x34 }
  - { offsetInCU: 0x2C579, offset: 0x2C579, size: 0x8, addend: 0x0, symName: __ZN2cv12_OutputArrayD1Ev, symObjAddr: 0x25D0, symBinAddr: 0x100004934, symSize: 0x2C }
  - { offsetInCU: 0x2C5A6, offset: 0x2C5A6, size: 0x8, addend: 0x0, symName: __ZN2cv11_InputArrayD1Ev, symObjAddr: 0x25FC, symBinAddr: 0x100004960, symSize: 0x2C }
  - { offsetInCU: 0x2C5D2, offset: 0x2C5D2, size: 0x8, addend: 0x0, symName: __ZN2cv11_InputArrayC1IdLi4ELi1EEERKNS_4MatxIT_XT0_EXT1_EEE, symObjAddr: 0x2628, symBinAddr: 0x10000498C, symSize: 0x34 }
  - { offsetInCU: 0x2C627, offset: 0x2C627, size: 0x8, addend: 0x0, symName: __ZN2cv5Size_IiEC1Eii, symObjAddr: 0x265C, symBinAddr: 0x1000049C0, symSize: 0x3C }
  - { offsetInCU: 0x2C671, offset: 0x2C671, size: 0x8, addend: 0x0, symName: __ZN2cv6Point_IiEC1Eii, symObjAddr: 0x2698, symBinAddr: 0x1000049FC, symSize: 0x3C }
  - { offsetInCU: 0x2C6B9, offset: 0x2C6B9, size: 0x8, addend: 0x0, symName: __ZNSt3__16vectorINS0_IN2cv6Point_IiEENS_9allocatorIS3_EEEENS4_IS6_EEEC1B8ue170006Ev, symObjAddr: 0x2700, symBinAddr: 0x100004A64, symSize: 0x2C }
  - { offsetInCU: 0x2C6E3, offset: 0x2C6E3, size: 0x8, addend: 0x0, symName: __ZN2cv12_OutputArrayC1INS_6Point_IiEEEERNSt3__16vectorINS5_IT_NS4_9allocatorIS6_EEEENS7_IS9_EEEE, symObjAddr: 0x272C, symBinAddr: 0x100004A90, symSize: 0x34 }
  - { offsetInCU: 0x2C724, offset: 0x2C724, size: 0x8, addend: 0x0, symName: __ZN2cv6Point_IiEC1Ev, symObjAddr: 0x2760, symBinAddr: 0x100004AC4, symSize: 0x2C }
  - { offsetInCU: 0x2C750, offset: 0x2C750, size: 0x8, addend: 0x0, symName: __ZNSt3__16vectorINS0_IN2cv6Point_IiEENS_9allocatorIS3_EEEENS4_IS6_EEE5beginB8ue170006Ev, symObjAddr: 0x278C, symBinAddr: 0x100004AF0, symSize: 0x30 }
  - { offsetInCU: 0x2C778, offset: 0x2C778, size: 0x8, addend: 0x0, symName: __ZNSt3__16vectorINS0_IN2cv6Point_IiEENS_9allocatorIS3_EEEENS4_IS6_EEE3endB8ue170006Ev, symObjAddr: 0x27BC, symBinAddr: 0x100004B20, symSize: 0x30 }
  - { offsetInCU: 0x2C7A0, offset: 0x2C7A0, size: 0x8, addend: 0x0, symName: __ZNKSt3__111__wrap_iterIPNS_6vectorIN2cv6Point_IiEENS_9allocatorIS4_EEEEEdeB8ue170006Ev, symObjAddr: 0x2820, symBinAddr: 0x100004B84, symSize: 0x18 }
  - { offsetInCU: 0x2C7C6, offset: 0x2C7C6, size: 0x8, addend: 0x0, symName: __ZN2cv11_InputArrayC1INS_6Point_IiEEEERKNSt3__16vectorIT_NS4_9allocatorIS6_EEEE, symObjAddr: 0x2838, symBinAddr: 0x100004B9C, symSize: 0x34 }
  - { offsetInCU: 0x2C80C, offset: 0x2C80C, size: 0x8, addend: 0x0, symName: __ZN2cv17_InputOutputArrayC1ERNS_3MatE, symObjAddr: 0x286C, symBinAddr: 0x100004BD0, symSize: 0x34 }
  - { offsetInCU: 0x2C848, offset: 0x2C848, size: 0x8, addend: 0x0, symName: __ZN2cv17_InputOutputArrayD1Ev, symObjAddr: 0x28A0, symBinAddr: 0x100004C04, symSize: 0x2C }
  - { offsetInCU: 0x2C949, offset: 0x2C949, size: 0x8, addend: 0x0, symName: __ZN2cv6Point_IfEC1Eff, symObjAddr: 0x28CC, symBinAddr: 0x100004C30, symSize: 0x3C }
  - { offsetInCU: 0x2C991, offset: 0x2C991, size: 0x8, addend: 0x0, symName: __ZNK2cv6Point_IfEcvNS0_IT_EEIiEEv, symObjAddr: 0x2908, symBinAddr: 0x100004C6C, symSize: 0x50 }
  - { offsetInCU: 0x2C9C2, offset: 0x2C9C2, size: 0x8, addend: 0x0, symName: __ZNSt3__16vectorINS_12basic_stringIcNS_11char_traitsIcEENS_9allocatorIcEEEENS4_IS6_EEEC1B8ue170006ESt16initializer_listIS6_E, symObjAddr: 0x2958, symBinAddr: 0x100004CBC, symSize: 0x3C }
  - { offsetInCU: 0x2C9FD, offset: 0x2C9FD, size: 0x8, addend: 0x0, symName: __ZNK2cv5Rect_IiE2tlEv, symObjAddr: 0x2994, symBinAddr: 0x100004CF8, symSize: 0x34 }
  - { offsetInCU: 0x2CA25, offset: 0x2CA25, size: 0x8, addend: 0x0, symName: __ZNSt3__16vectorINS_12basic_stringIcNS_11char_traitsIcEENS_9allocatorIcEEEENS4_IS6_EEED1B8ue170006Ev, symObjAddr: 0x29C8, symBinAddr: 0x100004D2C, symSize: 0x2C }
  - { offsetInCU: 0x2CA4F, offset: 0x2CA4F, size: 0x8, addend: 0x0, symName: __ZNSt3__111__wrap_iterIPNS_6vectorIN2cv6Point_IiEENS_9allocatorIS4_EEEEEppB8ue170006Ev, symObjAddr: 0x29F4, symBinAddr: 0x100004D58, symSize: 0x20 }
  - { offsetInCU: 0x2CA75, offset: 0x2CA75, size: 0x8, addend: 0x0, symName: __ZNSt3__16vectorINS0_IN2cv6Point_IiEENS_9allocatorIS3_EEEENS4_IS6_EEED1B8ue170006Ev, symObjAddr: 0x2A14, symBinAddr: 0x100004D78, symSize: 0x2C }
  - { offsetInCU: 0x2CA9F, offset: 0x2CA9F, size: 0x8, addend: 0x0, symName: _main, symObjAddr: 0x2A40, symBinAddr: 0x100004DA4, symSize: 0x280 }
  - { offsetInCU: 0x2CAD8, offset: 0x2CAD8, size: 0x8, addend: 0x0, symName: __ZNSt3__113basic_ostreamIcNS_11char_traitsIcEEElsB8ue170006EPFRS3_S4_E, symObjAddr: 0x2CC0, symBinAddr: 0x100005024, symSize: 0x2C }
  - { offsetInCU: 0x2CB0C, offset: 0x2CB0C, size: 0x8, addend: 0x0, symName: __ZNSt3__14pairIKNS_12basic_stringIcNS_11char_traitsIcEENS_9allocatorIcEEEEiED2Ev, symObjAddr: 0x2D44, symBinAddr: 0x1000050A8, symSize: 0x2C }
  - { offsetInCU: 0x2CB38, offset: 0x2CB38, size: 0x8, addend: 0x0, symName: __ZNSt3__14pairIKNS_12basic_stringIcNS_11char_traitsIcEENS_9allocatorIcEEEEdED2Ev, symObjAddr: 0x2D70, symBinAddr: 0x1000050D4, symSize: 0x2C }
  - { offsetInCU: 0x2CB64, offset: 0x2CB64, size: 0x8, addend: 0x0, symName: __ZNKSt3__111__wrap_iterIPKNS_12basic_stringIcNS_11char_traitsIcEENS_9allocatorIcEEEEE4baseB8ue170006Ev, symObjAddr: 0x2DE4, symBinAddr: 0x100005148, symSize: 0x18 }
  - { offsetInCU: 0x2CB8A, offset: 0x2CB8A, size: 0x8, addend: 0x0, symName: __ZNSt3__18ios_base4setfB8ue170006Ejj, symObjAddr: 0x2DFC, symBinAddr: 0x100005160, symSize: 0x5C }
  - { offsetInCU: 0x2CBDF, offset: 0x2CBDF, size: 0x8, addend: 0x0, symName: __ZNSt3__18ios_base6unsetfB8ue170006Ej, symObjAddr: 0x2E58, symBinAddr: 0x1000051BC, symSize: 0x28 }
  - { offsetInCU: 0x2CC16, offset: 0x2CC16, size: 0x8, addend: 0x0, symName: __ZNSt3__18__iom_t5C1B8ue170006Ei, symObjAddr: 0x2E80, symBinAddr: 0x1000051E4, symSize: 0x34 }
  - { offsetInCU: 0x2CC4E, offset: 0x2CC4E, size: 0x8, addend: 0x0, symName: __ZNSt3__18__iom_t5C2B8ue170006Ei, symObjAddr: 0x2EB4, symBinAddr: 0x100005218, symSize: 0x20 }
  - { offsetInCU: 0x2CC86, offset: 0x2CC86, size: 0x8, addend: 0x0, symName: __ZNSt3__14pairIKNS_12basic_stringIcNS_11char_traitsIcEENS_9allocatorIcEEEES6_ED2Ev, symObjAddr: 0x2ED4, symBinAddr: 0x100005238, symSize: 0x38 }
  - { offsetInCU: 0x2CCB2, offset: 0x2CCB2, size: 0x8, addend: 0x0, symName: __ZNSt3__119basic_ostringstreamIcNS_11char_traitsIcEENS_9allocatorIcEEED2Ev, symObjAddr: 0x2F0C, symBinAddr: 0x100005270, symSize: 0x64 }
  - { offsetInCU: 0x2CCEC, offset: 0x2CCEC, size: 0x8, addend: 0x0, symName: __ZTv0_n24_NSt3__119basic_ostringstreamIcNS_11char_traitsIcEENS_9allocatorIcEEED1Ev, symObjAddr: 0x2F70, symBinAddr: 0x1000052D4, symSize: 0x28 }
  - { offsetInCU: 0x2CD08, offset: 0x2CD08, size: 0x8, addend: 0x0, symName: __ZNSt3__115basic_stringbufIcNS_11char_traitsIcEENS_9allocatorIcEEED1Ev, symObjAddr: 0x2F98, symBinAddr: 0x1000052FC, symSize: 0x2C }
  - { offsetInCU: 0x2CD35, offset: 0x2CD35, size: 0x8, addend: 0x0, symName: __ZNSt3__115basic_stringbufIcNS_11char_traitsIcEENS_9allocatorIcEEED2Ev, symObjAddr: 0x2FC4, symBinAddr: 0x100005328, symSize: 0x48 }
  - { offsetInCU: 0x2CD62, offset: 0x2CD62, size: 0x8, addend: 0x0, symName: __ZNSt3__14pairIKNS_12basic_stringIcNS_11char_traitsIcEENS_9allocatorIcEEEEN2cv7Scalar_IdEEED2Ev, symObjAddr: 0x300C, symBinAddr: 0x100005370, symSize: 0x2C }
  - { offsetInCU: 0x2CD8E, offset: 0x2CD8E, size: 0x8, addend: 0x0, symName: __ZN2cv11_InputArrayC2ERKNS_3MatE, symObjAddr: 0x3038, symBinAddr: 0x10000539C, symSize: 0x44 }
  - { offsetInCU: 0x2CDC8, offset: 0x2CDC8, size: 0x8, addend: 0x0, symName: __ZN2cv5Size_IiEC1Ev, symObjAddr: 0x307C, symBinAddr: 0x1000053E0, symSize: 0x2C }
  - { offsetInCU: 0x2CDF4, offset: 0x2CDF4, size: 0x8, addend: 0x0, symName: __ZN2cv11_InputArray4initEiPKv, symObjAddr: 0x30A8, symBinAddr: 0x10000540C, symSize: 0x2C }
  - { offsetInCU: 0x2CE38, offset: 0x2CE38, size: 0x8, addend: 0x0, symName: __ZN2cv5Size_IiEC2Ev, symObjAddr: 0x30D4, symBinAddr: 0x100005438, symSize: 0x1C }
  - { offsetInCU: 0x2CE64, offset: 0x2CE64, size: 0x8, addend: 0x0, symName: __ZN2cv12_OutputArrayC2ERNS_3MatE, symObjAddr: 0x30F0, symBinAddr: 0x100005454, symSize: 0x40 }
  - { offsetInCU: 0x2CE9E, offset: 0x2CE9E, size: 0x8, addend: 0x0, symName: __ZN2cv11_InputArrayC2Ev, symObjAddr: 0x3130, symBinAddr: 0x100005494, symSize: 0x40 }
  - { offsetInCU: 0x2CECA, offset: 0x2CECA, size: 0x8, addend: 0x0, symName: __ZN2cv12_OutputArrayD2Ev, symObjAddr: 0x3170, symBinAddr: 0x1000054D4, symSize: 0x2C }
  - { offsetInCU: 0x2CEF7, offset: 0x2CEF7, size: 0x8, addend: 0x0, symName: __ZN2cv11_InputArrayD2Ev, symObjAddr: 0x319C, symBinAddr: 0x100005500, symSize: 0x14 }
  - { offsetInCU: 0x2CF23, offset: 0x2CF23, size: 0x8, addend: 0x0, symName: __ZN2cv7Scalar_IdE3allEd, symObjAddr: 0x31B0, symBinAddr: 0x100005514, symSize: 0x3C }
  - { offsetInCU: 0x2CF49, offset: 0x2CF49, size: 0x8, addend: 0x0, symName: __ZNKSt3__111__wrap_iterIPNS_6vectorIN2cv6Point_IiEENS_9allocatorIS4_EEEEE4baseB8ue170006Ev, symObjAddr: 0x3234, symBinAddr: 0x100005598, symSize: 0x18 }
  - { offsetInCU: 0x2CF6F, offset: 0x2CF6F, size: 0x8, addend: 0x0, symName: __ZN2cv17_InputOutputArrayC2ERNS_3MatE, symObjAddr: 0x324C, symBinAddr: 0x1000055B0, symSize: 0x40 }
  - { offsetInCU: 0x2CFAB, offset: 0x2CFAB, size: 0x8, addend: 0x0, symName: __ZN2cv12_OutputArrayC2Ev, symObjAddr: 0x328C, symBinAddr: 0x1000055F0, symSize: 0x3C }
  - { offsetInCU: 0x2CFD7, offset: 0x2CFD7, size: 0x8, addend: 0x0, symName: __ZN2cv17_InputOutputArrayD2Ev, symObjAddr: 0x32C8, symBinAddr: 0x10000562C, symSize: 0x2C }
  - { offsetInCU: 0x2D004, offset: 0x2D004, size: 0x8, addend: 0x0, symName: __ZN2cv6Point_IfEC2Eff, symObjAddr: 0x32F4, symBinAddr: 0x100005658, symSize: 0x2C }
  - { offsetInCU: 0x2D04C, offset: 0x2D04C, size: 0x8, addend: 0x0, symName: __ZN2cv5Size_IiEC2Eii, symObjAddr: 0x3320, symBinAddr: 0x100005684, symSize: 0x2C }
  - { offsetInCU: 0x2D096, offset: 0x2D096, size: 0x8, addend: 0x0, symName: __ZNSt3__112basic_stringIcNS_11char_traitsIcEENS_9allocatorIcEEEC2B8ue170006ILi0EEEPKc, symObjAddr: 0x334C, symBinAddr: 0x1000056B0, symSize: 0x58 }
  - { offsetInCU: 0x2D0DA, offset: 0x2D0DA, size: 0x8, addend: 0x0, symName: __ZNSt3__117__compressed_pairINS_12basic_stringIcNS_11char_traitsIcEENS_9allocatorIcEEE5__repES5_EC1B8ue170006INS_18__default_init_tagESA_EEOT_OT0_, symObjAddr: 0x33A4, symBinAddr: 0x100005708, symSize: 0x3C }
  - { offsetInCU: 0x2D132, offset: 0x2D132, size: 0x8, addend: 0x0, symName: __ZNSt3__111char_traitsIcE6lengthB8ue170006EPKc, symObjAddr: 0x33E0, symBinAddr: 0x100005744, symSize: 0x34 }
  - { offsetInCU: 0x2D155, offset: 0x2D155, size: 0x8, addend: 0x0, symName: __ZNSt3__117__compressed_pairINS_12basic_stringIcNS_11char_traitsIcEENS_9allocatorIcEEE5__repES5_EC2B8ue170006INS_18__default_init_tagESA_EEOT_OT0_, symObjAddr: 0x3414, symBinAddr: 0x100005778, symSize: 0x3C }
  - { offsetInCU: 0x2D1AD, offset: 0x2D1AD, size: 0x8, addend: 0x0, symName: __ZNSt3__122__compressed_pair_elemINS_12basic_stringIcNS_11char_traitsIcEENS_9allocatorIcEEE5__repELi0ELb0EEC2B8ue170006ENS_18__default_init_tagE, symObjAddr: 0x3450, symBinAddr: 0x1000057B4, symSize: 0x14 }
  - { offsetInCU: 0x2D1E1, offset: 0x2D1E1, size: 0x8, addend: 0x0, symName: __ZNSt3__122__compressed_pair_elemINS_9allocatorIcEELi1ELb1EEC2B8ue170006ENS_18__default_init_tagE, symObjAddr: 0x3464, symBinAddr: 0x1000057C8, symSize: 0x2C }
  - { offsetInCU: 0x2D215, offset: 0x2D215, size: 0x8, addend: 0x0, symName: __ZNSt3__19allocatorIcEC2B8ue170006Ev, symObjAddr: 0x3490, symBinAddr: 0x1000057F4, symSize: 0x2C }
  - { offsetInCU: 0x2D23F, offset: 0x2D23F, size: 0x8, addend: 0x0, symName: __ZNSt3__116__non_trivial_ifILb1ENS_9allocatorIcEEEC2B8ue170006Ev, symObjAddr: 0x34BC, symBinAddr: 0x100005820, symSize: 0x14 }
  - { offsetInCU: 0x2D269, offset: 0x2D269, size: 0x8, addend: 0x0, symName: __ZN2cv6Point_IiEC2Eii, symObjAddr: 0x3500, symBinAddr: 0x100005864, symSize: 0x2C }
  - { offsetInCU: 0x2D2B1, offset: 0x2D2B1, size: 0x8, addend: 0x0, symName: __ZN2cv11_InputArrayC2IdLi4ELi1EEERKNS_4MatxIT_XT0_EXT1_EEE, symObjAddr: 0x352C, symBinAddr: 0x100005890, symSize: 0x64 }
  - { offsetInCU: 0x2D306, offset: 0x2D306, size: 0x8, addend: 0x0, symName: __ZN2cv11_InputArray4initEiPKvNS_5Size_IiEE, symObjAddr: 0x3590, symBinAddr: 0x1000058F4, symSize: 0x38 }
  - { offsetInCU: 0x2D376, offset: 0x2D376, size: 0x8, addend: 0x0, symName: __ZNKSt3__113basic_ostreamIcNS_11char_traitsIcEEE6sentrycvbB8ue170006Ev, symObjAddr: 0x37B4, symBinAddr: 0x100005B18, symSize: 0x1C }
  - { offsetInCU: 0x2D39C, offset: 0x2D39C, size: 0x8, addend: 0x0, symName: __ZNSt3__119ostreambuf_iteratorIcNS_11char_traitsIcEEEC1B8ue170006ERNS_13basic_ostreamIcS2_EE, symObjAddr: 0x3A10, symBinAddr: 0x100005D74, symSize: 0x34 }
  - { offsetInCU: 0x2D3D4, offset: 0x2D3D4, size: 0x8, addend: 0x0, symName: __ZNKSt3__18ios_base5flagsB8ue170006Ev, symObjAddr: 0x3A44, symBinAddr: 0x100005DA8, symSize: 0x18 }
  - { offsetInCU: 0x2D3FC, offset: 0x2D3FC, size: 0x8, addend: 0x0, symName: __ZNKSt3__19basic_iosIcNS_11char_traitsIcEEE4fillB8ue170006Ev, symObjAddr: 0x3A5C, symBinAddr: 0x100005DC0, symSize: 0x64 }
  - { offsetInCU: 0x2D424, offset: 0x2D424, size: 0x8, addend: 0x0, symName: __ZNKSt3__119ostreambuf_iteratorIcNS_11char_traitsIcEEE6failedB8ue170006Ev, symObjAddr: 0x3AC0, symBinAddr: 0x100005E24, symSize: 0x24 }
  - { offsetInCU: 0x2D44A, offset: 0x2D44A, size: 0x8, addend: 0x0, symName: __ZNSt3__19basic_iosIcNS_11char_traitsIcEEE8setstateB8ue170006Ej, symObjAddr: 0x3AE4, symBinAddr: 0x100005E48, symSize: 0x2C }
  - { offsetInCU: 0x2D47F, offset: 0x2D47F, size: 0x8, addend: 0x0, symName: __ZNKSt3__18ios_base5widthB8ue170006Ev, symObjAddr: 0x3B10, symBinAddr: 0x100005E74, symSize: 0x18 }
  - { offsetInCU: 0x2D4A7, offset: 0x2D4A7, size: 0x8, addend: 0x0, symName: __ZNSt3__115basic_streambufIcNS_11char_traitsIcEEE5sputnB8ue170006EPKcl, symObjAddr: 0x3B28, symBinAddr: 0x100005E8C, symSize: 0x3C }
  - { offsetInCU: 0x2D4E9, offset: 0x2D4E9, size: 0x8, addend: 0x0, symName: __ZNSt3__112basic_stringIcNS_11char_traitsIcEENS_9allocatorIcEEEC1B8ue170006Emc, symObjAddr: 0x3B64, symBinAddr: 0x100005EC8, symSize: 0x3C }
  - { offsetInCU: 0x2D531, offset: 0x2D531, size: 0x8, addend: 0x0, symName: __ZNKSt3__112basic_stringIcNS_11char_traitsIcEENS_9allocatorIcEEE4dataB8ue170006Ev, symObjAddr: 0x3BA0, symBinAddr: 0x100005F04, symSize: 0x28 }
  - { offsetInCU: 0x2D557, offset: 0x2D557, size: 0x8, addend: 0x0, symName: __ZNSt3__18ios_base5widthB8ue170006El, symObjAddr: 0x3BC8, symBinAddr: 0x100005F2C, symSize: 0x2C }
  - { offsetInCU: 0x2D59D, offset: 0x2D59D, size: 0x8, addend: 0x0, symName: __ZNSt3__112basic_stringIcNS_11char_traitsIcEENS_9allocatorIcEEEC2B8ue170006Emc, symObjAddr: 0x3BF4, symBinAddr: 0x100005F58, symSize: 0x4C }
  - { offsetInCU: 0x2D5E5, offset: 0x2D5E5, size: 0x8, addend: 0x0, symName: __ZNKSt3__112basic_stringIcNS_11char_traitsIcEENS_9allocatorIcEEE13__get_pointerB8ue170006Ev, symObjAddr: 0x3C54, symBinAddr: 0x100005FB8, symSize: 0x54 }
  - { offsetInCU: 0x2D60B, offset: 0x2D60B, size: 0x8, addend: 0x0, symName: __ZNKSt3__112basic_stringIcNS_11char_traitsIcEENS_9allocatorIcEEE9__is_longB8ue170006Ev, symObjAddr: 0x3CA8, symBinAddr: 0x10000600C, symSize: 0x38 }
  - { offsetInCU: 0x2D631, offset: 0x2D631, size: 0x8, addend: 0x0, symName: __ZNKSt3__112basic_stringIcNS_11char_traitsIcEENS_9allocatorIcEEE18__get_long_pointerB8ue170006Ev, symObjAddr: 0x3CE0, symBinAddr: 0x100006044, symSize: 0x28 }
  - { offsetInCU: 0x2D657, offset: 0x2D657, size: 0x8, addend: 0x0, symName: __ZNKSt3__112basic_stringIcNS_11char_traitsIcEENS_9allocatorIcEEE19__get_short_pointerB8ue170006Ev, symObjAddr: 0x3D08, symBinAddr: 0x10000606C, symSize: 0x28 }
  - { offsetInCU: 0x2D67D, offset: 0x2D67D, size: 0x8, addend: 0x0, symName: __ZNKSt3__117__compressed_pairINS_12basic_stringIcNS_11char_traitsIcEENS_9allocatorIcEEE5__repES5_E5firstB8ue170006Ev, symObjAddr: 0x3D30, symBinAddr: 0x100006094, symSize: 0x24 }
  - { offsetInCU: 0x2D6A3, offset: 0x2D6A3, size: 0x8, addend: 0x0, symName: __ZNKSt3__122__compressed_pair_elemINS_12basic_stringIcNS_11char_traitsIcEENS_9allocatorIcEEE5__repELi0ELb0EE5__getB8ue170006Ev, symObjAddr: 0x3D54, symBinAddr: 0x1000060B8, symSize: 0x14 }
  - { offsetInCU: 0x2D6C9, offset: 0x2D6C9, size: 0x8, addend: 0x0, symName: __ZNSt3__114pointer_traitsIPKcE10pointer_toB8ue170006ERS1_, symObjAddr: 0x3D68, symBinAddr: 0x1000060CC, symSize: 0x14 }
  - { offsetInCU: 0x2D6EC, offset: 0x2D6EC, size: 0x8, addend: 0x0, symName: __ZNSt3__119ostreambuf_iteratorIcNS_11char_traitsIcEEEC2B8ue170006ERNS_13basic_ostreamIcS2_EE, symObjAddr: 0x3D7C, symBinAddr: 0x1000060E0, symSize: 0x54 }
  - { offsetInCU: 0x2D724, offset: 0x2D724, size: 0x8, addend: 0x0, symName: __ZNKSt3__19basic_iosIcNS_11char_traitsIcEEE5rdbufB8ue170006Ev, symObjAddr: 0x3DD0, symBinAddr: 0x100006134, symSize: 0x24 }
  - { offsetInCU: 0x2D74C, offset: 0x2D74C, size: 0x8, addend: 0x0, symName: __ZNKSt3__18ios_base5rdbufB8ue170006Ev, symObjAddr: 0x3DF4, symBinAddr: 0x100006158, symSize: 0x18 }
  - { offsetInCU: 0x2D772, offset: 0x2D772, size: 0x8, addend: 0x0, symName: __ZNSt3__111char_traitsIcE11eq_int_typeB8ue170006Eii, symObjAddr: 0x3E0C, symBinAddr: 0x100006170, symSize: 0x28 }
  - { offsetInCU: 0x2D7A5, offset: 0x2D7A5, size: 0x8, addend: 0x0, symName: __ZNSt3__111char_traitsIcE3eofB8ue170006Ev, symObjAddr: 0x3E34, symBinAddr: 0x100006198, symSize: 0x8 }
  - { offsetInCU: 0x2D7B9, offset: 0x2D7B9, size: 0x8, addend: 0x0, symName: __ZNKSt3__19basic_iosIcNS_11char_traitsIcEEE5widenB8ue170006Ec, symObjAddr: 0x3E3C, symBinAddr: 0x1000061A0, symSize: 0x84 }
  - { offsetInCU: 0x2D822, offset: 0x2D822, size: 0x8, addend: 0x0, symName: __ZNKSt3__15ctypeIcE5widenB8ue170006Ec, symObjAddr: 0x3EEC, symBinAddr: 0x100006250, symSize: 0x38 }
  - { offsetInCU: 0x2D857, offset: 0x2D857, size: 0x8, addend: 0x0, symName: __ZNSt3__18ios_base8setstateB8ue170006Ej, symObjAddr: 0x3F24, symBinAddr: 0x100006288, symSize: 0x34 }
  - { offsetInCU: 0x2D88E, offset: 0x2D88E, size: 0x8, addend: 0x0, symName: __ZNKSt3__112basic_stringIcNS_11char_traitsIcEENS_9allocatorIcEEE4sizeB8ue170006Ev, symObjAddr: 0x3F58, symBinAddr: 0x1000062BC, symSize: 0x54 }
  - { offsetInCU: 0x2D8B4, offset: 0x2D8B4, size: 0x8, addend: 0x0, symName: __ZNKSt3__112basic_stringIcNS_11char_traitsIcEENS_9allocatorIcEEE15__get_long_sizeB8ue170006Ev, symObjAddr: 0x3FAC, symBinAddr: 0x100006310, symSize: 0x28 }
  - { offsetInCU: 0x2D8DA, offset: 0x2D8DA, size: 0x8, addend: 0x0, symName: __ZNKSt3__112basic_stringIcNS_11char_traitsIcEENS_9allocatorIcEEE16__get_short_sizeB8ue170006Ev, symObjAddr: 0x3FD4, symBinAddr: 0x100006338, symSize: 0x34 }
  - { offsetInCU: 0x2D900, offset: 0x2D900, size: 0x8, addend: 0x0, symName: __ZN2cv6Point_IiEC2Ev, symObjAddr: 0x4008, symBinAddr: 0x10000636C, symSize: 0x1C }
  - { offsetInCU: 0x2D92C, offset: 0x2D92C, size: 0x8, addend: 0x0, symName: __ZN2cv7Scalar_IdEC2Edddd, symObjAddr: 0x4024, symBinAddr: 0x100006388, symSize: 0x5C }
  - { offsetInCU: 0x2D994, offset: 0x2D994, size: 0x8, addend: 0x0, symName: __ZN2cv3VecIdLi4EEC2Ev, symObjAddr: 0x4080, symBinAddr: 0x1000063E4, symSize: 0x2C }
  - { offsetInCU: 0x2D9C0, offset: 0x2D9C0, size: 0x8, addend: 0x0, symName: __ZN2cv4MatxIdLi4ELi1EEC2Ev, symObjAddr: 0x40AC, symBinAddr: 0x100006410, symSize: 0x60 }
  - { offsetInCU: 0x2DA09, offset: 0x2DA09, size: 0x8, addend: 0x0, symName: __ZNSt3__14pairIKNS_12basic_stringIcNS_11char_traitsIcEENS_9allocatorIcEEEEiEC2B8ue170006IRA6_KciLPv0EEEOT_OT0_, symObjAddr: 0x410C, symBinAddr: 0x100006470, symSize: 0x44 }
  - { offsetInCU: 0x2DA67, offset: 0x2DA67, size: 0x8, addend: 0x0, symName: __ZNSt3__14pairIKNS_12basic_stringIcNS_11char_traitsIcEENS_9allocatorIcEEEEiEC2B8ue170006IRA4_KciLPv0EEEOT_OT0_, symObjAddr: 0x4150, symBinAddr: 0x1000064B4, symSize: 0x44 }
  - { offsetInCU: 0x2DAC5, offset: 0x2DAC5, size: 0x8, addend: 0x0, symName: __ZNSt3__14pairIKNS_12basic_stringIcNS_11char_traitsIcEENS_9allocatorIcEEEEiEC2B8ue170006IRA7_KciLPv0EEEOT_OT0_, symObjAddr: 0x4194, symBinAddr: 0x1000064F8, symSize: 0x44 }
  - { offsetInCU: 0x2DB23, offset: 0x2DB23, size: 0x8, addend: 0x0, symName: __ZNSt3__14pairIKNS_12basic_stringIcNS_11char_traitsIcEENS_9allocatorIcEEEEiEC2B8ue170006IRA5_KciLPv0EEEOT_OT0_, symObjAddr: 0x41D8, symBinAddr: 0x10000653C, symSize: 0x44 }
  - { offsetInCU: 0x2DB81, offset: 0x2DB81, size: 0x8, addend: 0x0, symName: __ZNSt3__13mapINS_12basic_stringIcNS_11char_traitsIcEENS_9allocatorIcEEEEiNS_4lessIS6_EENS4_INS_4pairIKS6_iEEEEEC2B8ue170006ESt16initializer_listISB_ERKS8_, symObjAddr: 0x421C, symBinAddr: 0x100006580, symSize: 0xA4 }
  - { offsetInCU: 0x2DBC9, offset: 0x2DBC9, size: 0x8, addend: 0x0, symName: __ZNSt3__119__map_value_compareINS_12basic_stringIcNS_11char_traitsIcEENS_9allocatorIcEEEENS_12__value_typeIS6_iEENS_4lessIS6_EELb1EEC1B8ue170006ESA_, symObjAddr: 0x42C0, symBinAddr: 0x100006624, symSize: 0x2C }
  - { offsetInCU: 0x2DC02, offset: 0x2DC02, size: 0x8, addend: 0x0, symName: __ZNSt3__16__treeINS_12__value_typeINS_12basic_stringIcNS_11char_traitsIcEENS_9allocatorIcEEEEiEENS_19__map_value_compareIS7_S8_NS_4lessIS7_EELb1EEENS5_IS8_EEEC1ERKSC_, symObjAddr: 0x42EC, symBinAddr: 0x100006650, symSize: 0x34 }
  - { offsetInCU: 0x2DC3D, offset: 0x2DC3D, size: 0x8, addend: 0x0, symName: __ZNSt3__13mapINS_12basic_stringIcNS_11char_traitsIcEENS_9allocatorIcEEEEiNS_4lessIS6_EENS4_INS_4pairIKS6_iEEEEE6insertB8ue170006IPKSB_EEvT_SH_, symObjAddr: 0x4320, symBinAddr: 0x100006684, symSize: 0x8C }
  - { offsetInCU: 0x2DCA7, offset: 0x2DCA7, size: 0x8, addend: 0x0, symName: __ZNKSt16initializer_listINSt3__14pairIKNS0_12basic_stringIcNS0_11char_traitsIcEENS0_9allocatorIcEEEEiEEE5beginB8ue170006Ev, symObjAddr: 0x43AC, symBinAddr: 0x100006710, symSize: 0x18 }
  - { offsetInCU: 0x2DCCD, offset: 0x2DCCD, size: 0x8, addend: 0x0, symName: __ZNKSt16initializer_listINSt3__14pairIKNS0_12basic_stringIcNS0_11char_traitsIcEENS0_9allocatorIcEEEEiEEE3endB8ue170006Ev, symObjAddr: 0x43C4, symBinAddr: 0x100006728, symSize: 0x20 }
  - { offsetInCU: 0x2DCF3, offset: 0x2DCF3, size: 0x8, addend: 0x0, symName: __ZNSt3__16__treeINS_12__value_typeINS_12basic_stringIcNS_11char_traitsIcEENS_9allocatorIcEEEEiEENS_19__map_value_compareIS7_S8_NS_4lessIS7_EELb1EEENS5_IS8_EEED1Ev, symObjAddr: 0x43E4, symBinAddr: 0x100006748, symSize: 0x2C }
  - { offsetInCU: 0x2DD1F, offset: 0x2DD1F, size: 0x8, addend: 0x0, symName: __ZNSt3__119__map_value_compareINS_12basic_stringIcNS_11char_traitsIcEENS_9allocatorIcEEEENS_12__value_typeIS6_iEENS_4lessIS6_EELb1EEC2B8ue170006ESA_, symObjAddr: 0x4410, symBinAddr: 0x100006774, symSize: 0x14 }
  - { offsetInCU: 0x2DD58, offset: 0x2DD58, size: 0x8, addend: 0x0, symName: __ZNSt3__16__treeINS_12__value_typeINS_12basic_stringIcNS_11char_traitsIcEENS_9allocatorIcEEEEiEENS_19__map_value_compareIS7_S8_NS_4lessIS7_EELb1EEENS5_IS8_EEEC2ERKSC_, symObjAddr: 0x4424, symBinAddr: 0x100006788, symSize: 0x7C }
  - { offsetInCU: 0x2DD93, offset: 0x2DD93, size: 0x8, addend: 0x0, symName: __ZNSt3__117__compressed_pairINS_15__tree_end_nodeIPNS_16__tree_node_baseIPvEEEENS_9allocatorINS_11__tree_nodeINS_12__value_typeINS_12basic_stringIcNS_11char_traitsIcEENS7_IcEEEEiEES3_EEEEEC1B8ue170006ILb1EvEEv, symObjAddr: 0x44A0, symBinAddr: 0x100006804, symSize: 0x2C }
  - { offsetInCU: 0x2DDC8, offset: 0x2DDC8, size: 0x8, addend: 0x0, symName: __ZNSt3__117__compressed_pairImNS_19__map_value_compareINS_12basic_stringIcNS_11char_traitsIcEENS_9allocatorIcEEEENS_12__value_typeIS7_iEENS_4lessIS7_EELb1EEEEC1B8ue170006IiRKSC_EEOT_OT0_, symObjAddr: 0x44CC, symBinAddr: 0x100006830, symSize: 0x3C }
  - { offsetInCU: 0x2DE20, offset: 0x2DE20, size: 0x8, addend: 0x0, symName: __ZNSt3__16__treeINS_12__value_typeINS_12basic_stringIcNS_11char_traitsIcEENS_9allocatorIcEEEEiEENS_19__map_value_compareIS7_S8_NS_4lessIS7_EELb1EEENS5_IS8_EEE10__end_nodeB8ue170006Ev, symObjAddr: 0x4508, symBinAddr: 0x10000686C, symSize: 0x2C }
  - { offsetInCU: 0x2DE46, offset: 0x2DE46, size: 0x8, addend: 0x0, symName: __ZNSt3__16__treeINS_12__value_typeINS_12basic_stringIcNS_11char_traitsIcEENS_9allocatorIcEEEEiEENS_19__map_value_compareIS7_S8_NS_4lessIS7_EELb1EEENS5_IS8_EEE12__begin_nodeB8ue170006Ev, symObjAddr: 0x4534, symBinAddr: 0x100006898, symSize: 0x14 }
  - { offsetInCU: 0x2DE6C, offset: 0x2DE6C, size: 0x8, addend: 0x0, symName: __ZNSt3__117__compressed_pairINS_15__tree_end_nodeIPNS_16__tree_node_baseIPvEEEENS_9allocatorINS_11__tree_nodeINS_12__value_typeINS_12basic_stringIcNS_11char_traitsIcEENS7_IcEEEEiEES3_EEEEEC2B8ue170006ILb1EvEEv, symObjAddr: 0x4548, symBinAddr: 0x1000068AC, symSize: 0x34 }
  - { offsetInCU: 0x2DEA1, offset: 0x2DEA1, size: 0x8, addend: 0x0, symName: __ZNSt3__122__compressed_pair_elemINS_15__tree_end_nodeIPNS_16__tree_node_baseIPvEEEELi0ELb0EEC2B8ue170006ENS_16__value_init_tagE, symObjAddr: 0x457C, symBinAddr: 0x1000068E0, symSize: 0x2C }
  - { offsetInCU: 0x2DED5, offset: 0x2DED5, size: 0x8, addend: 0x0, symName: __ZNSt3__122__compressed_pair_elemINS_9allocatorINS_11__tree_nodeINS_12__value_typeINS_12basic_stringIcNS_11char_traitsIcEENS1_IcEEEEiEEPvEEEELi1ELb1EEC2B8ue170006ENS_16__value_init_tagE, symObjAddr: 0x45A8, symBinAddr: 0x10000690C, symSize: 0x2C }
  - { offsetInCU: 0x2DF09, offset: 0x2DF09, size: 0x8, addend: 0x0, symName: __ZNSt3__115__tree_end_nodeIPNS_16__tree_node_baseIPvEEEC1B8ue170006Ev, symObjAddr: 0x45D4, symBinAddr: 0x100006938, symSize: 0x2C }
  - { offsetInCU: 0x2DF33, offset: 0x2DF33, size: 0x8, addend: 0x0, symName: __ZNSt3__115__tree_end_nodeIPNS_16__tree_node_baseIPvEEEC2B8ue170006Ev, symObjAddr: 0x4600, symBinAddr: 0x100006964, symSize: 0x18 }
  - { offsetInCU: 0x2DF5D, offset: 0x2DF5D, size: 0x8, addend: 0x0, symName: __ZNSt3__19allocatorINS_11__tree_nodeINS_12__value_typeINS_12basic_stringIcNS_11char_traitsIcEENS0_IcEEEEiEEPvEEEC2B8ue170006Ev, symObjAddr: 0x4618, symBinAddr: 0x10000697C, symSize: 0x2C }
  - { offsetInCU: 0x2DF87, offset: 0x2DF87, size: 0x8, addend: 0x0, symName: __ZNSt3__116__non_trivial_ifILb1ENS_9allocatorINS_11__tree_nodeINS_12__value_typeINS_12basic_stringIcNS_11char_traitsIcEENS1_IcEEEEiEEPvEEEEEC2B8ue170006Ev, symObjAddr: 0x4644, symBinAddr: 0x1000069A8, symSize: 0x14 }
  - { offsetInCU: 0x2DFB1, offset: 0x2DFB1, size: 0x8, addend: 0x0, symName: __ZNSt3__117__compressed_pairImNS_19__map_value_compareINS_12basic_stringIcNS_11char_traitsIcEENS_9allocatorIcEEEENS_12__value_typeIS7_iEENS_4lessIS7_EELb1EEEEC2B8ue170006IiRKSC_EEOT_OT0_, symObjAddr: 0x4658, symBinAddr: 0x1000069BC, symSize: 0x44 }
  - { offsetInCU: 0x2E009, offset: 0x2E009, size: 0x8, addend: 0x0, symName: __ZNSt3__122__compressed_pair_elemImLi0ELb0EEC2B8ue170006IivEEOT_, symObjAddr: 0x469C, symBinAddr: 0x100006A00, symSize: 0x24 }
  - { offsetInCU: 0x2E04B, offset: 0x2E04B, size: 0x8, addend: 0x0, symName: __ZNSt3__122__compressed_pair_elemINS_19__map_value_compareINS_12basic_stringIcNS_11char_traitsIcEENS_9allocatorIcEEEENS_12__value_typeIS7_iEENS_4lessIS7_EELb1EEELi1ELb1EEC2B8ue170006IRKSC_vEEOT_, symObjAddr: 0x46C0, symBinAddr: 0x100006A24, symSize: 0x18 }
  - { offsetInCU: 0x2E08D, offset: 0x2E08D, size: 0x8, addend: 0x0, symName: __ZNSt3__114pointer_traitsIPNS_15__tree_end_nodeIPNS_16__tree_node_baseIPvEEEEE10pointer_toB8ue170006ERS6_, symObjAddr: 0x46D8, symBinAddr: 0x100006A3C, symSize: 0x14 }
  - { offsetInCU: 0x2E0B0, offset: 0x2E0B0, size: 0x8, addend: 0x0, symName: __ZNSt3__117__compressed_pairINS_15__tree_end_nodeIPNS_16__tree_node_baseIPvEEEENS_9allocatorINS_11__tree_nodeINS_12__value_typeINS_12basic_stringIcNS_11char_traitsIcEENS7_IcEEEEiEES3_EEEEE5firstB8ue170006Ev, symObjAddr: 0x46EC, symBinAddr: 0x100006A50, symSize: 0x24 }
  - { offsetInCU: 0x2E0D6, offset: 0x2E0D6, size: 0x8, addend: 0x0, symName: __ZNSt3__122__compressed_pair_elemINS_15__tree_end_nodeIPNS_16__tree_node_baseIPvEEEELi0ELb0EE5__getB8ue170006Ev, symObjAddr: 0x4710, symBinAddr: 0x100006A74, symSize: 0x14 }
  - { offsetInCU: 0x2E0FC, offset: 0x2E0FC, size: 0x8, addend: 0x0, symName: __ZNKSt3__13mapINS_12basic_stringIcNS_11char_traitsIcEENS_9allocatorIcEEEEiNS_4lessIS6_EENS4_INS_4pairIKS6_iEEEEE4cendB8ue170006Ev, symObjAddr: 0x4724, symBinAddr: 0x100006A88, symSize: 0x2C }
  - { offsetInCU: 0x2E122, offset: 0x2E122, size: 0x8, addend: 0x0, symName: __ZNSt3__13mapINS_12basic_stringIcNS_11char_traitsIcEENS_9allocatorIcEEEEiNS_4lessIS6_EENS4_INS_4pairIKS6_iEEEEE6insertB8ue170006ENS_20__map_const_iteratorINS_21__tree_const_iteratorINS_12__value_typeIS6_iEEPNS_11__tree_nodeISH_PvEElEEEERKSB_, symObjAddr: 0x4750, symBinAddr: 0x100006AB4, symSize: 0x50 }
  - { offsetInCU: 0x2E166, offset: 0x2E166, size: 0x8, addend: 0x0, symName: __ZNSt3__120__map_const_iteratorINS_21__tree_const_iteratorINS_12__value_typeINS_12basic_stringIcNS_11char_traitsIcEENS_9allocatorIcEEEEiEEPNS_11__tree_nodeIS9_PvEElEEEC1B8ue170006ESE_, symObjAddr: 0x47A0, symBinAddr: 0x100006B04, symSize: 0x34 }
  - { offsetInCU: 0x2E19F, offset: 0x2E19F, size: 0x8, addend: 0x0, symName: __ZNKSt3__13mapINS_12basic_stringIcNS_11char_traitsIcEENS_9allocatorIcEEEEiNS_4lessIS6_EENS4_INS_4pairIKS6_iEEEEE3endB8ue170006Ev, symObjAddr: 0x47D4, symBinAddr: 0x100006B38, symSize: 0x38 }
  - { offsetInCU: 0x2E1C5, offset: 0x2E1C5, size: 0x8, addend: 0x0, symName: __ZNKSt3__16__treeINS_12__value_typeINS_12basic_stringIcNS_11char_traitsIcEENS_9allocatorIcEEEEiEENS_19__map_value_compareIS7_S8_NS_4lessIS7_EELb1EEENS5_IS8_EEE3endB8ue170006Ev, symObjAddr: 0x480C, symBinAddr: 0x100006B70, symSize: 0x34 }
  - { offsetInCU: 0x2E1EB, offset: 0x2E1EB, size: 0x8, addend: 0x0, symName: __ZNKSt3__16__treeINS_12__value_typeINS_12basic_stringIcNS_11char_traitsIcEENS_9allocatorIcEEEEiEENS_19__map_value_compareIS7_S8_NS_4lessIS7_EELb1EEENS5_IS8_EEE10__end_nodeB8ue170006Ev, symObjAddr: 0x4840, symBinAddr: 0x100006BA4, symSize: 0x2C }
  - { offsetInCU: 0x2E211, offset: 0x2E211, size: 0x8, addend: 0x0, symName: __ZNSt3__121__tree_const_iteratorINS_12__value_typeINS_12basic_stringIcNS_11char_traitsIcEENS_9allocatorIcEEEEiEEPNS_11__tree_nodeIS8_PvEElEC1B8ue170006EPNS_15__tree_end_nodeIPNS_16__tree_node_baseISA_EEEE, symObjAddr: 0x486C, symBinAddr: 0x100006BD0, symSize: 0x34 }
  - { offsetInCU: 0x2E24A, offset: 0x2E24A, size: 0x8, addend: 0x0, symName: __ZNKSt3__117__compressed_pairINS_15__tree_end_nodeIPNS_16__tree_node_baseIPvEEEENS_9allocatorINS_11__tree_nodeINS_12__value_typeINS_12basic_stringIcNS_11char_traitsIcEENS7_IcEEEEiEES3_EEEEE5firstB8ue170006Ev, symObjAddr: 0x48A0, symBinAddr: 0x100006C04, symSize: 0x24 }
  - { offsetInCU: 0x2E270, offset: 0x2E270, size: 0x8, addend: 0x0, symName: __ZNKSt3__122__compressed_pair_elemINS_15__tree_end_nodeIPNS_16__tree_node_baseIPvEEEELi0ELb0EE5__getB8ue170006Ev, symObjAddr: 0x48C4, symBinAddr: 0x100006C28, symSize: 0x14 }
  - { offsetInCU: 0x2E296, offset: 0x2E296, size: 0x8, addend: 0x0, symName: __ZNSt3__121__tree_const_iteratorINS_12__value_typeINS_12basic_stringIcNS_11char_traitsIcEENS_9allocatorIcEEEEiEEPNS_11__tree_nodeIS8_PvEElEC2B8ue170006EPNS_15__tree_end_nodeIPNS_16__tree_node_baseISA_EEEE, symObjAddr: 0x48D8, symBinAddr: 0x100006C3C, symSize: 0x20 }
  - { offsetInCU: 0x2E2CF, offset: 0x2E2CF, size: 0x8, addend: 0x0, symName: __ZNSt3__16__treeINS_12__value_typeINS_12basic_stringIcNS_11char_traitsIcEENS_9allocatorIcEEEEiEENS_19__map_value_compareIS7_S8_NS_4lessIS7_EELb1EEENS5_IS8_EEE15__insert_uniqueB8ue170006ENS_21__tree_const_iteratorIS8_PNS_11__tree_nodeIS8_PvEElEERKNS_4pairIKS7_iEE, symObjAddr: 0x48F8, symBinAddr: 0x100006C5C, symSize: 0x64 }
  - { offsetInCU: 0x2E313, offset: 0x2E313, size: 0x8, addend: 0x0, symName: __ZNSt3__114__map_iteratorINS_15__tree_iteratorINS_12__value_typeINS_12basic_stringIcNS_11char_traitsIcEENS_9allocatorIcEEEEiEEPNS_11__tree_nodeIS9_PvEElEEEC1B8ue170006ESE_, symObjAddr: 0x495C, symBinAddr: 0x100006CC0, symSize: 0x34 }
  - { offsetInCU: 0x2E34C, offset: 0x2E34C, size: 0x8, addend: 0x0, symName: __ZNSt3__16__treeINS_12__value_typeINS_12basic_stringIcNS_11char_traitsIcEENS_9allocatorIcEEEEiEENS_19__map_value_compareIS7_S8_NS_4lessIS7_EELb1EEENS5_IS8_EEE30__emplace_hint_unique_key_argsIS7_JRKNS_4pairIKS7_iEEEEENSG_INS_15__tree_iteratorIS8_PNS_11__tree_nodeIS8_PvEElEEbEENS_21__tree_const_iteratorIS8_SP_lEERKT_DpOT0_, symObjAddr: 0x4990, symBinAddr: 0x100006CF4, symSize: 0x104 }
  - { offsetInCU: 0x2E418, offset: 0x2E418, size: 0x8, addend: 0x0, symName: __ZNSt3__122__tree_key_value_typesINS_12__value_typeINS_12basic_stringIcNS_11char_traitsIcEENS_9allocatorIcEEEEiEEE9__get_keyB8ue170006IKNS_4pairIKS7_iEEEENS_9enable_ifIXsr17__is_same_uncvrefIT_SD_EE5valueERSC_E4typeERSG_, symObjAddr: 0x4A94, symBinAddr: 0x100006DF8, symSize: 0x14 }
  - { offsetInCU: 0x2E445, offset: 0x2E445, size: 0x8, addend: 0x0, symName: __ZNSt3__16__treeINS_12__value_typeINS_12basic_stringIcNS_11char_traitsIcEENS_9allocatorIcEEEEiEENS_19__map_value_compareIS7_S8_NS_4lessIS7_EELb1EEENS5_IS8_EEE12__find_equalIS7_EERPNS_16__tree_node_baseIPvEENS_21__tree_const_iteratorIS8_PNS_11__tree_nodeIS8_SH_EElEERPNS_15__tree_end_nodeISJ_EESK_RKT_, symObjAddr: 0x4AA8, symBinAddr: 0x100006E0C, symSize: 0x304 }
  - { offsetInCU: 0x2E4EE, offset: 0x2E4EE, size: 0x8, addend: 0x0, symName: __ZNSt3__16__treeINS_12__value_typeINS_12basic_stringIcNS_11char_traitsIcEENS_9allocatorIcEEEEiEENS_19__map_value_compareIS7_S8_NS_4lessIS7_EELb1EEENS5_IS8_EEE16__construct_nodeIJRKNS_4pairIKS7_iEEEEENS_10unique_ptrINS_11__tree_nodeIS8_PvEENS_22__tree_node_destructorINS5_ISO_EEEEEEDpOT_, symObjAddr: 0x4DAC, symBinAddr: 0x100007110, symSize: 0x110 }
  - { offsetInCU: 0x2E54F, offset: 0x2E54F, size: 0x8, addend: 0x0, symName: __ZNSt3__16__treeINS_12__value_typeINS_12basic_stringIcNS_11char_traitsIcEENS_9allocatorIcEEEEiEENS_19__map_value_compareIS7_S8_NS_4lessIS7_EELb1EEENS5_IS8_EEE16__insert_node_atEPNS_15__tree_end_nodeIPNS_16__tree_node_baseIPvEEEERSJ_SJ_, symObjAddr: 0x4EBC, symBinAddr: 0x100007220, symSize: 0xCC }
  - { offsetInCU: 0x2E5A4, offset: 0x2E5A4, size: 0x8, addend: 0x0, symName: __ZNKSt3__110unique_ptrINS_11__tree_nodeINS_12__value_typeINS_12basic_stringIcNS_11char_traitsIcEENS_9allocatorIcEEEEiEEPvEENS_22__tree_node_destructorINS6_ISB_EEEEE3getB8ue170006Ev, symObjAddr: 0x4F88, symBinAddr: 0x1000072EC, symSize: 0x28 }
  - { offsetInCU: 0x2E5CA, offset: 0x2E5CA, size: 0x8, addend: 0x0, symName: __ZNSt3__110unique_ptrINS_11__tree_nodeINS_12__value_typeINS_12basic_stringIcNS_11char_traitsIcEENS_9allocatorIcEEEEiEEPvEENS_22__tree_node_destructorINS6_ISB_EEEEE7releaseB8ue170006Ev, symObjAddr: 0x4FB0, symBinAddr: 0x100007314, symSize: 0x44 }
  - { offsetInCU: 0x2E5FF, offset: 0x2E5FF, size: 0x8, addend: 0x0, symName: __ZNSt3__110unique_ptrINS_11__tree_nodeINS_12__value_typeINS_12basic_stringIcNS_11char_traitsIcEENS_9allocatorIcEEEEiEEPvEENS_22__tree_node_destructorINS6_ISB_EEEEED1B8ue170006Ev, symObjAddr: 0x4FF4, symBinAddr: 0x100007358, symSize: 0x2C }
  - { offsetInCU: 0x2E629, offset: 0x2E629, size: 0x8, addend: 0x0, symName: __ZNSt3__115__tree_iteratorINS_12__value_typeINS_12basic_stringIcNS_11char_traitsIcEENS_9allocatorIcEEEEiEEPNS_11__tree_nodeIS8_PvEElEC1B8ue170006ESC_, symObjAddr: 0x5020, symBinAddr: 0x100007384, symSize: 0x34 }
  - { offsetInCU: 0x2E667, offset: 0x2E667, size: 0x8, addend: 0x0, symName: __ZNSt3__14pairINS_15__tree_iteratorINS_12__value_typeINS_12basic_stringIcNS_11char_traitsIcEENS_9allocatorIcEEEEiEEPNS_11__tree_nodeIS9_PvEElEEbEC1B8ue170006ISE_RbLSB_0EEEOT_OT0_, symObjAddr: 0x5054, symBinAddr: 0x1000073B8, symSize: 0x3C }
  - { offsetInCU: 0x2E6C5, offset: 0x2E6C5, size: 0x8, addend: 0x0, symName: __ZNSt3__16__treeINS_12__value_typeINS_12basic_stringIcNS_11char_traitsIcEENS_9allocatorIcEEEEiEENS_19__map_value_compareIS7_S8_NS_4lessIS7_EELb1EEENS5_IS8_EEE3endB8ue170006Ev, symObjAddr: 0x50C0, symBinAddr: 0x100007424, symSize: 0x34 }
  - { offsetInCU: 0x2E6EB, offset: 0x2E6EB, size: 0x8, addend: 0x0, symName: __ZNSt3__121__tree_const_iteratorINS_12__value_typeINS_12basic_stringIcNS_11char_traitsIcEENS_9allocatorIcEEEEiEEPNS_11__tree_nodeIS8_PvEElEC1B8ue170006ENS_15__tree_iteratorIS8_SC_lEE, symObjAddr: 0x50F4, symBinAddr: 0x100007458, symSize: 0x34 }
  - { offsetInCU: 0x2E724, offset: 0x2E724, size: 0x8, addend: 0x0, symName: __ZNSt3__16__treeINS_12__value_typeINS_12basic_stringIcNS_11char_traitsIcEENS_9allocatorIcEEEEiEENS_19__map_value_compareIS7_S8_NS_4lessIS7_EELb1EEENS5_IS8_EEE10value_compB8ue170006Ev, symObjAddr: 0x5128, symBinAddr: 0x10000748C, symSize: 0x28 }
  - { offsetInCU: 0x2E74A, offset: 0x2E74A, size: 0x8, addend: 0x0, symName: __ZNKSt3__119__map_value_compareINS_12basic_stringIcNS_11char_traitsIcEENS_9allocatorIcEEEENS_12__value_typeIS6_iEENS_4lessIS6_EELb1EEclB8ue170006ERKS6_RKS8_, symObjAddr: 0x5150, symBinAddr: 0x1000074B4, symSize: 0x50 }
  - { offsetInCU: 0x2E78E, offset: 0x2E78E, size: 0x8, addend: 0x0, symName: __ZNKSt3__121__tree_const_iteratorINS_12__value_typeINS_12basic_stringIcNS_11char_traitsIcEENS_9allocatorIcEEEEiEEPNS_11__tree_nodeIS8_PvEElEdeB8ue170006Ev, symObjAddr: 0x51A0, symBinAddr: 0x100007504, symSize: 0x28 }
  - { offsetInCU: 0x2E7B4, offset: 0x2E7B4, size: 0x8, addend: 0x0, symName: __ZNSt3__16__treeINS_12__value_typeINS_12basic_stringIcNS_11char_traitsIcEENS_9allocatorIcEEEEiEENS_19__map_value_compareIS7_S8_NS_4lessIS7_EELb1EEENS5_IS8_EEE5beginB8ue170006Ev, symObjAddr: 0x51C8, symBinAddr: 0x10000752C, symSize: 0x34 }
  - { offsetInCU: 0x2E7DA, offset: 0x2E7DA, size: 0x8, addend: 0x0, symName: __ZNKSt3__119__map_value_compareINS_12basic_stringIcNS_11char_traitsIcEENS_9allocatorIcEEEENS_12__value_typeIS6_iEENS_4lessIS6_EELb1EEclB8ue170006ERKS8_RKS6_, symObjAddr: 0x51FC, symBinAddr: 0x100007560, symSize: 0x48 }
  - { offsetInCU: 0x2E81E, offset: 0x2E81E, size: 0x8, addend: 0x0, symName: __ZNSt3__121__tree_const_iteratorINS_12__value_typeINS_12basic_stringIcNS_11char_traitsIcEENS_9allocatorIcEEEEiEEPNS_11__tree_nodeIS8_PvEElEmmB8ue170006Ev, symObjAddr: 0x5244, symBinAddr: 0x1000075A8, symSize: 0x38 }
  - { offsetInCU: 0x2E844, offset: 0x2E844, size: 0x8, addend: 0x0, symName: __ZNSt3__16__treeINS_12__value_typeINS_12basic_stringIcNS_11char_traitsIcEENS_9allocatorIcEEEEiEENS_19__map_value_compareIS7_S8_NS_4lessIS7_EELb1EEENS5_IS8_EEE12__find_equalIS7_EERPNS_16__tree_node_baseIPvEERPNS_15__tree_end_nodeISJ_EERKT_, symObjAddr: 0x527C, symBinAddr: 0x1000075E0, symSize: 0x184 }
  - { offsetInCU: 0x2E8B1, offset: 0x2E8B1, size: 0x8, addend: 0x0, symName: __ZNKSt3__121__tree_const_iteratorINS_12__value_typeINS_12basic_stringIcNS_11char_traitsIcEENS_9allocatorIcEEEEiEEPNS_11__tree_nodeIS8_PvEElE8__get_npB8ue170006Ev, symObjAddr: 0x543C, symBinAddr: 0x1000077A0, symSize: 0x18 }
  - { offsetInCU: 0x2E8D7, offset: 0x2E8D7, size: 0x8, addend: 0x0, symName: __ZNSt3__115__tree_iteratorINS_12__value_typeINS_12basic_stringIcNS_11char_traitsIcEENS_9allocatorIcEEEEiEEPNS_11__tree_nodeIS8_PvEElEC1B8ue170006EPNS_15__tree_end_nodeIPNS_16__tree_node_baseISA_EEEE, symObjAddr: 0x5454, symBinAddr: 0x1000077B8, symSize: 0x34 }
  - { offsetInCU: 0x2E910, offset: 0x2E910, size: 0x8, addend: 0x0, symName: __ZNSt3__115__tree_iteratorINS_12__value_typeINS_12basic_stringIcNS_11char_traitsIcEENS_9allocatorIcEEEEiEEPNS_11__tree_nodeIS8_PvEElEC2B8ue170006EPNS_15__tree_end_nodeIPNS_16__tree_node_baseISA_EEEE, symObjAddr: 0x5488, symBinAddr: 0x1000077EC, symSize: 0x20 }
  - { offsetInCU: 0x2E949, offset: 0x2E949, size: 0x8, addend: 0x0, symName: __ZNSt3__121__tree_const_iteratorINS_12__value_typeINS_12basic_stringIcNS_11char_traitsIcEENS_9allocatorIcEEEEiEEPNS_11__tree_nodeIS8_PvEElEC2B8ue170006ENS_15__tree_iteratorIS8_SC_lEE, symObjAddr: 0x54A8, symBinAddr: 0x10000780C, symSize: 0x20 }
  - { offsetInCU: 0x2E982, offset: 0x2E982, size: 0x8, addend: 0x0, symName: __ZNSt3__117__compressed_pairImNS_19__map_value_compareINS_12basic_stringIcNS_11char_traitsIcEENS_9allocatorIcEEEENS_12__value_typeIS7_iEENS_4lessIS7_EELb1EEEE6secondB8ue170006Ev, symObjAddr: 0x54C8, symBinAddr: 0x10000782C, symSize: 0x24 }
  - { offsetInCU: 0x2E9A8, offset: 0x2E9A8, size: 0x8, addend: 0x0, symName: __ZNSt3__122__compressed_pair_elemINS_19__map_value_compareINS_12basic_stringIcNS_11char_traitsIcEENS_9allocatorIcEEEENS_12__value_typeIS7_iEENS_4lessIS7_EELb1EEELi1ELb1EE5__getB8ue170006Ev, symObjAddr: 0x54EC, symBinAddr: 0x100007850, symSize: 0x14 }
  - { offsetInCU: 0x2E9CE, offset: 0x2E9CE, size: 0x8, addend: 0x0, symName: __ZNKSt3__14lessINS_12basic_stringIcNS_11char_traitsIcEENS_9allocatorIcEEEEEclB8ue170006ERKS6_S9_, symObjAddr: 0x5500, symBinAddr: 0x100007864, symSize: 0x34 }
  - { offsetInCU: 0x2EA12, offset: 0x2EA12, size: 0x8, addend: 0x0, symName: __ZNKSt3__112__value_typeINS_12basic_stringIcNS_11char_traitsIcEENS_9allocatorIcEEEEiE11__get_valueB8ue170006Ev, symObjAddr: 0x5534, symBinAddr: 0x100007898, symSize: 0x14 }
  - { offsetInCU: 0x2EA38, offset: 0x2EA38, size: 0x8, addend: 0x0, symName: __ZNKSt3__112basic_stringIcNS_11char_traitsIcEENS_9allocatorIcEEE7compareB8ue170006ERKS5_, symObjAddr: 0x5580, symBinAddr: 0x1000078E4, symSize: 0x4C }
  - { offsetInCU: 0x2EA6F, offset: 0x2EA6F, size: 0x8, addend: 0x0, symName: __ZNKSt3__112basic_stringIcNS_11char_traitsIcEENS_9allocatorIcEEE7compareINS_17basic_string_viewIcS2_EELi0EEEiRKT_, symObjAddr: 0x55CC, symBinAddr: 0x100007930, symSize: 0x12C }
  - { offsetInCU: 0x2EAF2, offset: 0x2EAF2, size: 0x8, addend: 0x0, symName: __ZNKSt3__112basic_stringIcNS_11char_traitsIcEENS_9allocatorIcEEEcvNS_17basic_string_viewIcS2_EEB8ue170006Ev, symObjAddr: 0x56F8, symBinAddr: 0x100007A5C, symSize: 0x50 }
  - { offsetInCU: 0x2EB18, offset: 0x2EB18, size: 0x8, addend: 0x0, symName: __ZNKSt3__117basic_string_viewIcNS_11char_traitsIcEEE4sizeB8ue170006Ev, symObjAddr: 0x5748, symBinAddr: 0x100007AAC, symSize: 0x18 }
  - { offsetInCU: 0x2EB3E, offset: 0x2EB3E, size: 0x8, addend: 0x0, symName: __ZNSt3__111char_traitsIcE7compareB8ue170006EPKcS3_m, symObjAddr: 0x5760, symBinAddr: 0x100007AC4, symSize: 0x34 }
  - { offsetInCU: 0x2EB7D, offset: 0x2EB7D, size: 0x8, addend: 0x0, symName: __ZNKSt3__117basic_string_viewIcNS_11char_traitsIcEEE4dataB8ue170006Ev, symObjAddr: 0x5794, symBinAddr: 0x100007AF8, symSize: 0x18 }
  - { offsetInCU: 0x2EBAD, offset: 0x2EBAD, size: 0x8, addend: 0x0, symName: __ZNKSt3__16__lessIvvEclB8ue170006ImmEEbRKT_RKT0_, symObjAddr: 0x582C, symBinAddr: 0x100007B90, symSize: 0x34 }
  - { offsetInCU: 0x2EC01, offset: 0x2EC01, size: 0x8, addend: 0x0, symName: __ZNSt3__117basic_string_viewIcNS_11char_traitsIcEEEC1B8ue170006EPKcm, symObjAddr: 0x5860, symBinAddr: 0x100007BC4, symSize: 0x3C }
  - { offsetInCU: 0x2EC49, offset: 0x2EC49, size: 0x8, addend: 0x0, symName: __ZNSt3__117basic_string_viewIcNS_11char_traitsIcEEEC2B8ue170006EPKcm, symObjAddr: 0x589C, symBinAddr: 0x100007C00, symSize: 0x2C }
  - { offsetInCU: 0x2EC91, offset: 0x2EC91, size: 0x8, addend: 0x0, symName: __ZNKSt3__116__tree_node_baseIPvE15__parent_unsafeB8ue170006Ev, symObjAddr: 0x59D8, symBinAddr: 0x100007D3C, symSize: 0x18 }
  - { offsetInCU: 0x2ECB7, offset: 0x2ECB7, size: 0x8, addend: 0x0, symName: __ZNKSt3__16__treeINS_12__value_typeINS_12basic_stringIcNS_11char_traitsIcEENS_9allocatorIcEEEEiEENS_19__map_value_compareIS7_S8_NS_4lessIS7_EELb1EEENS5_IS8_EEE6__rootB8ue170006Ev, symObjAddr: 0x59F0, symBinAddr: 0x100007D54, symSize: 0x28 }
  - { offsetInCU: 0x2ECDD, offset: 0x2ECDD, size: 0x8, addend: 0x0, symName: __ZNKSt3__16__treeINS_12__value_typeINS_12basic_stringIcNS_11char_traitsIcEENS_9allocatorIcEEEEiEENS_19__map_value_compareIS7_S8_NS_4lessIS7_EELb1EEENS5_IS8_EEE10__root_ptrB8ue170006Ev, symObjAddr: 0x5A18, symBinAddr: 0x100007D7C, symSize: 0x24 }
  - { offsetInCU: 0x2ED03, offset: 0x2ED03, size: 0x8, addend: 0x0, symName: __ZNSt3__121__tree_const_iteratorINS_12__value_typeINS_12basic_stringIcNS_11char_traitsIcEENS_9allocatorIcEEEEiEEPNS_11__tree_nodeIS8_PvEElEppB8ue170006Ev, symObjAddr: 0x5B2C, symBinAddr: 0x100007E90, symSize: 0x38 }
  - { offsetInCU: 0x2ED29, offset: 0x2ED29, size: 0x8, addend: 0x0, symName: __ZNSt3__16__treeINS_12__value_typeINS_12basic_stringIcNS_11char_traitsIcEENS_9allocatorIcEEEEiEENS_19__map_value_compareIS7_S8_NS_4lessIS7_EELb1EEENS5_IS8_EEE12__node_allocB8ue170006Ev, symObjAddr: 0x5C24, symBinAddr: 0x100007F88, symSize: 0x28 }
  - { offsetInCU: 0x2ED4F, offset: 0x2ED4F, size: 0x8, addend: 0x0, symName: __ZNSt3__116allocator_traitsINS_9allocatorINS_11__tree_nodeINS_12__value_typeINS_12basic_stringIcNS_11char_traitsIcEENS1_IcEEEEiEEPvEEEEE8allocateB8ue170006ERSC_m, symObjAddr: 0x5C4C, symBinAddr: 0x100007FB0, symSize: 0x2C }
  - { offsetInCU: 0x2ED82, offset: 0x2ED82, size: 0x8, addend: 0x0, symName: __ZNSt3__122__tree_node_destructorINS_9allocatorINS_11__tree_nodeINS_12__value_typeINS_12basic_stringIcNS_11char_traitsIcEENS1_IcEEEEiEEPvEEEEEC1B8ue170006ERSC_b, symObjAddr: 0x5C78, symBinAddr: 0x100007FDC, symSize: 0x48 }
  - { offsetInCU: 0x2EDCF, offset: 0x2EDCF, size: 0x8, addend: 0x0, symName: __ZNSt3__110unique_ptrINS_11__tree_nodeINS_12__value_typeINS_12basic_stringIcNS_11char_traitsIcEENS_9allocatorIcEEEEiEEPvEENS_22__tree_node_destructorINS6_ISB_EEEEEC1B8ue170006ILb1EvEEPSB_NS_16__dependent_typeINS_27__unique_ptr_deleter_sfinaeISE_EEXT_EE20__good_rval_ref_typeE, symObjAddr: 0x5CC0, symBinAddr: 0x100008024, symSize: 0x3C }
  - { offsetInCU: 0x2EE20, offset: 0x2EE20, size: 0x8, addend: 0x0, symName: __ZNSt3__116allocator_traitsINS_9allocatorINS_11__tree_nodeINS_12__value_typeINS_12basic_stringIcNS_11char_traitsIcEENS1_IcEEEEiEEPvEEEEE9constructB8ue170006INS_4pairIKS8_iEEJRKSH_EvEEvRSC_PT_DpOT0_, symObjAddr: 0x5CFC, symBinAddr: 0x100008060, symSize: 0x34 }
  - { offsetInCU: 0x2EE77, offset: 0x2EE77, size: 0x8, addend: 0x0, symName: __ZNSt3__122__tree_key_value_typesINS_12__value_typeINS_12basic_stringIcNS_11char_traitsIcEENS_9allocatorIcEEEEiEEE9__get_ptrB8ue170006ERS8_, symObjAddr: 0x5D30, symBinAddr: 0x100008094, symSize: 0x24 }
  - { offsetInCU: 0x2EE9B, offset: 0x2EE9B, size: 0x8, addend: 0x0, symName: __ZNKSt3__110unique_ptrINS_11__tree_nodeINS_12__value_typeINS_12basic_stringIcNS_11char_traitsIcEENS_9allocatorIcEEEEiEEPvEENS_22__tree_node_destructorINS6_ISB_EEEEEptB8ue170006Ev, symObjAddr: 0x5D54, symBinAddr: 0x1000080B8, symSize: 0x28 }
  - { offsetInCU: 0x2EEC1, offset: 0x2EEC1, size: 0x8, addend: 0x0, symName: __ZNSt3__110unique_ptrINS_11__tree_nodeINS_12__value_typeINS_12basic_stringIcNS_11char_traitsIcEENS_9allocatorIcEEEEiEEPvEENS_22__tree_node_destructorINS6_ISB_EEEEE11get_deleterB8ue170006Ev, symObjAddr: 0x5D7C, symBinAddr: 0x1000080E0, symSize: 0x24 }
  - { offsetInCU: 0x2EEE7, offset: 0x2EEE7, size: 0x8, addend: 0x0, symName: __ZNSt3__117__compressed_pairINS_15__tree_end_nodeIPNS_16__tree_node_baseIPvEEEENS_9allocatorINS_11__tree_nodeINS_12__value_typeINS_12basic_stringIcNS_11char_traitsIcEENS7_IcEEEEiEES3_EEEEE6secondB8ue170006Ev, symObjAddr: 0x5DA0, symBinAddr: 0x100008104, symSize: 0x24 }
  - { offsetInCU: 0x2EF0D, offset: 0x2EF0D, size: 0x8, addend: 0x0, symName: __ZNSt3__122__compressed_pair_elemINS_9allocatorINS_11__tree_nodeINS_12__value_typeINS_12basic_stringIcNS_11char_traitsIcEENS1_IcEEEEiEEPvEEEELi1ELb1EE5__getB8ue170006Ev, symObjAddr: 0x5DC4, symBinAddr: 0x100008128, symSize: 0x14 }
  - { offsetInCU: 0x2EF33, offset: 0x2EF33, size: 0x8, addend: 0x0, symName: __ZNSt3__19allocatorINS_11__tree_nodeINS_12__value_typeINS_12basic_stringIcNS_11char_traitsIcEENS0_IcEEEEiEEPvEEE8allocateB8ue170006Em, symObjAddr: 0x5DD8, symBinAddr: 0x10000813C, symSize: 0x58 }
  - { offsetInCU: 0x2EF71, offset: 0x2EF71, size: 0x8, addend: 0x0, symName: __ZNSt3__116allocator_traitsINS_9allocatorINS_11__tree_nodeINS_12__value_typeINS_12basic_stringIcNS_11char_traitsIcEENS1_IcEEEEiEEPvEEEEE8max_sizeB8ue170006ISC_vEEmRKSC_, symObjAddr: 0x5E30, symBinAddr: 0x100008194, symSize: 0x24 }
  - { offsetInCU: 0x2EF9F, offset: 0x2EF9F, size: 0x8, addend: 0x0, symName: __ZNKSt3__19allocatorINS_11__tree_nodeINS_12__value_typeINS_12basic_stringIcNS_11char_traitsIcEENS0_IcEEEEiEEPvEEE8max_sizeB8ue170006Ev, symObjAddr: 0x5EB0, symBinAddr: 0x100008214, symSize: 0x14 }
  - { offsetInCU: 0x2EFC5, offset: 0x2EFC5, size: 0x8, addend: 0x0, symName: __ZNSt3__122__tree_node_destructorINS_9allocatorINS_11__tree_nodeINS_12__value_typeINS_12basic_stringIcNS_11char_traitsIcEENS1_IcEEEEiEEPvEEEEEC2B8ue170006ERSC_b, symObjAddr: 0x5EE8, symBinAddr: 0x10000824C, symSize: 0x38 }
  - { offsetInCU: 0x2F00D, offset: 0x2F00D, size: 0x8, addend: 0x0, symName: __ZNSt3__110unique_ptrINS_11__tree_nodeINS_12__value_typeINS_12basic_stringIcNS_11char_traitsIcEENS_9allocatorIcEEEEiEEPvEENS_22__tree_node_destructorINS6_ISB_EEEEEC2B8ue170006ILb1EvEEPSB_NS_16__dependent_typeINS_27__unique_ptr_deleter_sfinaeISE_EEXT_EE20__good_rval_ref_typeE, symObjAddr: 0x5F20, symBinAddr: 0x100008284, symSize: 0x48 }
  - { offsetInCU: 0x2F05E, offset: 0x2F05E, size: 0x8, addend: 0x0, symName: __ZNSt3__117__compressed_pairIPNS_11__tree_nodeINS_12__value_typeINS_12basic_stringIcNS_11char_traitsIcEENS_9allocatorIcEEEEiEEPvEENS_22__tree_node_destructorINS6_ISB_EEEEEC1B8ue170006IRSC_SF_EEOT_OT0_, symObjAddr: 0x5F68, symBinAddr: 0x1000082CC, symSize: 0x3C }
  - { offsetInCU: 0x2F0B6, offset: 0x2F0B6, size: 0x8, addend: 0x0, symName: __ZNSt3__117__compressed_pairIPNS_11__tree_nodeINS_12__value_typeINS_12basic_stringIcNS_11char_traitsIcEENS_9allocatorIcEEEEiEEPvEENS_22__tree_node_destructorINS6_ISB_EEEEEC2B8ue170006IRSC_SF_EEOT_OT0_, symObjAddr: 0x5FA4, symBinAddr: 0x100008308, symSize: 0x48 }
  - { offsetInCU: 0x2F10E, offset: 0x2F10E, size: 0x8, addend: 0x0, symName: __ZNSt3__122__compressed_pair_elemIPNS_11__tree_nodeINS_12__value_typeINS_12basic_stringIcNS_11char_traitsIcEENS_9allocatorIcEEEEiEEPvEELi0ELb0EEC2B8ue170006IRSC_vEEOT_, symObjAddr: 0x5FEC, symBinAddr: 0x100008350, symSize: 0x24 }
  - { offsetInCU: 0x2F150, offset: 0x2F150, size: 0x8, addend: 0x0, symName: __ZNSt3__122__compressed_pair_elemINS_22__tree_node_destructorINS_9allocatorINS_11__tree_nodeINS_12__value_typeINS_12basic_stringIcNS_11char_traitsIcEENS2_IcEEEEiEEPvEEEEEELi1ELb0EEC2B8ue170006ISE_vEEOT_, symObjAddr: 0x6010, symBinAddr: 0x100008374, symSize: 0x24 }
  - { offsetInCU: 0x2F192, offset: 0x2F192, size: 0x8, addend: 0x0, symName: __ZNSt3__19allocatorINS_11__tree_nodeINS_12__value_typeINS_12basic_stringIcNS_11char_traitsIcEENS0_IcEEEEiEEPvEEE9constructB8ue170006INS_4pairIKS7_iEEJRKSF_EEEvPT_DpOT0_, symObjAddr: 0x6034, symBinAddr: 0x100008398, symSize: 0x30 }
  - { offsetInCU: 0x2F1E8, offset: 0x2F1E8, size: 0x8, addend: 0x0, symName: __ZNSt3__14pairIKNS_12basic_stringIcNS_11char_traitsIcEENS_9allocatorIcEEEEiEC1B8ue170006ERKS8_, symObjAddr: 0x6064, symBinAddr: 0x1000083C8, symSize: 0x34 }
  - { offsetInCU: 0x2F21C, offset: 0x2F21C, size: 0x8, addend: 0x0, symName: __ZNSt3__14pairIKNS_12basic_stringIcNS_11char_traitsIcEENS_9allocatorIcEEEEiEC2B8ue170006ERKS8_, symObjAddr: 0x6098, symBinAddr: 0x1000083FC, symSize: 0x40 }
  - { offsetInCU: 0x2F250, offset: 0x2F250, size: 0x8, addend: 0x0, symName: __ZNSt3__112__value_typeINS_12basic_stringIcNS_11char_traitsIcEENS_9allocatorIcEEEEiE11__get_valueB8ue170006Ev, symObjAddr: 0x60D8, symBinAddr: 0x10000843C, symSize: 0x14 }
  - { offsetInCU: 0x2F276, offset: 0x2F276, size: 0x8, addend: 0x0, symName: __ZNKSt3__117__compressed_pairIPNS_11__tree_nodeINS_12__value_typeINS_12basic_stringIcNS_11char_traitsIcEENS_9allocatorIcEEEEiEEPvEENS_22__tree_node_destructorINS6_ISB_EEEEE5firstB8ue170006Ev, symObjAddr: 0x60EC, symBinAddr: 0x100008450, symSize: 0x24 }
  - { offsetInCU: 0x2F29C, offset: 0x2F29C, size: 0x8, addend: 0x0, symName: __ZNKSt3__122__compressed_pair_elemIPNS_11__tree_nodeINS_12__value_typeINS_12basic_stringIcNS_11char_traitsIcEENS_9allocatorIcEEEEiEEPvEELi0ELb0EE5__getB8ue170006Ev, symObjAddr: 0x6110, symBinAddr: 0x100008474, symSize: 0x14 }
  - { offsetInCU: 0x2F2C2, offset: 0x2F2C2, size: 0x8, addend: 0x0, symName: __ZNSt3__117__compressed_pairIPNS_11__tree_nodeINS_12__value_typeINS_12basic_stringIcNS_11char_traitsIcEENS_9allocatorIcEEEEiEEPvEENS_22__tree_node_destructorINS6_ISB_EEEEE6secondB8ue170006Ev, symObjAddr: 0x6124, symBinAddr: 0x100008488, symSize: 0x28 }
  - { offsetInCU: 0x2F2E8, offset: 0x2F2E8, size: 0x8, addend: 0x0, symName: __ZNSt3__122__compressed_pair_elemINS_22__tree_node_destructorINS_9allocatorINS_11__tree_nodeINS_12__value_typeINS_12basic_stringIcNS_11char_traitsIcEENS2_IcEEEEiEEPvEEEEEELi1ELb0EE5__getB8ue170006Ev, symObjAddr: 0x614C, symBinAddr: 0x1000084B0, symSize: 0x14 }
  - { offsetInCU: 0x2F30E, offset: 0x2F30E, size: 0x8, addend: 0x0, symName: __ZNSt3__16__treeINS_12__value_typeINS_12basic_stringIcNS_11char_traitsIcEENS_9allocatorIcEEEEiEENS_19__map_value_compareIS7_S8_NS_4lessIS7_EELb1EEENS5_IS8_EEE4sizeB8ue170006Ev, symObjAddr: 0x63DC, symBinAddr: 0x100008740, symSize: 0x28 }
  - { offsetInCU: 0x2F334, offset: 0x2F334, size: 0x8, addend: 0x0, symName: __ZNSt3__116__tree_node_baseIPvE12__set_parentB8ue170006EPS2_, symObjAddr: 0x65A8, symBinAddr: 0x10000890C, symSize: 0x20 }
  - { offsetInCU: 0x2F369, offset: 0x2F369, size: 0x8, addend: 0x0, symName: __ZNSt3__117__compressed_pairImNS_19__map_value_compareINS_12basic_stringIcNS_11char_traitsIcEENS_9allocatorIcEEEENS_12__value_typeIS7_iEENS_4lessIS7_EELb1EEEE5firstB8ue170006Ev, symObjAddr: 0x65C8, symBinAddr: 0x10000892C, symSize: 0x24 }
  - { offsetInCU: 0x2F38F, offset: 0x2F38F, size: 0x8, addend: 0x0, symName: __ZNSt3__122__compressed_pair_elemImLi0ELb0EE5__getB8ue170006Ev, symObjAddr: 0x65EC, symBinAddr: 0x100008950, symSize: 0x14 }
  - { offsetInCU: 0x2F3B5, offset: 0x2F3B5, size: 0x8, addend: 0x0, symName: __ZNSt3__117__compressed_pairIPNS_11__tree_nodeINS_12__value_typeINS_12basic_stringIcNS_11char_traitsIcEENS_9allocatorIcEEEEiEEPvEENS_22__tree_node_destructorINS6_ISB_EEEEE5firstB8ue170006Ev, symObjAddr: 0x6600, symBinAddr: 0x100008964, symSize: 0x24 }
  - { offsetInCU: 0x2F3DB, offset: 0x2F3DB, size: 0x8, addend: 0x0, symName: __ZNSt3__122__compressed_pair_elemIPNS_11__tree_nodeINS_12__value_typeINS_12basic_stringIcNS_11char_traitsIcEENS_9allocatorIcEEEEiEEPvEELi0ELb0EE5__getB8ue170006Ev, symObjAddr: 0x6624, symBinAddr: 0x100008988, symSize: 0x14 }
  - { offsetInCU: 0x2F401, offset: 0x2F401, size: 0x8, addend: 0x0, symName: __ZNSt3__110unique_ptrINS_11__tree_nodeINS_12__value_typeINS_12basic_stringIcNS_11char_traitsIcEENS_9allocatorIcEEEEiEEPvEENS_22__tree_node_destructorINS6_ISB_EEEEED2B8ue170006Ev, symObjAddr: 0x6638, symBinAddr: 0x10000899C, symSize: 0x30 }
  - { offsetInCU: 0x2F42B, offset: 0x2F42B, size: 0x8, addend: 0x0, symName: __ZNSt3__110unique_ptrINS_11__tree_nodeINS_12__value_typeINS_12basic_stringIcNS_11char_traitsIcEENS_9allocatorIcEEEEiEEPvEENS_22__tree_node_destructorINS6_ISB_EEEEE5resetB8ue170006EPSB_, symObjAddr: 0x6668, symBinAddr: 0x1000089CC, symSize: 0x78 }
  - { offsetInCU: 0x2F46F, offset: 0x2F46F, size: 0x8, addend: 0x0, symName: __ZNSt3__122__tree_node_destructorINS_9allocatorINS_11__tree_nodeINS_12__value_typeINS_12basic_stringIcNS_11char_traitsIcEENS1_IcEEEEiEEPvEEEEEclB8ue170006EPSB_, symObjAddr: 0x66E0, symBinAddr: 0x100008A44, symSize: 0x98 }
  - { offsetInCU: 0x2F4A4, offset: 0x2F4A4, size: 0x8, addend: 0x0, symName: __ZNSt3__116allocator_traitsINS_9allocatorINS_11__tree_nodeINS_12__value_typeINS_12basic_stringIcNS_11char_traitsIcEENS1_IcEEEEiEEPvEEEEE7destroyB8ue170006INS_4pairIKS8_iEEvvEEvRSC_PT_, symObjAddr: 0x6778, symBinAddr: 0x100008ADC, symSize: 0x28 }
  - { offsetInCU: 0x2F4DF, offset: 0x2F4DF, size: 0x8, addend: 0x0, symName: __ZNSt3__116allocator_traitsINS_9allocatorINS_11__tree_nodeINS_12__value_typeINS_12basic_stringIcNS_11char_traitsIcEENS1_IcEEEEiEEPvEEEEE10deallocateB8ue170006ERSC_PSB_m, symObjAddr: 0x67A0, symBinAddr: 0x100008B04, symSize: 0x34 }
  - { offsetInCU: 0x2F521, offset: 0x2F521, size: 0x8, addend: 0x0, symName: __ZNSt3__19allocatorINS_11__tree_nodeINS_12__value_typeINS_12basic_stringIcNS_11char_traitsIcEENS0_IcEEEEiEEPvEEE10deallocateB8ue170006EPSA_m, symObjAddr: 0x67D4, symBinAddr: 0x100008B38, symSize: 0x40 }
  - { offsetInCU: 0x2F563, offset: 0x2F563, size: 0x8, addend: 0x0, symName: __ZNSt3__115__tree_iteratorINS_12__value_typeINS_12basic_stringIcNS_11char_traitsIcEENS_9allocatorIcEEEEiEEPNS_11__tree_nodeIS8_PvEElEC2B8ue170006ESC_, symObjAddr: 0x6890, symBinAddr: 0x100008BF4, symSize: 0x20 }
  - { offsetInCU: 0x2F59C, offset: 0x2F59C, size: 0x8, addend: 0x0, symName: __ZNSt3__14pairINS_15__tree_iteratorINS_12__value_typeINS_12basic_stringIcNS_11char_traitsIcEENS_9allocatorIcEEEEiEEPNS_11__tree_nodeIS9_PvEElEEbEC2B8ue170006ISE_RbLSB_0EEEOT_OT0_, symObjAddr: 0x68B0, symBinAddr: 0x100008C14, symSize: 0x38 }
  - { offsetInCU: 0x2F5FA, offset: 0x2F5FA, size: 0x8, addend: 0x0, symName: __ZNSt3__114__map_iteratorINS_15__tree_iteratorINS_12__value_typeINS_12basic_stringIcNS_11char_traitsIcEENS_9allocatorIcEEEEiEEPNS_11__tree_nodeIS9_PvEElEEEC2B8ue170006ESE_, symObjAddr: 0x68E8, symBinAddr: 0x100008C4C, symSize: 0x20 }
  - { offsetInCU: 0x2F633, offset: 0x2F633, size: 0x8, addend: 0x0, symName: __ZNSt3__120__map_const_iteratorINS_21__tree_const_iteratorINS_12__value_typeINS_12basic_stringIcNS_11char_traitsIcEENS_9allocatorIcEEEEiEEPNS_11__tree_nodeIS9_PvEElEEEC2B8ue170006ESE_, symObjAddr: 0x6908, symBinAddr: 0x100008C6C, symSize: 0x20 }
  - { offsetInCU: 0x2F66C, offset: 0x2F66C, size: 0x8, addend: 0x0, symName: __ZNSt3__16__treeINS_12__value_typeINS_12basic_stringIcNS_11char_traitsIcEENS_9allocatorIcEEEEiEENS_19__map_value_compareIS7_S8_NS_4lessIS7_EELb1EEENS5_IS8_EEED2Ev, symObjAddr: 0x6928, symBinAddr: 0x100008C8C, symSize: 0x38 }
  - { offsetInCU: 0x2F698, offset: 0x2F698, size: 0x8, addend: 0x0, symName: __ZNSt3__16__treeINS_12__value_typeINS_12basic_stringIcNS_11char_traitsIcEENS_9allocatorIcEEEEiEENS_19__map_value_compareIS7_S8_NS_4lessIS7_EELb1EEENS5_IS8_EEE7destroyEPNS_11__tree_nodeIS8_PvEE, symObjAddr: 0x6960, symBinAddr: 0x100008CC4, symSize: 0xA8 }
  - { offsetInCU: 0x2F6E4, offset: 0x2F6E4, size: 0x8, addend: 0x0, symName: __ZNSt3__13mapINS_12basic_stringIcNS_11char_traitsIcEENS_9allocatorIcEEEEiNS_4lessIS6_EENS4_INS_4pairIKS6_iEEEEED2B8ue170006Ev, symObjAddr: 0x6A08, symBinAddr: 0x100008D6C, symSize: 0x2C }
  - { offsetInCU: 0x2F70E, offset: 0x2F70E, size: 0x8, addend: 0x0, symName: __ZNSt3__14pairIKNS_12basic_stringIcNS_11char_traitsIcEENS_9allocatorIcEEEEdEC2B8ue170006IRA6_KciLPv0EEEOT_OT0_, symObjAddr: 0x6A34, symBinAddr: 0x100008D98, symSize: 0x50 }
  - { offsetInCU: 0x2F76C, offset: 0x2F76C, size: 0x8, addend: 0x0, symName: __ZNSt3__14pairIKNS_12basic_stringIcNS_11char_traitsIcEENS_9allocatorIcEEEEdEC2B8ue170006IRA4_KciLPv0EEEOT_OT0_, symObjAddr: 0x6A84, symBinAddr: 0x100008DE8, symSize: 0x50 }
  - { offsetInCU: 0x2F7CA, offset: 0x2F7CA, size: 0x8, addend: 0x0, symName: __ZNSt3__14pairIKNS_12basic_stringIcNS_11char_traitsIcEENS_9allocatorIcEEEEdEC2B8ue170006IRA7_KciLPv0EEEOT_OT0_, symObjAddr: 0x6AD4, symBinAddr: 0x100008E38, symSize: 0x50 }
  - { offsetInCU: 0x2F828, offset: 0x2F828, size: 0x8, addend: 0x0, symName: __ZNSt3__14pairIKNS_12basic_stringIcNS_11char_traitsIcEENS_9allocatorIcEEEEdEC2B8ue170006IRA5_KciLPv0EEEOT_OT0_, symObjAddr: 0x6B24, symBinAddr: 0x100008E88, symSize: 0x50 }
  - { offsetInCU: 0x2F886, offset: 0x2F886, size: 0x8, addend: 0x0, symName: __ZNSt3__14pairIKNS_12basic_stringIcNS_11char_traitsIcEENS_9allocatorIcEEEEdEC2B8ue170006IRA5_KcdLPv0EEEOT_OT0_, symObjAddr: 0x6B74, symBinAddr: 0x100008ED8, symSize: 0x44 }
  - { offsetInCU: 0x2F8E4, offset: 0x2F8E4, size: 0x8, addend: 0x0, symName: __ZNSt3__14pairIKNS_12basic_stringIcNS_11char_traitsIcEENS_9allocatorIcEEEEdEC2B8ue170006IRA7_KcdLPv0EEEOT_OT0_, symObjAddr: 0x6BB8, symBinAddr: 0x100008F1C, symSize: 0x44 }
  - { offsetInCU: 0x2F942, offset: 0x2F942, size: 0x8, addend: 0x0, symName: __ZNSt3__13mapINS_12basic_stringIcNS_11char_traitsIcEENS_9allocatorIcEEEEdNS_4lessIS6_EENS4_INS_4pairIKS6_dEEEEEC2B8ue170006ESt16initializer_listISB_ERKS8_, symObjAddr: 0x6BFC, symBinAddr: 0x100008F60, symSize: 0xA4 }
  - { offsetInCU: 0x2F98A, offset: 0x2F98A, size: 0x8, addend: 0x0, symName: __ZNSt3__119__map_value_compareINS_12basic_stringIcNS_11char_traitsIcEENS_9allocatorIcEEEENS_12__value_typeIS6_dEENS_4lessIS6_EELb1EEC1B8ue170006ESA_, symObjAddr: 0x6CA0, symBinAddr: 0x100009004, symSize: 0x2C }
  - { offsetInCU: 0x2F9C3, offset: 0x2F9C3, size: 0x8, addend: 0x0, symName: __ZNSt3__16__treeINS_12__value_typeINS_12basic_stringIcNS_11char_traitsIcEENS_9allocatorIcEEEEdEENS_19__map_value_compareIS7_S8_NS_4lessIS7_EELb1EEENS5_IS8_EEEC1ERKSC_, symObjAddr: 0x6CCC, symBinAddr: 0x100009030, symSize: 0x34 }
  - { offsetInCU: 0x2F9FE, offset: 0x2F9FE, size: 0x8, addend: 0x0, symName: __ZNSt3__13mapINS_12basic_stringIcNS_11char_traitsIcEENS_9allocatorIcEEEEdNS_4lessIS6_EENS4_INS_4pairIKS6_dEEEEE6insertB8ue170006IPKSB_EEvT_SH_, symObjAddr: 0x6D00, symBinAddr: 0x100009064, symSize: 0x8C }
  - { offsetInCU: 0x2FA68, offset: 0x2FA68, size: 0x8, addend: 0x0, symName: __ZNKSt16initializer_listINSt3__14pairIKNS0_12basic_stringIcNS0_11char_traitsIcEENS0_9allocatorIcEEEEdEEE5beginB8ue170006Ev, symObjAddr: 0x6D8C, symBinAddr: 0x1000090F0, symSize: 0x18 }
  - { offsetInCU: 0x2FA8E, offset: 0x2FA8E, size: 0x8, addend: 0x0, symName: __ZNKSt16initializer_listINSt3__14pairIKNS0_12basic_stringIcNS0_11char_traitsIcEENS0_9allocatorIcEEEEdEEE3endB8ue170006Ev, symObjAddr: 0x6DA4, symBinAddr: 0x100009108, symSize: 0x20 }
  - { offsetInCU: 0x2FAB4, offset: 0x2FAB4, size: 0x8, addend: 0x0, symName: __ZNSt3__16__treeINS_12__value_typeINS_12basic_stringIcNS_11char_traitsIcEENS_9allocatorIcEEEEdEENS_19__map_value_compareIS7_S8_NS_4lessIS7_EELb1EEENS5_IS8_EEED1Ev, symObjAddr: 0x6DC4, symBinAddr: 0x100009128, symSize: 0x2C }
  - { offsetInCU: 0x2FAE0, offset: 0x2FAE0, size: 0x8, addend: 0x0, symName: __ZNSt3__119__map_value_compareINS_12basic_stringIcNS_11char_traitsIcEENS_9allocatorIcEEEENS_12__value_typeIS6_dEENS_4lessIS6_EELb1EEC2B8ue170006ESA_, symObjAddr: 0x6DF0, symBinAddr: 0x100009154, symSize: 0x14 }
  - { offsetInCU: 0x2FB19, offset: 0x2FB19, size: 0x8, addend: 0x0, symName: __ZNSt3__16__treeINS_12__value_typeINS_12basic_stringIcNS_11char_traitsIcEENS_9allocatorIcEEEEdEENS_19__map_value_compareIS7_S8_NS_4lessIS7_EELb1EEENS5_IS8_EEEC2ERKSC_, symObjAddr: 0x6E04, symBinAddr: 0x100009168, symSize: 0x7C }
  - { offsetInCU: 0x2FB54, offset: 0x2FB54, size: 0x8, addend: 0x0, symName: __ZNSt3__117__compressed_pairINS_15__tree_end_nodeIPNS_16__tree_node_baseIPvEEEENS_9allocatorINS_11__tree_nodeINS_12__value_typeINS_12basic_stringIcNS_11char_traitsIcEENS7_IcEEEEdEES3_EEEEEC1B8ue170006ILb1EvEEv, symObjAddr: 0x6E80, symBinAddr: 0x1000091E4, symSize: 0x2C }
  - { offsetInCU: 0x2FB89, offset: 0x2FB89, size: 0x8, addend: 0x0, symName: __ZNSt3__117__compressed_pairImNS_19__map_value_compareINS_12basic_stringIcNS_11char_traitsIcEENS_9allocatorIcEEEENS_12__value_typeIS7_dEENS_4lessIS7_EELb1EEEEC1B8ue170006IiRKSC_EEOT_OT0_, symObjAddr: 0x6EAC, symBinAddr: 0x100009210, symSize: 0x3C }
  - { offsetInCU: 0x2FBE1, offset: 0x2FBE1, size: 0x8, addend: 0x0, symName: __ZNSt3__16__treeINS_12__value_typeINS_12basic_stringIcNS_11char_traitsIcEENS_9allocatorIcEEEEdEENS_19__map_value_compareIS7_S8_NS_4lessIS7_EELb1EEENS5_IS8_EEE10__end_nodeB8ue170006Ev, symObjAddr: 0x6EE8, symBinAddr: 0x10000924C, symSize: 0x2C }
  - { offsetInCU: 0x2FC07, offset: 0x2FC07, size: 0x8, addend: 0x0, symName: __ZNSt3__16__treeINS_12__value_typeINS_12basic_stringIcNS_11char_traitsIcEENS_9allocatorIcEEEEdEENS_19__map_value_compareIS7_S8_NS_4lessIS7_EELb1EEENS5_IS8_EEE12__begin_nodeB8ue170006Ev, symObjAddr: 0x6F14, symBinAddr: 0x100009278, symSize: 0x14 }
  - { offsetInCU: 0x2FC2D, offset: 0x2FC2D, size: 0x8, addend: 0x0, symName: __ZNSt3__117__compressed_pairINS_15__tree_end_nodeIPNS_16__tree_node_baseIPvEEEENS_9allocatorINS_11__tree_nodeINS_12__value_typeINS_12basic_stringIcNS_11char_traitsIcEENS7_IcEEEEdEES3_EEEEEC2B8ue170006ILb1EvEEv, symObjAddr: 0x6F28, symBinAddr: 0x10000928C, symSize: 0x34 }
  - { offsetInCU: 0x2FC62, offset: 0x2FC62, size: 0x8, addend: 0x0, symName: __ZNSt3__122__compressed_pair_elemINS_9allocatorINS_11__tree_nodeINS_12__value_typeINS_12basic_stringIcNS_11char_traitsIcEENS1_IcEEEEdEEPvEEEELi1ELb1EEC2B8ue170006ENS_16__value_init_tagE, symObjAddr: 0x6F5C, symBinAddr: 0x1000092C0, symSize: 0x2C }
  - { offsetInCU: 0x2FC96, offset: 0x2FC96, size: 0x8, addend: 0x0, symName: __ZNSt3__19allocatorINS_11__tree_nodeINS_12__value_typeINS_12basic_stringIcNS_11char_traitsIcEENS0_IcEEEEdEEPvEEEC2B8ue170006Ev, symObjAddr: 0x6F88, symBinAddr: 0x1000092EC, symSize: 0x2C }
  - { offsetInCU: 0x2FCC0, offset: 0x2FCC0, size: 0x8, addend: 0x0, symName: __ZNSt3__116__non_trivial_ifILb1ENS_9allocatorINS_11__tree_nodeINS_12__value_typeINS_12basic_stringIcNS_11char_traitsIcEENS1_IcEEEEdEEPvEEEEEC2B8ue170006Ev, symObjAddr: 0x6FB4, symBinAddr: 0x100009318, symSize: 0x14 }
  - { offsetInCU: 0x2FCEA, offset: 0x2FCEA, size: 0x8, addend: 0x0, symName: __ZNSt3__117__compressed_pairImNS_19__map_value_compareINS_12basic_stringIcNS_11char_traitsIcEENS_9allocatorIcEEEENS_12__value_typeIS7_dEENS_4lessIS7_EELb1EEEEC2B8ue170006IiRKSC_EEOT_OT0_, symObjAddr: 0x6FC8, symBinAddr: 0x10000932C, symSize: 0x44 }
  - { offsetInCU: 0x2FD42, offset: 0x2FD42, size: 0x8, addend: 0x0, symName: __ZNSt3__122__compressed_pair_elemINS_19__map_value_compareINS_12basic_stringIcNS_11char_traitsIcEENS_9allocatorIcEEEENS_12__value_typeIS7_dEENS_4lessIS7_EELb1EEELi1ELb1EEC2B8ue170006IRKSC_vEEOT_, symObjAddr: 0x700C, symBinAddr: 0x100009370, symSize: 0x18 }
  - { offsetInCU: 0x2FD84, offset: 0x2FD84, size: 0x8, addend: 0x0, symName: __ZNSt3__117__compressed_pairINS_15__tree_end_nodeIPNS_16__tree_node_baseIPvEEEENS_9allocatorINS_11__tree_nodeINS_12__value_typeINS_12basic_stringIcNS_11char_traitsIcEENS7_IcEEEEdEES3_EEEEE5firstB8ue170006Ev, symObjAddr: 0x7024, symBinAddr: 0x100009388, symSize: 0x24 }
  - { offsetInCU: 0x2FDAA, offset: 0x2FDAA, size: 0x8, addend: 0x0, symName: __ZNKSt3__13mapINS_12basic_stringIcNS_11char_traitsIcEENS_9allocatorIcEEEEdNS_4lessIS6_EENS4_INS_4pairIKS6_dEEEEE4cendB8ue170006Ev, symObjAddr: 0x7048, symBinAddr: 0x1000093AC, symSize: 0x2C }
  - { offsetInCU: 0x2FDD0, offset: 0x2FDD0, size: 0x8, addend: 0x0, symName: __ZNSt3__13mapINS_12basic_stringIcNS_11char_traitsIcEENS_9allocatorIcEEEEdNS_4lessIS6_EENS4_INS_4pairIKS6_dEEEEE6insertB8ue170006ENS_20__map_const_iteratorINS_21__tree_const_iteratorINS_12__value_typeIS6_dEEPNS_11__tree_nodeISH_PvEElEEEERKSB_, symObjAddr: 0x7074, symBinAddr: 0x1000093D8, symSize: 0x50 }
  - { offsetInCU: 0x2FE14, offset: 0x2FE14, size: 0x8, addend: 0x0, symName: __ZNSt3__120__map_const_iteratorINS_21__tree_const_iteratorINS_12__value_typeINS_12basic_stringIcNS_11char_traitsIcEENS_9allocatorIcEEEEdEEPNS_11__tree_nodeIS9_PvEElEEEC1B8ue170006ESE_, symObjAddr: 0x70C4, symBinAddr: 0x100009428, symSize: 0x34 }
  - { offsetInCU: 0x2FE4D, offset: 0x2FE4D, size: 0x8, addend: 0x0, symName: __ZNKSt3__13mapINS_12basic_stringIcNS_11char_traitsIcEENS_9allocatorIcEEEEdNS_4lessIS6_EENS4_INS_4pairIKS6_dEEEEE3endB8ue170006Ev, symObjAddr: 0x70F8, symBinAddr: 0x10000945C, symSize: 0x38 }
  - { offsetInCU: 0x2FE73, offset: 0x2FE73, size: 0x8, addend: 0x0, symName: __ZNKSt3__16__treeINS_12__value_typeINS_12basic_stringIcNS_11char_traitsIcEENS_9allocatorIcEEEEdEENS_19__map_value_compareIS7_S8_NS_4lessIS7_EELb1EEENS5_IS8_EEE3endB8ue170006Ev, symObjAddr: 0x7130, symBinAddr: 0x100009494, symSize: 0x34 }
  - { offsetInCU: 0x2FE99, offset: 0x2FE99, size: 0x8, addend: 0x0, symName: __ZNKSt3__16__treeINS_12__value_typeINS_12basic_stringIcNS_11char_traitsIcEENS_9allocatorIcEEEEdEENS_19__map_value_compareIS7_S8_NS_4lessIS7_EELb1EEENS5_IS8_EEE10__end_nodeB8ue170006Ev, symObjAddr: 0x7164, symBinAddr: 0x1000094C8, symSize: 0x2C }
  - { offsetInCU: 0x2FEBF, offset: 0x2FEBF, size: 0x8, addend: 0x0, symName: __ZNSt3__121__tree_const_iteratorINS_12__value_typeINS_12basic_stringIcNS_11char_traitsIcEENS_9allocatorIcEEEEdEEPNS_11__tree_nodeIS8_PvEElEC1B8ue170006EPNS_15__tree_end_nodeIPNS_16__tree_node_baseISA_EEEE, symObjAddr: 0x7190, symBinAddr: 0x1000094F4, symSize: 0x34 }
  - { offsetInCU: 0x2FEF8, offset: 0x2FEF8, size: 0x8, addend: 0x0, symName: __ZNKSt3__117__compressed_pairINS_15__tree_end_nodeIPNS_16__tree_node_baseIPvEEEENS_9allocatorINS_11__tree_nodeINS_12__value_typeINS_12basic_stringIcNS_11char_traitsIcEENS7_IcEEEEdEES3_EEEEE5firstB8ue170006Ev, symObjAddr: 0x71C4, symBinAddr: 0x100009528, symSize: 0x24 }
  - { offsetInCU: 0x2FF1E, offset: 0x2FF1E, size: 0x8, addend: 0x0, symName: __ZNSt3__121__tree_const_iteratorINS_12__value_typeINS_12basic_stringIcNS_11char_traitsIcEENS_9allocatorIcEEEEdEEPNS_11__tree_nodeIS8_PvEElEC2B8ue170006EPNS_15__tree_end_nodeIPNS_16__tree_node_baseISA_EEEE, symObjAddr: 0x71E8, symBinAddr: 0x10000954C, symSize: 0x20 }
  - { offsetInCU: 0x2FF57, offset: 0x2FF57, size: 0x8, addend: 0x0, symName: __ZNSt3__16__treeINS_12__value_typeINS_12basic_stringIcNS_11char_traitsIcEENS_9allocatorIcEEEEdEENS_19__map_value_compareIS7_S8_NS_4lessIS7_EELb1EEENS5_IS8_EEE15__insert_uniqueB8ue170006ENS_21__tree_const_iteratorIS8_PNS_11__tree_nodeIS8_PvEElEERKNS_4pairIKS7_dEE, symObjAddr: 0x7208, symBinAddr: 0x10000956C, symSize: 0x64 }
  - { offsetInCU: 0x2FF9B, offset: 0x2FF9B, size: 0x8, addend: 0x0, symName: __ZNSt3__114__map_iteratorINS_15__tree_iteratorINS_12__value_typeINS_12basic_stringIcNS_11char_traitsIcEENS_9allocatorIcEEEEdEEPNS_11__tree_nodeIS9_PvEElEEEC1B8ue170006ESE_, symObjAddr: 0x726C, symBinAddr: 0x1000095D0, symSize: 0x34 }
  - { offsetInCU: 0x2FFD4, offset: 0x2FFD4, size: 0x8, addend: 0x0, symName: __ZNSt3__16__treeINS_12__value_typeINS_12basic_stringIcNS_11char_traitsIcEENS_9allocatorIcEEEEdEENS_19__map_value_compareIS7_S8_NS_4lessIS7_EELb1EEENS5_IS8_EEE30__emplace_hint_unique_key_argsIS7_JRKNS_4pairIKS7_dEEEEENSG_INS_15__tree_iteratorIS8_PNS_11__tree_nodeIS8_PvEElEEbEENS_21__tree_const_iteratorIS8_SP_lEERKT_DpOT0_, symObjAddr: 0x72A0, symBinAddr: 0x100009604, symSize: 0x104 }
  - { offsetInCU: 0x300A0, offset: 0x300A0, size: 0x8, addend: 0x0, symName: __ZNSt3__122__tree_key_value_typesINS_12__value_typeINS_12basic_stringIcNS_11char_traitsIcEENS_9allocatorIcEEEEdEEE9__get_keyB8ue170006IKNS_4pairIKS7_dEEEENS_9enable_ifIXsr17__is_same_uncvrefIT_SD_EE5valueERSC_E4typeERSG_, symObjAddr: 0x73A4, symBinAddr: 0x100009708, symSize: 0x14 }
  - { offsetInCU: 0x300CD, offset: 0x300CD, size: 0x8, addend: 0x0, symName: __ZNSt3__16__treeINS_12__value_typeINS_12basic_stringIcNS_11char_traitsIcEENS_9allocatorIcEEEEdEENS_19__map_value_compareIS7_S8_NS_4lessIS7_EELb1EEENS5_IS8_EEE12__find_equalIS7_EERPNS_16__tree_node_baseIPvEENS_21__tree_const_iteratorIS8_PNS_11__tree_nodeIS8_SH_EElEERPNS_15__tree_end_nodeISJ_EESK_RKT_, symObjAddr: 0x73B8, symBinAddr: 0x10000971C, symSize: 0x304 }
  - { offsetInCU: 0x30176, offset: 0x30176, size: 0x8, addend: 0x0, symName: __ZNSt3__16__treeINS_12__value_typeINS_12basic_stringIcNS_11char_traitsIcEENS_9allocatorIcEEEEdEENS_19__map_value_compareIS7_S8_NS_4lessIS7_EELb1EEENS5_IS8_EEE16__construct_nodeIJRKNS_4pairIKS7_dEEEEENS_10unique_ptrINS_11__tree_nodeIS8_PvEENS_22__tree_node_destructorINS5_ISO_EEEEEEDpOT_, symObjAddr: 0x76BC, symBinAddr: 0x100009A20, symSize: 0x110 }
  - { offsetInCU: 0x301D7, offset: 0x301D7, size: 0x8, addend: 0x0, symName: __ZNSt3__16__treeINS_12__value_typeINS_12basic_stringIcNS_11char_traitsIcEENS_9allocatorIcEEEEdEENS_19__map_value_compareIS7_S8_NS_4lessIS7_EELb1EEENS5_IS8_EEE16__insert_node_atEPNS_15__tree_end_nodeIPNS_16__tree_node_baseIPvEEEERSJ_SJ_, symObjAddr: 0x77CC, symBinAddr: 0x100009B30, symSize: 0xCC }
  - { offsetInCU: 0x3022C, offset: 0x3022C, size: 0x8, addend: 0x0, symName: __ZNKSt3__110unique_ptrINS_11__tree_nodeINS_12__value_typeINS_12basic_stringIcNS_11char_traitsIcEENS_9allocatorIcEEEEdEEPvEENS_22__tree_node_destructorINS6_ISB_EEEEE3getB8ue170006Ev, symObjAddr: 0x7898, symBinAddr: 0x100009BFC, symSize: 0x28 }
  - { offsetInCU: 0x30252, offset: 0x30252, size: 0x8, addend: 0x0, symName: __ZNSt3__110unique_ptrINS_11__tree_nodeINS_12__value_typeINS_12basic_stringIcNS_11char_traitsIcEENS_9allocatorIcEEEEdEEPvEENS_22__tree_node_destructorINS6_ISB_EEEEE7releaseB8ue170006Ev, symObjAddr: 0x78C0, symBinAddr: 0x100009C24, symSize: 0x44 }
  - { offsetInCU: 0x30287, offset: 0x30287, size: 0x8, addend: 0x0, symName: __ZNSt3__110unique_ptrINS_11__tree_nodeINS_12__value_typeINS_12basic_stringIcNS_11char_traitsIcEENS_9allocatorIcEEEEdEEPvEENS_22__tree_node_destructorINS6_ISB_EEEEED1B8ue170006Ev, symObjAddr: 0x7904, symBinAddr: 0x100009C68, symSize: 0x2C }
  - { offsetInCU: 0x302B1, offset: 0x302B1, size: 0x8, addend: 0x0, symName: __ZNSt3__115__tree_iteratorINS_12__value_typeINS_12basic_stringIcNS_11char_traitsIcEENS_9allocatorIcEEEEdEEPNS_11__tree_nodeIS8_PvEElEC1B8ue170006ESC_, symObjAddr: 0x7930, symBinAddr: 0x100009C94, symSize: 0x34 }
  - { offsetInCU: 0x302EF, offset: 0x302EF, size: 0x8, addend: 0x0, symName: __ZNSt3__14pairINS_15__tree_iteratorINS_12__value_typeINS_12basic_stringIcNS_11char_traitsIcEENS_9allocatorIcEEEEdEEPNS_11__tree_nodeIS9_PvEElEEbEC1B8ue170006ISE_RbLSB_0EEEOT_OT0_, symObjAddr: 0x7964, symBinAddr: 0x100009CC8, symSize: 0x3C }
  - { offsetInCU: 0x3034D, offset: 0x3034D, size: 0x8, addend: 0x0, symName: __ZNSt3__16__treeINS_12__value_typeINS_12basic_stringIcNS_11char_traitsIcEENS_9allocatorIcEEEEdEENS_19__map_value_compareIS7_S8_NS_4lessIS7_EELb1EEENS5_IS8_EEE3endB8ue170006Ev, symObjAddr: 0x79D0, symBinAddr: 0x100009D34, symSize: 0x34 }
  - { offsetInCU: 0x30373, offset: 0x30373, size: 0x8, addend: 0x0, symName: __ZNSt3__121__tree_const_iteratorINS_12__value_typeINS_12basic_stringIcNS_11char_traitsIcEENS_9allocatorIcEEEEdEEPNS_11__tree_nodeIS8_PvEElEC1B8ue170006ENS_15__tree_iteratorIS8_SC_lEE, symObjAddr: 0x7A04, symBinAddr: 0x100009D68, symSize: 0x34 }
  - { offsetInCU: 0x303AC, offset: 0x303AC, size: 0x8, addend: 0x0, symName: __ZNSt3__16__treeINS_12__value_typeINS_12basic_stringIcNS_11char_traitsIcEENS_9allocatorIcEEEEdEENS_19__map_value_compareIS7_S8_NS_4lessIS7_EELb1EEENS5_IS8_EEE10value_compB8ue170006Ev, symObjAddr: 0x7A38, symBinAddr: 0x100009D9C, symSize: 0x28 }
  - { offsetInCU: 0x303D2, offset: 0x303D2, size: 0x8, addend: 0x0, symName: __ZNKSt3__119__map_value_compareINS_12basic_stringIcNS_11char_traitsIcEENS_9allocatorIcEEEENS_12__value_typeIS6_dEENS_4lessIS6_EELb1EEclB8ue170006ERKS6_RKS8_, symObjAddr: 0x7A60, symBinAddr: 0x100009DC4, symSize: 0x50 }
  - { offsetInCU: 0x30416, offset: 0x30416, size: 0x8, addend: 0x0, symName: __ZNKSt3__121__tree_const_iteratorINS_12__value_typeINS_12basic_stringIcNS_11char_traitsIcEENS_9allocatorIcEEEEdEEPNS_11__tree_nodeIS8_PvEElEdeB8ue170006Ev, symObjAddr: 0x7AB0, symBinAddr: 0x100009E14, symSize: 0x28 }
  - { offsetInCU: 0x3043C, offset: 0x3043C, size: 0x8, addend: 0x0, symName: __ZNSt3__16__treeINS_12__value_typeINS_12basic_stringIcNS_11char_traitsIcEENS_9allocatorIcEEEEdEENS_19__map_value_compareIS7_S8_NS_4lessIS7_EELb1EEENS5_IS8_EEE5beginB8ue170006Ev, symObjAddr: 0x7AD8, symBinAddr: 0x100009E3C, symSize: 0x34 }
  - { offsetInCU: 0x30462, offset: 0x30462, size: 0x8, addend: 0x0, symName: __ZNKSt3__119__map_value_compareINS_12basic_stringIcNS_11char_traitsIcEENS_9allocatorIcEEEENS_12__value_typeIS6_dEENS_4lessIS6_EELb1EEclB8ue170006ERKS8_RKS6_, symObjAddr: 0x7B0C, symBinAddr: 0x100009E70, symSize: 0x48 }
  - { offsetInCU: 0x304A6, offset: 0x304A6, size: 0x8, addend: 0x0, symName: __ZNSt3__121__tree_const_iteratorINS_12__value_typeINS_12basic_stringIcNS_11char_traitsIcEENS_9allocatorIcEEEEdEEPNS_11__tree_nodeIS8_PvEElEmmB8ue170006Ev, symObjAddr: 0x7B54, symBinAddr: 0x100009EB8, symSize: 0x38 }
  - { offsetInCU: 0x304CC, offset: 0x304CC, size: 0x8, addend: 0x0, symName: __ZNSt3__16__treeINS_12__value_typeINS_12basic_stringIcNS_11char_traitsIcEENS_9allocatorIcEEEEdEENS_19__map_value_compareIS7_S8_NS_4lessIS7_EELb1EEENS5_IS8_EEE12__find_equalIS7_EERPNS_16__tree_node_baseIPvEERPNS_15__tree_end_nodeISJ_EERKT_, symObjAddr: 0x7B8C, symBinAddr: 0x100009EF0, symSize: 0x184 }
  - { offsetInCU: 0x30539, offset: 0x30539, size: 0x8, addend: 0x0, symName: __ZNKSt3__121__tree_const_iteratorINS_12__value_typeINS_12basic_stringIcNS_11char_traitsIcEENS_9allocatorIcEEEEdEEPNS_11__tree_nodeIS8_PvEElE8__get_npB8ue170006Ev, symObjAddr: 0x7D4C, symBinAddr: 0x10000A0B0, symSize: 0x18 }
  - { offsetInCU: 0x3055F, offset: 0x3055F, size: 0x8, addend: 0x0, symName: __ZNSt3__115__tree_iteratorINS_12__value_typeINS_12basic_stringIcNS_11char_traitsIcEENS_9allocatorIcEEEEdEEPNS_11__tree_nodeIS8_PvEElEC1B8ue170006EPNS_15__tree_end_nodeIPNS_16__tree_node_baseISA_EEEE, symObjAddr: 0x7D64, symBinAddr: 0x10000A0C8, symSize: 0x34 }
  - { offsetInCU: 0x30598, offset: 0x30598, size: 0x8, addend: 0x0, symName: __ZNSt3__115__tree_iteratorINS_12__value_typeINS_12basic_stringIcNS_11char_traitsIcEENS_9allocatorIcEEEEdEEPNS_11__tree_nodeIS8_PvEElEC2B8ue170006EPNS_15__tree_end_nodeIPNS_16__tree_node_baseISA_EEEE, symObjAddr: 0x7D98, symBinAddr: 0x10000A0FC, symSize: 0x20 }
  - { offsetInCU: 0x305D1, offset: 0x305D1, size: 0x8, addend: 0x0, symName: __ZNSt3__121__tree_const_iteratorINS_12__value_typeINS_12basic_stringIcNS_11char_traitsIcEENS_9allocatorIcEEEEdEEPNS_11__tree_nodeIS8_PvEElEC2B8ue170006ENS_15__tree_iteratorIS8_SC_lEE, symObjAddr: 0x7DB8, symBinAddr: 0x10000A11C, symSize: 0x20 }
  - { offsetInCU: 0x3060A, offset: 0x3060A, size: 0x8, addend: 0x0, symName: __ZNSt3__117__compressed_pairImNS_19__map_value_compareINS_12basic_stringIcNS_11char_traitsIcEENS_9allocatorIcEEEENS_12__value_typeIS7_dEENS_4lessIS7_EELb1EEEE6secondB8ue170006Ev, symObjAddr: 0x7DD8, symBinAddr: 0x10000A13C, symSize: 0x24 }
  - { offsetInCU: 0x30630, offset: 0x30630, size: 0x8, addend: 0x0, symName: __ZNSt3__122__compressed_pair_elemINS_19__map_value_compareINS_12basic_stringIcNS_11char_traitsIcEENS_9allocatorIcEEEENS_12__value_typeIS7_dEENS_4lessIS7_EELb1EEELi1ELb1EE5__getB8ue170006Ev, symObjAddr: 0x7DFC, symBinAddr: 0x10000A160, symSize: 0x14 }
  - { offsetInCU: 0x30656, offset: 0x30656, size: 0x8, addend: 0x0, symName: __ZNKSt3__112__value_typeINS_12basic_stringIcNS_11char_traitsIcEENS_9allocatorIcEEEEdE11__get_valueB8ue170006Ev, symObjAddr: 0x7E10, symBinAddr: 0x10000A174, symSize: 0x14 }
  - { offsetInCU: 0x3067C, offset: 0x3067C, size: 0x8, addend: 0x0, symName: __ZNKSt3__16__treeINS_12__value_typeINS_12basic_stringIcNS_11char_traitsIcEENS_9allocatorIcEEEEdEENS_19__map_value_compareIS7_S8_NS_4lessIS7_EELb1EEENS5_IS8_EEE6__rootB8ue170006Ev, symObjAddr: 0x7E24, symBinAddr: 0x10000A188, symSize: 0x28 }
  - { offsetInCU: 0x306A2, offset: 0x306A2, size: 0x8, addend: 0x0, symName: __ZNKSt3__16__treeINS_12__value_typeINS_12basic_stringIcNS_11char_traitsIcEENS_9allocatorIcEEEEdEENS_19__map_value_compareIS7_S8_NS_4lessIS7_EELb1EEENS5_IS8_EEE10__root_ptrB8ue170006Ev, symObjAddr: 0x7E4C, symBinAddr: 0x10000A1B0, symSize: 0x24 }
  - { offsetInCU: 0x306C8, offset: 0x306C8, size: 0x8, addend: 0x0, symName: __ZNSt3__121__tree_const_iteratorINS_12__value_typeINS_12basic_stringIcNS_11char_traitsIcEENS_9allocatorIcEEEEdEEPNS_11__tree_nodeIS8_PvEElEppB8ue170006Ev, symObjAddr: 0x7F4C, symBinAddr: 0x10000A2B0, symSize: 0x38 }
  - { offsetInCU: 0x306EE, offset: 0x306EE, size: 0x8, addend: 0x0, symName: __ZNSt3__16__treeINS_12__value_typeINS_12basic_stringIcNS_11char_traitsIcEENS_9allocatorIcEEEEdEENS_19__map_value_compareIS7_S8_NS_4lessIS7_EELb1EEENS5_IS8_EEE12__node_allocB8ue170006Ev, symObjAddr: 0x7F84, symBinAddr: 0x10000A2E8, symSize: 0x28 }
  - { offsetInCU: 0x30714, offset: 0x30714, size: 0x8, addend: 0x0, symName: __ZNSt3__116allocator_traitsINS_9allocatorINS_11__tree_nodeINS_12__value_typeINS_12basic_stringIcNS_11char_traitsIcEENS1_IcEEEEdEEPvEEEEE8allocateB8ue170006ERSC_m, symObjAddr: 0x7FAC, symBinAddr: 0x10000A310, symSize: 0x2C }
  - { offsetInCU: 0x30747, offset: 0x30747, size: 0x8, addend: 0x0, symName: __ZNSt3__122__tree_node_destructorINS_9allocatorINS_11__tree_nodeINS_12__value_typeINS_12basic_stringIcNS_11char_traitsIcEENS1_IcEEEEdEEPvEEEEEC1B8ue170006ERSC_b, symObjAddr: 0x7FD8, symBinAddr: 0x10000A33C, symSize: 0x48 }
  - { offsetInCU: 0x30794, offset: 0x30794, size: 0x8, addend: 0x0, symName: __ZNSt3__110unique_ptrINS_11__tree_nodeINS_12__value_typeINS_12basic_stringIcNS_11char_traitsIcEENS_9allocatorIcEEEEdEEPvEENS_22__tree_node_destructorINS6_ISB_EEEEEC1B8ue170006ILb1EvEEPSB_NS_16__dependent_typeINS_27__unique_ptr_deleter_sfinaeISE_EEXT_EE20__good_rval_ref_typeE, symObjAddr: 0x8020, symBinAddr: 0x10000A384, symSize: 0x3C }
  - { offsetInCU: 0x307E5, offset: 0x307E5, size: 0x8, addend: 0x0, symName: __ZNSt3__116allocator_traitsINS_9allocatorINS_11__tree_nodeINS_12__value_typeINS_12basic_stringIcNS_11char_traitsIcEENS1_IcEEEEdEEPvEEEEE9constructB8ue170006INS_4pairIKS8_dEEJRKSH_EvEEvRSC_PT_DpOT0_, symObjAddr: 0x805C, symBinAddr: 0x10000A3C0, symSize: 0x34 }
  - { offsetInCU: 0x3083C, offset: 0x3083C, size: 0x8, addend: 0x0, symName: __ZNSt3__122__tree_key_value_typesINS_12__value_typeINS_12basic_stringIcNS_11char_traitsIcEENS_9allocatorIcEEEEdEEE9__get_ptrB8ue170006ERS8_, symObjAddr: 0x8090, symBinAddr: 0x10000A3F4, symSize: 0x24 }
  - { offsetInCU: 0x30860, offset: 0x30860, size: 0x8, addend: 0x0, symName: __ZNKSt3__110unique_ptrINS_11__tree_nodeINS_12__value_typeINS_12basic_stringIcNS_11char_traitsIcEENS_9allocatorIcEEEEdEEPvEENS_22__tree_node_destructorINS6_ISB_EEEEEptB8ue170006Ev, symObjAddr: 0x80B4, symBinAddr: 0x10000A418, symSize: 0x28 }
  - { offsetInCU: 0x30886, offset: 0x30886, size: 0x8, addend: 0x0, symName: __ZNSt3__110unique_ptrINS_11__tree_nodeINS_12__value_typeINS_12basic_stringIcNS_11char_traitsIcEENS_9allocatorIcEEEEdEEPvEENS_22__tree_node_destructorINS6_ISB_EEEEE11get_deleterB8ue170006Ev, symObjAddr: 0x80DC, symBinAddr: 0x10000A440, symSize: 0x24 }
  - { offsetInCU: 0x308AC, offset: 0x308AC, size: 0x8, addend: 0x0, symName: __ZNSt3__117__compressed_pairINS_15__tree_end_nodeIPNS_16__tree_node_baseIPvEEEENS_9allocatorINS_11__tree_nodeINS_12__value_typeINS_12basic_stringIcNS_11char_traitsIcEENS7_IcEEEEdEES3_EEEEE6secondB8ue170006Ev, symObjAddr: 0x8100, symBinAddr: 0x10000A464, symSize: 0x24 }
  - { offsetInCU: 0x308D2, offset: 0x308D2, size: 0x8, addend: 0x0, symName: __ZNSt3__122__compressed_pair_elemINS_9allocatorINS_11__tree_nodeINS_12__value_typeINS_12basic_stringIcNS_11char_traitsIcEENS1_IcEEEEdEEPvEEEELi1ELb1EE5__getB8ue170006Ev, symObjAddr: 0x8124, symBinAddr: 0x10000A488, symSize: 0x14 }
  - { offsetInCU: 0x308F8, offset: 0x308F8, size: 0x8, addend: 0x0, symName: __ZNSt3__19allocatorINS_11__tree_nodeINS_12__value_typeINS_12basic_stringIcNS_11char_traitsIcEENS0_IcEEEEdEEPvEEE8allocateB8ue170006Em, symObjAddr: 0x8138, symBinAddr: 0x10000A49C, symSize: 0x58 }
  - { offsetInCU: 0x30936, offset: 0x30936, size: 0x8, addend: 0x0, symName: __ZNSt3__116allocator_traitsINS_9allocatorINS_11__tree_nodeINS_12__value_typeINS_12basic_stringIcNS_11char_traitsIcEENS1_IcEEEEdEEPvEEEEE8max_sizeB8ue170006ISC_vEEmRKSC_, symObjAddr: 0x8190, symBinAddr: 0x10000A4F4, symSize: 0x24 }
  - { offsetInCU: 0x30964, offset: 0x30964, size: 0x8, addend: 0x0, symName: __ZNKSt3__19allocatorINS_11__tree_nodeINS_12__value_typeINS_12basic_stringIcNS_11char_traitsIcEENS0_IcEEEEdEEPvEEE8max_sizeB8ue170006Ev, symObjAddr: 0x81B4, symBinAddr: 0x10000A518, symSize: 0x14 }
  - { offsetInCU: 0x3098A, offset: 0x3098A, size: 0x8, addend: 0x0, symName: __ZNSt3__122__tree_node_destructorINS_9allocatorINS_11__tree_nodeINS_12__value_typeINS_12basic_stringIcNS_11char_traitsIcEENS1_IcEEEEdEEPvEEEEEC2B8ue170006ERSC_b, symObjAddr: 0x81C8, symBinAddr: 0x10000A52C, symSize: 0x38 }
  - { offsetInCU: 0x309D2, offset: 0x309D2, size: 0x8, addend: 0x0, symName: __ZNSt3__110unique_ptrINS_11__tree_nodeINS_12__value_typeINS_12basic_stringIcNS_11char_traitsIcEENS_9allocatorIcEEEEdEEPvEENS_22__tree_node_destructorINS6_ISB_EEEEEC2B8ue170006ILb1EvEEPSB_NS_16__dependent_typeINS_27__unique_ptr_deleter_sfinaeISE_EEXT_EE20__good_rval_ref_typeE, symObjAddr: 0x8200, symBinAddr: 0x10000A564, symSize: 0x48 }
  - { offsetInCU: 0x30A23, offset: 0x30A23, size: 0x8, addend: 0x0, symName: __ZNSt3__117__compressed_pairIPNS_11__tree_nodeINS_12__value_typeINS_12basic_stringIcNS_11char_traitsIcEENS_9allocatorIcEEEEdEEPvEENS_22__tree_node_destructorINS6_ISB_EEEEEC1B8ue170006IRSC_SF_EEOT_OT0_, symObjAddr: 0x8248, symBinAddr: 0x10000A5AC, symSize: 0x3C }
  - { offsetInCU: 0x30A7B, offset: 0x30A7B, size: 0x8, addend: 0x0, symName: __ZNSt3__117__compressed_pairIPNS_11__tree_nodeINS_12__value_typeINS_12basic_stringIcNS_11char_traitsIcEENS_9allocatorIcEEEEdEEPvEENS_22__tree_node_destructorINS6_ISB_EEEEEC2B8ue170006IRSC_SF_EEOT_OT0_, symObjAddr: 0x8284, symBinAddr: 0x10000A5E8, symSize: 0x48 }
  - { offsetInCU: 0x30AD3, offset: 0x30AD3, size: 0x8, addend: 0x0, symName: __ZNSt3__122__compressed_pair_elemIPNS_11__tree_nodeINS_12__value_typeINS_12basic_stringIcNS_11char_traitsIcEENS_9allocatorIcEEEEdEEPvEELi0ELb0EEC2B8ue170006IRSC_vEEOT_, symObjAddr: 0x82CC, symBinAddr: 0x10000A630, symSize: 0x24 }
  - { offsetInCU: 0x30B15, offset: 0x30B15, size: 0x8, addend: 0x0, symName: __ZNSt3__122__compressed_pair_elemINS_22__tree_node_destructorINS_9allocatorINS_11__tree_nodeINS_12__value_typeINS_12basic_stringIcNS_11char_traitsIcEENS2_IcEEEEdEEPvEEEEEELi1ELb0EEC2B8ue170006ISE_vEEOT_, symObjAddr: 0x82F0, symBinAddr: 0x10000A654, symSize: 0x24 }
  - { offsetInCU: 0x30B57, offset: 0x30B57, size: 0x8, addend: 0x0, symName: __ZNSt3__19allocatorINS_11__tree_nodeINS_12__value_typeINS_12basic_stringIcNS_11char_traitsIcEENS0_IcEEEEdEEPvEEE9constructB8ue170006INS_4pairIKS7_dEEJRKSF_EEEvPT_DpOT0_, symObjAddr: 0x8314, symBinAddr: 0x10000A678, symSize: 0x30 }
  - { offsetInCU: 0x30BAD, offset: 0x30BAD, size: 0x8, addend: 0x0, symName: __ZNSt3__14pairIKNS_12basic_stringIcNS_11char_traitsIcEENS_9allocatorIcEEEEdEC1B8ue170006ERKS8_, symObjAddr: 0x8344, symBinAddr: 0x10000A6A8, symSize: 0x34 }
  - { offsetInCU: 0x30BE1, offset: 0x30BE1, size: 0x8, addend: 0x0, symName: __ZNSt3__14pairIKNS_12basic_stringIcNS_11char_traitsIcEENS_9allocatorIcEEEEdEC2B8ue170006ERKS8_, symObjAddr: 0x8378, symBinAddr: 0x10000A6DC, symSize: 0x40 }
  - { offsetInCU: 0x30C15, offset: 0x30C15, size: 0x8, addend: 0x0, symName: __ZNSt3__112__value_typeINS_12basic_stringIcNS_11char_traitsIcEENS_9allocatorIcEEEEdE11__get_valueB8ue170006Ev, symObjAddr: 0x83B8, symBinAddr: 0x10000A71C, symSize: 0x14 }
  - { offsetInCU: 0x30C3B, offset: 0x30C3B, size: 0x8, addend: 0x0, symName: __ZNKSt3__117__compressed_pairIPNS_11__tree_nodeINS_12__value_typeINS_12basic_stringIcNS_11char_traitsIcEENS_9allocatorIcEEEEdEEPvEENS_22__tree_node_destructorINS6_ISB_EEEEE5firstB8ue170006Ev, symObjAddr: 0x83CC, symBinAddr: 0x10000A730, symSize: 0x24 }
  - { offsetInCU: 0x30C61, offset: 0x30C61, size: 0x8, addend: 0x0, symName: __ZNKSt3__122__compressed_pair_elemIPNS_11__tree_nodeINS_12__value_typeINS_12basic_stringIcNS_11char_traitsIcEENS_9allocatorIcEEEEdEEPvEELi0ELb0EE5__getB8ue170006Ev, symObjAddr: 0x83F0, symBinAddr: 0x10000A754, symSize: 0x14 }
  - { offsetInCU: 0x30C87, offset: 0x30C87, size: 0x8, addend: 0x0, symName: __ZNSt3__117__compressed_pairIPNS_11__tree_nodeINS_12__value_typeINS_12basic_stringIcNS_11char_traitsIcEENS_9allocatorIcEEEEdEEPvEENS_22__tree_node_destructorINS6_ISB_EEEEE6secondB8ue170006Ev, symObjAddr: 0x8404, symBinAddr: 0x10000A768, symSize: 0x28 }
  - { offsetInCU: 0x30CAD, offset: 0x30CAD, size: 0x8, addend: 0x0, symName: __ZNSt3__122__compressed_pair_elemINS_22__tree_node_destructorINS_9allocatorINS_11__tree_nodeINS_12__value_typeINS_12basic_stringIcNS_11char_traitsIcEENS2_IcEEEEdEEPvEEEEEELi1ELb0EE5__getB8ue170006Ev, symObjAddr: 0x842C, symBinAddr: 0x10000A790, symSize: 0x14 }
  - { offsetInCU: 0x30CD3, offset: 0x30CD3, size: 0x8, addend: 0x0, symName: __ZNSt3__16__treeINS_12__value_typeINS_12basic_stringIcNS_11char_traitsIcEENS_9allocatorIcEEEEdEENS_19__map_value_compareIS7_S8_NS_4lessIS7_EELb1EEENS5_IS8_EEE4sizeB8ue170006Ev, symObjAddr: 0x8440, symBinAddr: 0x10000A7A4, symSize: 0x28 }
  - { offsetInCU: 0x30CF9, offset: 0x30CF9, size: 0x8, addend: 0x0, symName: __ZNSt3__117__compressed_pairImNS_19__map_value_compareINS_12basic_stringIcNS_11char_traitsIcEENS_9allocatorIcEEEENS_12__value_typeIS7_dEENS_4lessIS7_EELb1EEEE5firstB8ue170006Ev, symObjAddr: 0x8468, symBinAddr: 0x10000A7CC, symSize: 0x24 }
  - { offsetInCU: 0x30D1F, offset: 0x30D1F, size: 0x8, addend: 0x0, symName: __ZNSt3__117__compressed_pairIPNS_11__tree_nodeINS_12__value_typeINS_12basic_stringIcNS_11char_traitsIcEENS_9allocatorIcEEEEdEEPvEENS_22__tree_node_destructorINS6_ISB_EEEEE5firstB8ue170006Ev, symObjAddr: 0x848C, symBinAddr: 0x10000A7F0, symSize: 0x24 }
  - { offsetInCU: 0x30D45, offset: 0x30D45, size: 0x8, addend: 0x0, symName: __ZNSt3__122__compressed_pair_elemIPNS_11__tree_nodeINS_12__value_typeINS_12basic_stringIcNS_11char_traitsIcEENS_9allocatorIcEEEEdEEPvEELi0ELb0EE5__getB8ue170006Ev, symObjAddr: 0x84B0, symBinAddr: 0x10000A814, symSize: 0x14 }
  - { offsetInCU: 0x30D6B, offset: 0x30D6B, size: 0x8, addend: 0x0, symName: __ZNSt3__110unique_ptrINS_11__tree_nodeINS_12__value_typeINS_12basic_stringIcNS_11char_traitsIcEENS_9allocatorIcEEEEdEEPvEENS_22__tree_node_destructorINS6_ISB_EEEEED2B8ue170006Ev, symObjAddr: 0x84C4, symBinAddr: 0x10000A828, symSize: 0x30 }
  - { offsetInCU: 0x30D95, offset: 0x30D95, size: 0x8, addend: 0x0, symName: __ZNSt3__110unique_ptrINS_11__tree_nodeINS_12__value_typeINS_12basic_stringIcNS_11char_traitsIcEENS_9allocatorIcEEEEdEEPvEENS_22__tree_node_destructorINS6_ISB_EEEEE5resetB8ue170006EPSB_, symObjAddr: 0x84F4, symBinAddr: 0x10000A858, symSize: 0x78 }
  - { offsetInCU: 0x30DD9, offset: 0x30DD9, size: 0x8, addend: 0x0, symName: __ZNSt3__122__tree_node_destructorINS_9allocatorINS_11__tree_nodeINS_12__value_typeINS_12basic_stringIcNS_11char_traitsIcEENS1_IcEEEEdEEPvEEEEEclB8ue170006EPSB_, symObjAddr: 0x856C, symBinAddr: 0x10000A8D0, symSize: 0x98 }
  - { offsetInCU: 0x30E0E, offset: 0x30E0E, size: 0x8, addend: 0x0, symName: __ZNSt3__116allocator_traitsINS_9allocatorINS_11__tree_nodeINS_12__value_typeINS_12basic_stringIcNS_11char_traitsIcEENS1_IcEEEEdEEPvEEEEE7destroyB8ue170006INS_4pairIKS8_dEEvvEEvRSC_PT_, symObjAddr: 0x8604, symBinAddr: 0x10000A968, symSize: 0x28 }
  - { offsetInCU: 0x30E49, offset: 0x30E49, size: 0x8, addend: 0x0, symName: __ZNSt3__116allocator_traitsINS_9allocatorINS_11__tree_nodeINS_12__value_typeINS_12basic_stringIcNS_11char_traitsIcEENS1_IcEEEEdEEPvEEEEE10deallocateB8ue170006ERSC_PSB_m, symObjAddr: 0x862C, symBinAddr: 0x10000A990, symSize: 0x34 }
  - { offsetInCU: 0x30E8B, offset: 0x30E8B, size: 0x8, addend: 0x0, symName: __ZNSt3__19allocatorINS_11__tree_nodeINS_12__value_typeINS_12basic_stringIcNS_11char_traitsIcEENS0_IcEEEEdEEPvEEE10deallocateB8ue170006EPSA_m, symObjAddr: 0x8660, symBinAddr: 0x10000A9C4, symSize: 0x40 }
  - { offsetInCU: 0x30ECD, offset: 0x30ECD, size: 0x8, addend: 0x0, symName: __ZNSt3__115__tree_iteratorINS_12__value_typeINS_12basic_stringIcNS_11char_traitsIcEENS_9allocatorIcEEEEdEEPNS_11__tree_nodeIS8_PvEElEC2B8ue170006ESC_, symObjAddr: 0x86A0, symBinAddr: 0x10000AA04, symSize: 0x20 }
  - { offsetInCU: 0x30F06, offset: 0x30F06, size: 0x8, addend: 0x0, symName: __ZNSt3__14pairINS_15__tree_iteratorINS_12__value_typeINS_12basic_stringIcNS_11char_traitsIcEENS_9allocatorIcEEEEdEEPNS_11__tree_nodeIS9_PvEElEEbEC2B8ue170006ISE_RbLSB_0EEEOT_OT0_, symObjAddr: 0x86C0, symBinAddr: 0x10000AA24, symSize: 0x38 }
  - { offsetInCU: 0x30F64, offset: 0x30F64, size: 0x8, addend: 0x0, symName: __ZNSt3__114__map_iteratorINS_15__tree_iteratorINS_12__value_typeINS_12basic_stringIcNS_11char_traitsIcEENS_9allocatorIcEEEEdEEPNS_11__tree_nodeIS9_PvEElEEEC2B8ue170006ESE_, symObjAddr: 0x86F8, symBinAddr: 0x10000AA5C, symSize: 0x20 }
  - { offsetInCU: 0x30F9D, offset: 0x30F9D, size: 0x8, addend: 0x0, symName: __ZNSt3__120__map_const_iteratorINS_21__tree_const_iteratorINS_12__value_typeINS_12basic_stringIcNS_11char_traitsIcEENS_9allocatorIcEEEEdEEPNS_11__tree_nodeIS9_PvEElEEEC2B8ue170006ESE_, symObjAddr: 0x8718, symBinAddr: 0x10000AA7C, symSize: 0x20 }
  - { offsetInCU: 0x30FD6, offset: 0x30FD6, size: 0x8, addend: 0x0, symName: __ZNSt3__16__treeINS_12__value_typeINS_12basic_stringIcNS_11char_traitsIcEENS_9allocatorIcEEEEdEENS_19__map_value_compareIS7_S8_NS_4lessIS7_EELb1EEENS5_IS8_EEED2Ev, symObjAddr: 0x8738, symBinAddr: 0x10000AA9C, symSize: 0x38 }
  - { offsetInCU: 0x31002, offset: 0x31002, size: 0x8, addend: 0x0, symName: __ZNSt3__16__treeINS_12__value_typeINS_12basic_stringIcNS_11char_traitsIcEENS_9allocatorIcEEEEdEENS_19__map_value_compareIS7_S8_NS_4lessIS7_EELb1EEENS5_IS8_EEE7destroyEPNS_11__tree_nodeIS8_PvEE, symObjAddr: 0x8770, symBinAddr: 0x10000AAD4, symSize: 0xA8 }
  - { offsetInCU: 0x3104E, offset: 0x3104E, size: 0x8, addend: 0x0, symName: __ZNSt3__13mapINS_12basic_stringIcNS_11char_traitsIcEENS_9allocatorIcEEEEdNS_4lessIS6_EENS4_INS_4pairIKS6_dEEEEED2B8ue170006Ev, symObjAddr: 0x8818, symBinAddr: 0x10000AB7C, symSize: 0x2C }
  - { offsetInCU: 0x31078, offset: 0x31078, size: 0x8, addend: 0x0, symName: __ZNKSt3__16vectorINS_12basic_stringIcNS_11char_traitsIcEENS_9allocatorIcEEEENS4_IS6_EEE11__make_iterB8ue170006EPKS6_, symObjAddr: 0x8844, symBinAddr: 0x10000ABA8, symSize: 0x30 }
  - { offsetInCU: 0x310AD, offset: 0x310AD, size: 0x8, addend: 0x0, symName: __ZNSt3__111__wrap_iterIPKNS_12basic_stringIcNS_11char_traitsIcEENS_9allocatorIcEEEEEC1B8ue170006ES8_, symObjAddr: 0x8874, symBinAddr: 0x10000ABD8, symSize: 0x34 }
  - { offsetInCU: 0x310E5, offset: 0x310E5, size: 0x8, addend: 0x0, symName: __ZNSt3__111__wrap_iterIPKNS_12basic_stringIcNS_11char_traitsIcEENS_9allocatorIcEEEEEC2B8ue170006ES8_, symObjAddr: 0x88A8, symBinAddr: 0x10000AC0C, symSize: 0x20 }
  - { offsetInCU: 0x3111D, offset: 0x3111D, size: 0x8, addend: 0x0, symName: __ZNSt3__16__treeINS_12__value_typeINS_12basic_stringIcNS_11char_traitsIcEENS_9allocatorIcEEEEiEENS_19__map_value_compareIS7_S8_NS_4lessIS7_EELb1EEENS5_IS8_EEE4findIS7_EENS_15__tree_iteratorIS8_PNS_11__tree_nodeIS8_PvEElEERKT_, symObjAddr: 0x88C8, symBinAddr: 0x10000AC2C, symSize: 0xF8 }
  - { offsetInCU: 0x3116C, offset: 0x3116C, size: 0x8, addend: 0x0, symName: __ZNSt3__16__treeINS_12__value_typeINS_12basic_stringIcNS_11char_traitsIcEENS_9allocatorIcEEEEiEENS_19__map_value_compareIS7_S8_NS_4lessIS7_EELb1EEENS5_IS8_EEE13__lower_boundIS7_EENS_15__tree_iteratorIS8_PNS_11__tree_nodeIS8_PvEElEERKT_SK_PNS_15__tree_end_nodeIPNS_16__tree_node_baseISI_EEEE, symObjAddr: 0x89C0, symBinAddr: 0x10000AD24, symSize: 0xA4 }
  - { offsetInCU: 0x311CA, offset: 0x311CA, size: 0x8, addend: 0x0, symName: __ZNKSt3__115__tree_iteratorINS_12__value_typeINS_12basic_stringIcNS_11char_traitsIcEENS_9allocatorIcEEEEiEEPNS_11__tree_nodeIS8_PvEElEdeB8ue170006Ev, symObjAddr: 0x8A98, symBinAddr: 0x10000ADFC, symSize: 0x28 }
  - { offsetInCU: 0x311F0, offset: 0x311F0, size: 0x8, addend: 0x0, symName: __ZNKSt3__115__tree_iteratorINS_12__value_typeINS_12basic_stringIcNS_11char_traitsIcEENS_9allocatorIcEEEEiEEPNS_11__tree_nodeIS8_PvEElE8__get_npB8ue170006Ev, symObjAddr: 0x8AF0, symBinAddr: 0x10000AE54, symSize: 0x18 }
  - { offsetInCU: 0x31216, offset: 0x31216, size: 0x8, addend: 0x0, symName: __ZNSt3__16__treeINS_12__value_typeINS_12basic_stringIcNS_11char_traitsIcEENS_9allocatorIcEEEEdEENS_19__map_value_compareIS7_S8_NS_4lessIS7_EELb1EEENS5_IS8_EEE4findIS7_EENS_15__tree_iteratorIS8_PNS_11__tree_nodeIS8_PvEElEERKT_, symObjAddr: 0x8B08, symBinAddr: 0x10000AE6C, symSize: 0xF8 }
  - { offsetInCU: 0x31265, offset: 0x31265, size: 0x8, addend: 0x0, symName: __ZNSt3__16__treeINS_12__value_typeINS_12basic_stringIcNS_11char_traitsIcEENS_9allocatorIcEEEEdEENS_19__map_value_compareIS7_S8_NS_4lessIS7_EELb1EEENS5_IS8_EEE13__lower_boundIS7_EENS_15__tree_iteratorIS8_PNS_11__tree_nodeIS8_PvEElEERKT_SK_PNS_15__tree_end_nodeIPNS_16__tree_node_baseISI_EEEE, symObjAddr: 0x8C00, symBinAddr: 0x10000AF64, symSize: 0xA4 }
  - { offsetInCU: 0x312C3, offset: 0x312C3, size: 0x8, addend: 0x0, symName: __ZNKSt3__115__tree_iteratorINS_12__value_typeINS_12basic_stringIcNS_11char_traitsIcEENS_9allocatorIcEEEEdEEPNS_11__tree_nodeIS8_PvEElEdeB8ue170006Ev, symObjAddr: 0x8CD8, symBinAddr: 0x10000B03C, symSize: 0x28 }
  - { offsetInCU: 0x312E9, offset: 0x312E9, size: 0x8, addend: 0x0, symName: __ZNKSt3__115__tree_iteratorINS_12__value_typeINS_12basic_stringIcNS_11char_traitsIcEENS_9allocatorIcEEEEdEEPNS_11__tree_nodeIS8_PvEElE8__get_npB8ue170006Ev, symObjAddr: 0x8D30, symBinAddr: 0x10000B094, symSize: 0x18 }
  - { offsetInCU: 0x31323, offset: 0x31323, size: 0x8, addend: 0x0, symName: __ZNSt3__16__treeINS_12__value_typeINS_12basic_stringIcNS_11char_traitsIcEENS_9allocatorIcEEEEiEENS_19__map_value_compareIS7_S8_NS_4lessIS7_EELb1EEENS5_IS8_EEE25__emplace_unique_key_argsIS7_JRKNS_21piecewise_construct_tENS_5tupleIJRKS7_EEENSJ_IJEEEEEENS_4pairINS_15__tree_iteratorIS8_PNS_11__tree_nodeIS8_PvEElEEbEERKT_DpOT0_, symObjAddr: 0x8D48, symBinAddr: 0x10000B0AC, symSize: 0x100 }
  - { offsetInCU: 0x313F9, offset: 0x313F9, size: 0x8, addend: 0x0, symName: __ZNKSt3__115__tree_iteratorINS_12__value_typeINS_12basic_stringIcNS_11char_traitsIcEENS_9allocatorIcEEEEiEEPNS_11__tree_nodeIS8_PvEElEptB8ue170006Ev, symObjAddr: 0x8E78, symBinAddr: 0x10000B1DC, symSize: 0x2C }
  - { offsetInCU: 0x3141F, offset: 0x3141F, size: 0x8, addend: 0x0, symName: __ZNSt3__16__treeINS_12__value_typeINS_12basic_stringIcNS_11char_traitsIcEENS_9allocatorIcEEEEiEENS_19__map_value_compareIS7_S8_NS_4lessIS7_EELb1EEENS5_IS8_EEE16__construct_nodeIJRKNS_21piecewise_construct_tENS_5tupleIJRKS7_EEENSJ_IJEEEEEENS_10unique_ptrINS_11__tree_nodeIS8_PvEENS_22__tree_node_destructorINS5_ISR_EEEEEEDpOT_, symObjAddr: 0x8EA4, symBinAddr: 0x10000B208, symSize: 0x120 }
  - { offsetInCU: 0x314A8, offset: 0x314A8, size: 0x8, addend: 0x0, symName: __ZNSt3__116allocator_traitsINS_9allocatorINS_11__tree_nodeINS_12__value_typeINS_12basic_stringIcNS_11char_traitsIcEENS1_IcEEEEiEEPvEEEEE9constructB8ue170006INS_4pairIKS8_iEEJRKNS_21piecewise_construct_tENS_5tupleIJRSG_EEENSL_IJEEEEvEEvRSC_PT_DpOT0_, symObjAddr: 0x8FC4, symBinAddr: 0x10000B328, symSize: 0x44 }
  - { offsetInCU: 0x31527, offset: 0x31527, size: 0x8, addend: 0x0, symName: __ZNSt3__19allocatorINS_11__tree_nodeINS_12__value_typeINS_12basic_stringIcNS_11char_traitsIcEENS0_IcEEEEiEEPvEEE9constructB8ue170006INS_4pairIKS7_iEEJRKNS_21piecewise_construct_tENS_5tupleIJRSE_EEENSJ_IJEEEEEEvPT_DpOT0_, symObjAddr: 0x9008, symBinAddr: 0x10000B36C, symSize: 0x44 }
  - { offsetInCU: 0x315A3, offset: 0x315A3, size: 0x8, addend: 0x0, symName: __ZNSt3__14pairIKNS_12basic_stringIcNS_11char_traitsIcEENS_9allocatorIcEEEEiEC1B8ue170006IJRS7_EJEEENS_21piecewise_construct_tENS_5tupleIJDpT_EEENSC_IJDpT0_EEE, symObjAddr: 0x904C, symBinAddr: 0x10000B3B0, symSize: 0x3C }
  - { offsetInCU: 0x3160A, offset: 0x3160A, size: 0x8, addend: 0x0, symName: __ZNSt3__14pairIKNS_12basic_stringIcNS_11char_traitsIcEENS_9allocatorIcEEEEiEC1B8ue170006IJRS7_EJEJLm0EEJEEENS_21piecewise_construct_tERNS_5tupleIJDpT_EEERNSC_IJDpT0_EEENS_15__tuple_indicesIJXspT1_EEEENSL_IJXspT2_EEEE, symObjAddr: 0x9088, symBinAddr: 0x10000B3EC, symSize: 0x3C }
  - { offsetInCU: 0x3169A, offset: 0x3169A, size: 0x8, addend: 0x0, symName: __ZNSt3__14pairIKNS_12basic_stringIcNS_11char_traitsIcEENS_9allocatorIcEEEEiEC2B8ue170006IJRS7_EJEJLm0EEJEEENS_21piecewise_construct_tERNS_5tupleIJDpT_EEERNSC_IJDpT0_EEENS_15__tuple_indicesIJXspT1_EEEENSL_IJXspT2_EEEE, symObjAddr: 0x90C4, symBinAddr: 0x10000B428, symSize: 0x48 }
  - { offsetInCU: 0x3172A, offset: 0x3172A, size: 0x8, addend: 0x0, symName: __ZNSt3__112__tuple_leafILm0ERKNS_12basic_stringIcNS_11char_traitsIcEENS_9allocatorIcEEEELb0EE3getB8ue170006Ev, symObjAddr: 0x9130, symBinAddr: 0x10000B494, symSize: 0x18 }
  - { offsetInCU: 0x31750, offset: 0x31750, size: 0x8, addend: 0x0, symName: __ZNSt3__15tupleIJRKNS_12basic_stringIcNS_11char_traitsIcEENS_9allocatorIcEEEEEEC1B8ue170006INS_4_AndELi0EEES8_, symObjAddr: 0x9148, symBinAddr: 0x10000B4AC, symSize: 0x34 }
  - { offsetInCU: 0x31798, offset: 0x31798, size: 0x8, addend: 0x0, symName: __ZNSt3__15tupleIJRKNS_12basic_stringIcNS_11char_traitsIcEENS_9allocatorIcEEEEEEC2B8ue170006INS_4_AndELi0EEES8_, symObjAddr: 0x917C, symBinAddr: 0x10000B4E0, symSize: 0x34 }
  - { offsetInCU: 0x317E0, offset: 0x317E0, size: 0x8, addend: 0x0, symName: __ZNSt3__112__tuple_implINS_15__tuple_indicesIJLm0EEEEJRKNS_12basic_stringIcNS_11char_traitsIcEENS_9allocatorIcEEEEEEC1B8ue170006IJLm0EEJSA_EJEJEJSA_EEENS1_IJXspT_EEEENS_13__tuple_typesIJDpT0_EEENS1_IJXspT1_EEEENSE_IJDpT2_EEEDpOT3_, symObjAddr: 0x91B0, symBinAddr: 0x10000B514, symSize: 0x34 }
  - { offsetInCU: 0x31875, offset: 0x31875, size: 0x8, addend: 0x0, symName: __ZNSt3__112__tuple_implINS_15__tuple_indicesIJLm0EEEEJRKNS_12basic_stringIcNS_11char_traitsIcEENS_9allocatorIcEEEEEEC2B8ue170006IJLm0EEJSA_EJEJEJSA_EEENS1_IJXspT_EEEENS_13__tuple_typesIJDpT0_EEENS1_IJXspT1_EEEENSE_IJDpT2_EEEDpOT3_, symObjAddr: 0x91E4, symBinAddr: 0x10000B548, symSize: 0x34 }
  - { offsetInCU: 0x3190A, offset: 0x3190A, size: 0x8, addend: 0x0, symName: __ZNSt3__112__tuple_leafILm0ERKNS_12basic_stringIcNS_11char_traitsIcEENS_9allocatorIcEEEELb0EEC2B8ue170006IS8_vEEOT_, symObjAddr: 0x9218, symBinAddr: 0x10000B57C, symSize: 0x20 }
  - { offsetInCU: 0x3194D, offset: 0x3194D, size: 0x8, addend: 0x0, symName: __ZNSt3__114pointer_traitsIPNS_12__value_typeINS_12basic_stringIcNS_11char_traitsIcEENS_9allocatorIcEEEEiEEE10pointer_toB8ue170006ERS8_, symObjAddr: 0x9238, symBinAddr: 0x10000B59C, symSize: 0x14 }
  - { offsetInCU: 0x31970, offset: 0x31970, size: 0x8, addend: 0x0, symName: __ZNSt3__16__treeINS_12__value_typeINS_12basic_stringIcNS_11char_traitsIcEENS_9allocatorIcEEEEdEENS_19__map_value_compareIS7_S8_NS_4lessIS7_EELb1EEENS5_IS8_EEE25__emplace_unique_key_argsIS7_JRKNS_21piecewise_construct_tENS_5tupleIJRKS7_EEENSJ_IJEEEEEENS_4pairINS_15__tree_iteratorIS8_PNS_11__tree_nodeIS8_PvEElEEbEERKT_DpOT0_, symObjAddr: 0x924C, symBinAddr: 0x10000B5B0, symSize: 0x100 }
  - { offsetInCU: 0x31A46, offset: 0x31A46, size: 0x8, addend: 0x0, symName: __ZNKSt3__115__tree_iteratorINS_12__value_typeINS_12basic_stringIcNS_11char_traitsIcEENS_9allocatorIcEEEEdEEPNS_11__tree_nodeIS8_PvEElEptB8ue170006Ev, symObjAddr: 0x934C, symBinAddr: 0x10000B6B0, symSize: 0x2C }
  - { offsetInCU: 0x31A6C, offset: 0x31A6C, size: 0x8, addend: 0x0, symName: __ZNSt3__16__treeINS_12__value_typeINS_12basic_stringIcNS_11char_traitsIcEENS_9allocatorIcEEEEdEENS_19__map_value_compareIS7_S8_NS_4lessIS7_EELb1EEENS5_IS8_EEE16__construct_nodeIJRKNS_21piecewise_construct_tENS_5tupleIJRKS7_EEENSJ_IJEEEEEENS_10unique_ptrINS_11__tree_nodeIS8_PvEENS_22__tree_node_destructorINS5_ISR_EEEEEEDpOT_, symObjAddr: 0x9378, symBinAddr: 0x10000B6DC, symSize: 0x120 }
  - { offsetInCU: 0x31AF5, offset: 0x31AF5, size: 0x8, addend: 0x0, symName: __ZNSt3__116allocator_traitsINS_9allocatorINS_11__tree_nodeINS_12__value_typeINS_12basic_stringIcNS_11char_traitsIcEENS1_IcEEEEdEEPvEEEEE9constructB8ue170006INS_4pairIKS8_dEEJRKNS_21piecewise_construct_tENS_5tupleIJRSG_EEENSL_IJEEEEvEEvRSC_PT_DpOT0_, symObjAddr: 0x9498, symBinAddr: 0x10000B7FC, symSize: 0x44 }
  - { offsetInCU: 0x31B74, offset: 0x31B74, size: 0x8, addend: 0x0, symName: __ZNSt3__19allocatorINS_11__tree_nodeINS_12__value_typeINS_12basic_stringIcNS_11char_traitsIcEENS0_IcEEEEdEEPvEEE9constructB8ue170006INS_4pairIKS7_dEEJRKNS_21piecewise_construct_tENS_5tupleIJRSE_EEENSJ_IJEEEEEEvPT_DpOT0_, symObjAddr: 0x94DC, symBinAddr: 0x10000B840, symSize: 0x44 }
  - { offsetInCU: 0x31BF0, offset: 0x31BF0, size: 0x8, addend: 0x0, symName: __ZNSt3__14pairIKNS_12basic_stringIcNS_11char_traitsIcEENS_9allocatorIcEEEEdEC1B8ue170006IJRS7_EJEEENS_21piecewise_construct_tENS_5tupleIJDpT_EEENSC_IJDpT0_EEE, symObjAddr: 0x9520, symBinAddr: 0x10000B884, symSize: 0x3C }
  - { offsetInCU: 0x31C57, offset: 0x31C57, size: 0x8, addend: 0x0, symName: __ZNSt3__14pairIKNS_12basic_stringIcNS_11char_traitsIcEENS_9allocatorIcEEEEdEC1B8ue170006IJRS7_EJEJLm0EEJEEENS_21piecewise_construct_tERNS_5tupleIJDpT_EEERNSC_IJDpT0_EEENS_15__tuple_indicesIJXspT1_EEEENSL_IJXspT2_EEEE, symObjAddr: 0x955C, symBinAddr: 0x10000B8C0, symSize: 0x3C }
  - { offsetInCU: 0x31CE7, offset: 0x31CE7, size: 0x8, addend: 0x0, symName: __ZNSt3__14pairIKNS_12basic_stringIcNS_11char_traitsIcEENS_9allocatorIcEEEEdEC2B8ue170006IJRS7_EJEJLm0EEJEEENS_21piecewise_construct_tERNS_5tupleIJDpT_EEERNSC_IJDpT0_EEENS_15__tuple_indicesIJXspT1_EEEENSL_IJXspT2_EEEE, symObjAddr: 0x9598, symBinAddr: 0x10000B8FC, symSize: 0x4C }
  - { offsetInCU: 0x31D77, offset: 0x31D77, size: 0x8, addend: 0x0, symName: __ZNSt3__114pointer_traitsIPNS_12__value_typeINS_12basic_stringIcNS_11char_traitsIcEENS_9allocatorIcEEEEdEEE10pointer_toB8ue170006ERS8_, symObjAddr: 0x95E4, symBinAddr: 0x10000B948, symSize: 0x14 }
  - { offsetInCU: 0x31D9A, offset: 0x31D9A, size: 0x8, addend: 0x0, symName: __ZNSt3__19basic_iosIcNS_11char_traitsIcEEEC2B8ue170006Ev, symObjAddr: 0x95F8, symBinAddr: 0x10000B95C, symSize: 0x44 }
  - { offsetInCU: 0x31DC4, offset: 0x31DC4, size: 0x8, addend: 0x0, symName: __ZNSt3__113basic_ostreamIcNS_11char_traitsIcEEEC2B8ue170006EPNS_15basic_streambufIcS2_EE, symObjAddr: 0x963C, symBinAddr: 0x10000B9A0, symSize: 0x60 }
  - { offsetInCU: 0x31E09, offset: 0x31E09, size: 0x8, addend: 0x0, symName: __ZNSt3__115basic_stringbufIcNS_11char_traitsIcEENS_9allocatorIcEEEC1B8ue170006Ej, symObjAddr: 0x969C, symBinAddr: 0x10000BA00, symSize: 0x34 }
  - { offsetInCU: 0x31E42, offset: 0x31E42, size: 0x8, addend: 0x0, symName: __ZNSt3__18ios_baseC2B8ue170006Ev, symObjAddr: 0x96D0, symBinAddr: 0x10000BA34, symSize: 0x24 }
  - { offsetInCU: 0x31E6C, offset: 0x31E6C, size: 0x8, addend: 0x0, symName: __ZNSt3__19basic_iosIcNS_11char_traitsIcEEE4initB8ue170006EPNS_15basic_streambufIcS2_EE, symObjAddr: 0x96F4, symBinAddr: 0x10000BA58, symSize: 0x44 }
  - { offsetInCU: 0x31EA3, offset: 0x31EA3, size: 0x8, addend: 0x0, symName: __ZNSt3__115basic_stringbufIcNS_11char_traitsIcEENS_9allocatorIcEEEC2B8ue170006Ej, symObjAddr: 0x9738, symBinAddr: 0x10000BA9C, symSize: 0x60 }
  - { offsetInCU: 0x31EDC, offset: 0x31EDC, size: 0x8, addend: 0x0, symName: __ZNSt3__112basic_stringIcNS_11char_traitsIcEENS_9allocatorIcEEEC1B8ue170006Ev, symObjAddr: 0x9798, symBinAddr: 0x10000BAFC, symSize: 0x2C }
  - { offsetInCU: 0x31F06, offset: 0x31F06, size: 0x8, addend: 0x0, symName: __ZNSt3__112basic_stringIcNS_11char_traitsIcEENS_9allocatorIcEEEC2B8ue170006Ev, symObjAddr: 0x97C4, symBinAddr: 0x10000BB28, symSize: 0x48 }
  - { offsetInCU: 0x31F30, offset: 0x31F30, size: 0x8, addend: 0x0, symName: __ZNSt3__112basic_stringIcNS_11char_traitsIcEENS_9allocatorIcEEE14__default_initB8ue170006Ev, symObjAddr: 0x980C, symBinAddr: 0x10000BB70, symSize: 0x40 }
  - { offsetInCU: 0x31F56, offset: 0x31F56, size: 0x8, addend: 0x0, symName: __ZNSt3__117__compressed_pairINS_12basic_stringIcNS_11char_traitsIcEENS_9allocatorIcEEE5__repES5_E5firstB8ue170006Ev, symObjAddr: 0x984C, symBinAddr: 0x10000BBB0, symSize: 0x24 }
  - { offsetInCU: 0x31F7C, offset: 0x31F7C, size: 0x8, addend: 0x0, symName: __ZNSt3__122__compressed_pair_elemINS_12basic_stringIcNS_11char_traitsIcEENS_9allocatorIcEEE5__repELi0ELb0EE5__getB8ue170006Ev, symObjAddr: 0x9870, symBinAddr: 0x10000BBD4, symSize: 0x14 }
  - { offsetInCU: 0x31FA2, offset: 0x31FA2, size: 0x8, addend: 0x0, symName: __ZNSt3__18ios_base9precisionB8ue170006El, symObjAddr: 0x9884, symBinAddr: 0x10000BBE8, symSize: 0x2C }
  - { offsetInCU: 0x31FE8, offset: 0x31FE8, size: 0x8, addend: 0x0, symName: __ZNSt3__14pairIKNS_12basic_stringIcNS_11char_traitsIcEENS_9allocatorIcEEEES6_EC2B8ue170006IRA6_KcRA3_SA_LPv0EEEOT_OT0_, symObjAddr: 0x98B0, symBinAddr: 0x10000BC14, symSize: 0x70 }
  - { offsetInCU: 0x32046, offset: 0x32046, size: 0x8, addend: 0x0, symName: __ZNSt3__14pairIKNS_12basic_stringIcNS_11char_traitsIcEENS_9allocatorIcEEEES6_EC2B8ue170006IRA4_KcRA3_SA_LPv0EEEOT_OT0_, symObjAddr: 0x9920, symBinAddr: 0x10000BC84, symSize: 0x70 }
  - { offsetInCU: 0x320A4, offset: 0x320A4, size: 0x8, addend: 0x0, symName: __ZNSt3__14pairIKNS_12basic_stringIcNS_11char_traitsIcEENS_9allocatorIcEEEES6_EC2B8ue170006IRA6_KcRA5_SA_LPv0EEEOT_OT0_, symObjAddr: 0x9990, symBinAddr: 0x10000BCF4, symSize: 0x70 }
  - { offsetInCU: 0x32102, offset: 0x32102, size: 0x8, addend: 0x0, symName: __ZNSt3__14pairIKNS_12basic_stringIcNS_11char_traitsIcEENS_9allocatorIcEEEES6_EC2B8ue170006IRA5_KcRA6_SA_LPv0EEEOT_OT0_, symObjAddr: 0x9A00, symBinAddr: 0x10000BD64, symSize: 0x70 }
  - { offsetInCU: 0x32160, offset: 0x32160, size: 0x8, addend: 0x0, symName: __ZNSt3__14pairIKNS_12basic_stringIcNS_11char_traitsIcEENS_9allocatorIcEEEES6_EC2B8ue170006IRA7_KcRA5_SA_LPv0EEEOT_OT0_, symObjAddr: 0x9A70, symBinAddr: 0x10000BDD4, symSize: 0x70 }
  - { offsetInCU: 0x321BE, offset: 0x321BE, size: 0x8, addend: 0x0, symName: __ZNSt3__14pairIKNS_12basic_stringIcNS_11char_traitsIcEENS_9allocatorIcEEEES6_EC2B8ue170006IRA5_KcRA3_SA_LPv0EEEOT_OT0_, symObjAddr: 0x9AE0, symBinAddr: 0x10000BE44, symSize: 0x70 }
  - { offsetInCU: 0x3221C, offset: 0x3221C, size: 0x8, addend: 0x0, symName: __ZNSt3__14pairIKNS_12basic_stringIcNS_11char_traitsIcEENS_9allocatorIcEEEES6_EC2B8ue170006IRA7_KcRA4_SA_LPv0EEEOT_OT0_, symObjAddr: 0x9B50, symBinAddr: 0x10000BEB4, symSize: 0x70 }
  - { offsetInCU: 0x3227A, offset: 0x3227A, size: 0x8, addend: 0x0, symName: __ZNSt3__13mapINS_12basic_stringIcNS_11char_traitsIcEENS_9allocatorIcEEEES6_NS_4lessIS6_EENS4_INS_4pairIKS6_S6_EEEEEC2B8ue170006ESt16initializer_listISB_ERKS8_, symObjAddr: 0x9BC0, symBinAddr: 0x10000BF24, symSize: 0xA4 }
  - { offsetInCU: 0x322C2, offset: 0x322C2, size: 0x8, addend: 0x0, symName: __ZNSt3__119__map_value_compareINS_12basic_stringIcNS_11char_traitsIcEENS_9allocatorIcEEEENS_12__value_typeIS6_S6_EENS_4lessIS6_EELb1EEC1B8ue170006ESA_, symObjAddr: 0x9C64, symBinAddr: 0x10000BFC8, symSize: 0x2C }
  - { offsetInCU: 0x322FB, offset: 0x322FB, size: 0x8, addend: 0x0, symName: __ZNSt3__16__treeINS_12__value_typeINS_12basic_stringIcNS_11char_traitsIcEENS_9allocatorIcEEEES7_EENS_19__map_value_compareIS7_S8_NS_4lessIS7_EELb1EEENS5_IS8_EEEC1ERKSC_, symObjAddr: 0x9C90, symBinAddr: 0x10000BFF4, symSize: 0x34 }
  - { offsetInCU: 0x32336, offset: 0x32336, size: 0x8, addend: 0x0, symName: __ZNSt3__13mapINS_12basic_stringIcNS_11char_traitsIcEENS_9allocatorIcEEEES6_NS_4lessIS6_EENS4_INS_4pairIKS6_S6_EEEEE6insertB8ue170006IPKSB_EEvT_SH_, symObjAddr: 0x9CC4, symBinAddr: 0x10000C028, symSize: 0x8C }
  - { offsetInCU: 0x323A0, offset: 0x323A0, size: 0x8, addend: 0x0, symName: __ZNKSt16initializer_listINSt3__14pairIKNS0_12basic_stringIcNS0_11char_traitsIcEENS0_9allocatorIcEEEES7_EEE5beginB8ue170006Ev, symObjAddr: 0x9D50, symBinAddr: 0x10000C0B4, symSize: 0x18 }
  - { offsetInCU: 0x323C6, offset: 0x323C6, size: 0x8, addend: 0x0, symName: __ZNKSt16initializer_listINSt3__14pairIKNS0_12basic_stringIcNS0_11char_traitsIcEENS0_9allocatorIcEEEES7_EEE3endB8ue170006Ev, symObjAddr: 0x9D68, symBinAddr: 0x10000C0CC, symSize: 0x28 }
  - { offsetInCU: 0x323EC, offset: 0x323EC, size: 0x8, addend: 0x0, symName: __ZNSt3__16__treeINS_12__value_typeINS_12basic_stringIcNS_11char_traitsIcEENS_9allocatorIcEEEES7_EENS_19__map_value_compareIS7_S8_NS_4lessIS7_EELb1EEENS5_IS8_EEED1Ev, symObjAddr: 0x9D90, symBinAddr: 0x10000C0F4, symSize: 0x2C }
  - { offsetInCU: 0x32418, offset: 0x32418, size: 0x8, addend: 0x0, symName: __ZNSt3__119__map_value_compareINS_12basic_stringIcNS_11char_traitsIcEENS_9allocatorIcEEEENS_12__value_typeIS6_S6_EENS_4lessIS6_EELb1EEC2B8ue170006ESA_, symObjAddr: 0x9DBC, symBinAddr: 0x10000C120, symSize: 0x14 }
  - { offsetInCU: 0x32451, offset: 0x32451, size: 0x8, addend: 0x0, symName: __ZNSt3__16__treeINS_12__value_typeINS_12basic_stringIcNS_11char_traitsIcEENS_9allocatorIcEEEES7_EENS_19__map_value_compareIS7_S8_NS_4lessIS7_EELb1EEENS5_IS8_EEEC2ERKSC_, symObjAddr: 0x9DD0, symBinAddr: 0x10000C134, symSize: 0x7C }
  - { offsetInCU: 0x3248C, offset: 0x3248C, size: 0x8, addend: 0x0, symName: __ZNSt3__117__compressed_pairINS_15__tree_end_nodeIPNS_16__tree_node_baseIPvEEEENS_9allocatorINS_11__tree_nodeINS_12__value_typeINS_12basic_stringIcNS_11char_traitsIcEENS7_IcEEEESE_EES3_EEEEEC1B8ue170006ILb1EvEEv, symObjAddr: 0x9E4C, symBinAddr: 0x10000C1B0, symSize: 0x2C }
  - { offsetInCU: 0x324C1, offset: 0x324C1, size: 0x8, addend: 0x0, symName: __ZNSt3__117__compressed_pairImNS_19__map_value_compareINS_12basic_stringIcNS_11char_traitsIcEENS_9allocatorIcEEEENS_12__value_typeIS7_S7_EENS_4lessIS7_EELb1EEEEC1B8ue170006IiRKSC_EEOT_OT0_, symObjAddr: 0x9E78, symBinAddr: 0x10000C1DC, symSize: 0x3C }
  - { offsetInCU: 0x32519, offset: 0x32519, size: 0x8, addend: 0x0, symName: __ZNSt3__16__treeINS_12__value_typeINS_12basic_stringIcNS_11char_traitsIcEENS_9allocatorIcEEEES7_EENS_19__map_value_compareIS7_S8_NS_4lessIS7_EELb1EEENS5_IS8_EEE10__end_nodeB8ue170006Ev, symObjAddr: 0x9EB4, symBinAddr: 0x10000C218, symSize: 0x2C }
  - { offsetInCU: 0x3253F, offset: 0x3253F, size: 0x8, addend: 0x0, symName: __ZNSt3__16__treeINS_12__value_typeINS_12basic_stringIcNS_11char_traitsIcEENS_9allocatorIcEEEES7_EENS_19__map_value_compareIS7_S8_NS_4lessIS7_EELb1EEENS5_IS8_EEE12__begin_nodeB8ue170006Ev, symObjAddr: 0x9EE0, symBinAddr: 0x10000C244, symSize: 0x14 }
  - { offsetInCU: 0x32565, offset: 0x32565, size: 0x8, addend: 0x0, symName: __ZNSt3__117__compressed_pairINS_15__tree_end_nodeIPNS_16__tree_node_baseIPvEEEENS_9allocatorINS_11__tree_nodeINS_12__value_typeINS_12basic_stringIcNS_11char_traitsIcEENS7_IcEEEESE_EES3_EEEEEC2B8ue170006ILb1EvEEv, symObjAddr: 0x9EF4, symBinAddr: 0x10000C258, symSize: 0x34 }
  - { offsetInCU: 0x3259A, offset: 0x3259A, size: 0x8, addend: 0x0, symName: __ZNSt3__122__compressed_pair_elemINS_9allocatorINS_11__tree_nodeINS_12__value_typeINS_12basic_stringIcNS_11char_traitsIcEENS1_IcEEEES8_EEPvEEEELi1ELb1EEC2B8ue170006ENS_16__value_init_tagE, symObjAddr: 0x9F28, symBinAddr: 0x10000C28C, symSize: 0x2C }
  - { offsetInCU: 0x325CE, offset: 0x325CE, size: 0x8, addend: 0x0, symName: __ZNSt3__19allocatorINS_11__tree_nodeINS_12__value_typeINS_12basic_stringIcNS_11char_traitsIcEENS0_IcEEEES7_EEPvEEEC2B8ue170006Ev, symObjAddr: 0x9F54, symBinAddr: 0x10000C2B8, symSize: 0x2C }
  - { offsetInCU: 0x325F8, offset: 0x325F8, size: 0x8, addend: 0x0, symName: __ZNSt3__116__non_trivial_ifILb1ENS_9allocatorINS_11__tree_nodeINS_12__value_typeINS_12basic_stringIcNS_11char_traitsIcEENS1_IcEEEES8_EEPvEEEEEC2B8ue170006Ev, symObjAddr: 0x9F80, symBinAddr: 0x10000C2E4, symSize: 0x14 }
  - { offsetInCU: 0x32622, offset: 0x32622, size: 0x8, addend: 0x0, symName: __ZNSt3__117__compressed_pairImNS_19__map_value_compareINS_12basic_stringIcNS_11char_traitsIcEENS_9allocatorIcEEEENS_12__value_typeIS7_S7_EENS_4lessIS7_EELb1EEEEC2B8ue170006IiRKSC_EEOT_OT0_, symObjAddr: 0x9F94, symBinAddr: 0x10000C2F8, symSize: 0x44 }
  - { offsetInCU: 0x3267A, offset: 0x3267A, size: 0x8, addend: 0x0, symName: __ZNSt3__122__compressed_pair_elemINS_19__map_value_compareINS_12basic_stringIcNS_11char_traitsIcEENS_9allocatorIcEEEENS_12__value_typeIS7_S7_EENS_4lessIS7_EELb1EEELi1ELb1EEC2B8ue170006IRKSC_vEEOT_, symObjAddr: 0x9FD8, symBinAddr: 0x10000C33C, symSize: 0x18 }
  - { offsetInCU: 0x326BC, offset: 0x326BC, size: 0x8, addend: 0x0, symName: __ZNSt3__117__compressed_pairINS_15__tree_end_nodeIPNS_16__tree_node_baseIPvEEEENS_9allocatorINS_11__tree_nodeINS_12__value_typeINS_12basic_stringIcNS_11char_traitsIcEENS7_IcEEEESE_EES3_EEEEE5firstB8ue170006Ev, symObjAddr: 0x9FF0, symBinAddr: 0x10000C354, symSize: 0x24 }
  - { offsetInCU: 0x326E2, offset: 0x326E2, size: 0x8, addend: 0x0, symName: __ZNKSt3__13mapINS_12basic_stringIcNS_11char_traitsIcEENS_9allocatorIcEEEES6_NS_4lessIS6_EENS4_INS_4pairIKS6_S6_EEEEE4cendB8ue170006Ev, symObjAddr: 0xA014, symBinAddr: 0x10000C378, symSize: 0x2C }
  - { offsetInCU: 0x32708, offset: 0x32708, size: 0x8, addend: 0x0, symName: __ZNSt3__13mapINS_12basic_stringIcNS_11char_traitsIcEENS_9allocatorIcEEEES6_NS_4lessIS6_EENS4_INS_4pairIKS6_S6_EEEEE6insertB8ue170006ENS_20__map_const_iteratorINS_21__tree_const_iteratorINS_12__value_typeIS6_S6_EEPNS_11__tree_nodeISH_PvEElEEEERKSB_, symObjAddr: 0xA040, symBinAddr: 0x10000C3A4, symSize: 0x50 }
  - { offsetInCU: 0x3274C, offset: 0x3274C, size: 0x8, addend: 0x0, symName: __ZNSt3__120__map_const_iteratorINS_21__tree_const_iteratorINS_12__value_typeINS_12basic_stringIcNS_11char_traitsIcEENS_9allocatorIcEEEES8_EEPNS_11__tree_nodeIS9_PvEElEEEC1B8ue170006ESE_, symObjAddr: 0xA090, symBinAddr: 0x10000C3F4, symSize: 0x34 }
  - { offsetInCU: 0x32785, offset: 0x32785, size: 0x8, addend: 0x0, symName: __ZNKSt3__13mapINS_12basic_stringIcNS_11char_traitsIcEENS_9allocatorIcEEEES6_NS_4lessIS6_EENS4_INS_4pairIKS6_S6_EEEEE3endB8ue170006Ev, symObjAddr: 0xA0C4, symBinAddr: 0x10000C428, symSize: 0x38 }
  - { offsetInCU: 0x327AB, offset: 0x327AB, size: 0x8, addend: 0x0, symName: __ZNKSt3__16__treeINS_12__value_typeINS_12basic_stringIcNS_11char_traitsIcEENS_9allocatorIcEEEES7_EENS_19__map_value_compareIS7_S8_NS_4lessIS7_EELb1EEENS5_IS8_EEE3endB8ue170006Ev, symObjAddr: 0xA0FC, symBinAddr: 0x10000C460, symSize: 0x34 }
  - { offsetInCU: 0x327D1, offset: 0x327D1, size: 0x8, addend: 0x0, symName: __ZNKSt3__16__treeINS_12__value_typeINS_12basic_stringIcNS_11char_traitsIcEENS_9allocatorIcEEEES7_EENS_19__map_value_compareIS7_S8_NS_4lessIS7_EELb1EEENS5_IS8_EEE10__end_nodeB8ue170006Ev, symObjAddr: 0xA130, symBinAddr: 0x10000C494, symSize: 0x2C }
  - { offsetInCU: 0x327F7, offset: 0x327F7, size: 0x8, addend: 0x0, symName: __ZNSt3__121__tree_const_iteratorINS_12__value_typeINS_12basic_stringIcNS_11char_traitsIcEENS_9allocatorIcEEEES7_EEPNS_11__tree_nodeIS8_PvEElEC1B8ue170006EPNS_15__tree_end_nodeIPNS_16__tree_node_baseISA_EEEE, symObjAddr: 0xA15C, symBinAddr: 0x10000C4C0, symSize: 0x34 }
  - { offsetInCU: 0x32830, offset: 0x32830, size: 0x8, addend: 0x0, symName: __ZNKSt3__117__compressed_pairINS_15__tree_end_nodeIPNS_16__tree_node_baseIPvEEEENS_9allocatorINS_11__tree_nodeINS_12__value_typeINS_12basic_stringIcNS_11char_traitsIcEENS7_IcEEEESE_EES3_EEEEE5firstB8ue170006Ev, symObjAddr: 0xA190, symBinAddr: 0x10000C4F4, symSize: 0x24 }
  - { offsetInCU: 0x32856, offset: 0x32856, size: 0x8, addend: 0x0, symName: __ZNSt3__121__tree_const_iteratorINS_12__value_typeINS_12basic_stringIcNS_11char_traitsIcEENS_9allocatorIcEEEES7_EEPNS_11__tree_nodeIS8_PvEElEC2B8ue170006EPNS_15__tree_end_nodeIPNS_16__tree_node_baseISA_EEEE, symObjAddr: 0xA1B4, symBinAddr: 0x10000C518, symSize: 0x20 }
  - { offsetInCU: 0x3288F, offset: 0x3288F, size: 0x8, addend: 0x0, symName: __ZNSt3__16__treeINS_12__value_typeINS_12basic_stringIcNS_11char_traitsIcEENS_9allocatorIcEEEES7_EENS_19__map_value_compareIS7_S8_NS_4lessIS7_EELb1EEENS5_IS8_EEE15__insert_uniqueB8ue170006ENS_21__tree_const_iteratorIS8_PNS_11__tree_nodeIS8_PvEElEERKNS_4pairIKS7_S7_EE, symObjAddr: 0xA1D4, symBinAddr: 0x10000C538, symSize: 0x64 }
  - { offsetInCU: 0x328D3, offset: 0x328D3, size: 0x8, addend: 0x0, symName: __ZNSt3__114__map_iteratorINS_15__tree_iteratorINS_12__value_typeINS_12basic_stringIcNS_11char_traitsIcEENS_9allocatorIcEEEES8_EEPNS_11__tree_nodeIS9_PvEElEEEC1B8ue170006ESE_, symObjAddr: 0xA238, symBinAddr: 0x10000C59C, symSize: 0x34 }
  - { offsetInCU: 0x3290C, offset: 0x3290C, size: 0x8, addend: 0x0, symName: __ZNSt3__16__treeINS_12__value_typeINS_12basic_stringIcNS_11char_traitsIcEENS_9allocatorIcEEEES7_EENS_19__map_value_compareIS7_S8_NS_4lessIS7_EELb1EEENS5_IS8_EEE30__emplace_hint_unique_key_argsIS7_JRKNS_4pairIKS7_S7_EEEEENSG_INS_15__tree_iteratorIS8_PNS_11__tree_nodeIS8_PvEElEEbEENS_21__tree_const_iteratorIS8_SP_lEERKT_DpOT0_, symObjAddr: 0xA26C, symBinAddr: 0x10000C5D0, symSize: 0x104 }
  - { offsetInCU: 0x329D8, offset: 0x329D8, size: 0x8, addend: 0x0, symName: __ZNSt3__122__tree_key_value_typesINS_12__value_typeINS_12basic_stringIcNS_11char_traitsIcEENS_9allocatorIcEEEES7_EEE9__get_keyB8ue170006IKNS_4pairIKS7_S7_EEEENS_9enable_ifIXsr17__is_same_uncvrefIT_SD_EE5valueERSC_E4typeERSG_, symObjAddr: 0xA370, symBinAddr: 0x10000C6D4, symSize: 0x14 }
  - { offsetInCU: 0x32A05, offset: 0x32A05, size: 0x8, addend: 0x0, symName: __ZNSt3__16__treeINS_12__value_typeINS_12basic_stringIcNS_11char_traitsIcEENS_9allocatorIcEEEES7_EENS_19__map_value_compareIS7_S8_NS_4lessIS7_EELb1EEENS5_IS8_EEE12__find_equalIS7_EERPNS_16__tree_node_baseIPvEENS_21__tree_const_iteratorIS8_PNS_11__tree_nodeIS8_SH_EElEERPNS_15__tree_end_nodeISJ_EESK_RKT_, symObjAddr: 0xA384, symBinAddr: 0x10000C6E8, symSize: 0x304 }
  - { offsetInCU: 0x32AAE, offset: 0x32AAE, size: 0x8, addend: 0x0, symName: __ZNSt3__16__treeINS_12__value_typeINS_12basic_stringIcNS_11char_traitsIcEENS_9allocatorIcEEEES7_EENS_19__map_value_compareIS7_S8_NS_4lessIS7_EELb1EEENS5_IS8_EEE16__construct_nodeIJRKNS_4pairIKS7_S7_EEEEENS_10unique_ptrINS_11__tree_nodeIS8_PvEENS_22__tree_node_destructorINS5_ISO_EEEEEEDpOT_, symObjAddr: 0xA688, symBinAddr: 0x10000C9EC, symSize: 0x110 }
  - { offsetInCU: 0x32B0F, offset: 0x32B0F, size: 0x8, addend: 0x0, symName: __ZNSt3__16__treeINS_12__value_typeINS_12basic_stringIcNS_11char_traitsIcEENS_9allocatorIcEEEES7_EENS_19__map_value_compareIS7_S8_NS_4lessIS7_EELb1EEENS5_IS8_EEE16__insert_node_atEPNS_15__tree_end_nodeIPNS_16__tree_node_baseIPvEEEERSJ_SJ_, symObjAddr: 0xA798, symBinAddr: 0x10000CAFC, symSize: 0xCC }
  - { offsetInCU: 0x32B64, offset: 0x32B64, size: 0x8, addend: 0x0, symName: __ZNKSt3__110unique_ptrINS_11__tree_nodeINS_12__value_typeINS_12basic_stringIcNS_11char_traitsIcEENS_9allocatorIcEEEES8_EEPvEENS_22__tree_node_destructorINS6_ISB_EEEEE3getB8ue170006Ev, symObjAddr: 0xA864, symBinAddr: 0x10000CBC8, symSize: 0x28 }
  - { offsetInCU: 0x32B8A, offset: 0x32B8A, size: 0x8, addend: 0x0, symName: __ZNSt3__110unique_ptrINS_11__tree_nodeINS_12__value_typeINS_12basic_stringIcNS_11char_traitsIcEENS_9allocatorIcEEEES8_EEPvEENS_22__tree_node_destructorINS6_ISB_EEEEE7releaseB8ue170006Ev, symObjAddr: 0xA88C, symBinAddr: 0x10000CBF0, symSize: 0x44 }
  - { offsetInCU: 0x32BBF, offset: 0x32BBF, size: 0x8, addend: 0x0, symName: __ZNSt3__110unique_ptrINS_11__tree_nodeINS_12__value_typeINS_12basic_stringIcNS_11char_traitsIcEENS_9allocatorIcEEEES8_EEPvEENS_22__tree_node_destructorINS6_ISB_EEEEED1B8ue170006Ev, symObjAddr: 0xA8D0, symBinAddr: 0x10000CC34, symSize: 0x2C }
  - { offsetInCU: 0x32BE9, offset: 0x32BE9, size: 0x8, addend: 0x0, symName: __ZNSt3__115__tree_iteratorINS_12__value_typeINS_12basic_stringIcNS_11char_traitsIcEENS_9allocatorIcEEEES7_EEPNS_11__tree_nodeIS8_PvEElEC1B8ue170006ESC_, symObjAddr: 0xA8FC, symBinAddr: 0x10000CC60, symSize: 0x34 }
  - { offsetInCU: 0x32C27, offset: 0x32C27, size: 0x8, addend: 0x0, symName: __ZNSt3__14pairINS_15__tree_iteratorINS_12__value_typeINS_12basic_stringIcNS_11char_traitsIcEENS_9allocatorIcEEEES8_EEPNS_11__tree_nodeIS9_PvEElEEbEC1B8ue170006ISE_RbLSB_0EEEOT_OT0_, symObjAddr: 0xA930, symBinAddr: 0x10000CC94, symSize: 0x3C }
  - { offsetInCU: 0x32C85, offset: 0x32C85, size: 0x8, addend: 0x0, symName: __ZNSt3__16__treeINS_12__value_typeINS_12basic_stringIcNS_11char_traitsIcEENS_9allocatorIcEEEES7_EENS_19__map_value_compareIS7_S8_NS_4lessIS7_EELb1EEENS5_IS8_EEE3endB8ue170006Ev, symObjAddr: 0xA99C, symBinAddr: 0x10000CD00, symSize: 0x34 }
  - { offsetInCU: 0x32CAB, offset: 0x32CAB, size: 0x8, addend: 0x0, symName: __ZNSt3__121__tree_const_iteratorINS_12__value_typeINS_12basic_stringIcNS_11char_traitsIcEENS_9allocatorIcEEEES7_EEPNS_11__tree_nodeIS8_PvEElEC1B8ue170006ENS_15__tree_iteratorIS8_SC_lEE, symObjAddr: 0xA9D0, symBinAddr: 0x10000CD34, symSize: 0x34 }
  - { offsetInCU: 0x32CE4, offset: 0x32CE4, size: 0x8, addend: 0x0, symName: __ZNSt3__16__treeINS_12__value_typeINS_12basic_stringIcNS_11char_traitsIcEENS_9allocatorIcEEEES7_EENS_19__map_value_compareIS7_S8_NS_4lessIS7_EELb1EEENS5_IS8_EEE10value_compB8ue170006Ev, symObjAddr: 0xAA04, symBinAddr: 0x10000CD68, symSize: 0x28 }
  - { offsetInCU: 0x32D0A, offset: 0x32D0A, size: 0x8, addend: 0x0, symName: __ZNKSt3__119__map_value_compareINS_12basic_stringIcNS_11char_traitsIcEENS_9allocatorIcEEEENS_12__value_typeIS6_S6_EENS_4lessIS6_EELb1EEclB8ue170006ERKS6_RKS8_, symObjAddr: 0xAA2C, symBinAddr: 0x10000CD90, symSize: 0x50 }
  - { offsetInCU: 0x32D4E, offset: 0x32D4E, size: 0x8, addend: 0x0, symName: __ZNKSt3__121__tree_const_iteratorINS_12__value_typeINS_12basic_stringIcNS_11char_traitsIcEENS_9allocatorIcEEEES7_EEPNS_11__tree_nodeIS8_PvEElEdeB8ue170006Ev, symObjAddr: 0xAA7C, symBinAddr: 0x10000CDE0, symSize: 0x28 }
  - { offsetInCU: 0x32D74, offset: 0x32D74, size: 0x8, addend: 0x0, symName: __ZNSt3__16__treeINS_12__value_typeINS_12basic_stringIcNS_11char_traitsIcEENS_9allocatorIcEEEES7_EENS_19__map_value_compareIS7_S8_NS_4lessIS7_EELb1EEENS5_IS8_EEE5beginB8ue170006Ev, symObjAddr: 0xAAA4, symBinAddr: 0x10000CE08, symSize: 0x34 }
  - { offsetInCU: 0x32D9A, offset: 0x32D9A, size: 0x8, addend: 0x0, symName: __ZNKSt3__119__map_value_compareINS_12basic_stringIcNS_11char_traitsIcEENS_9allocatorIcEEEENS_12__value_typeIS6_S6_EENS_4lessIS6_EELb1EEclB8ue170006ERKS8_RKS6_, symObjAddr: 0xAAD8, symBinAddr: 0x10000CE3C, symSize: 0x48 }
  - { offsetInCU: 0x32DDE, offset: 0x32DDE, size: 0x8, addend: 0x0, symName: __ZNSt3__121__tree_const_iteratorINS_12__value_typeINS_12basic_stringIcNS_11char_traitsIcEENS_9allocatorIcEEEES7_EEPNS_11__tree_nodeIS8_PvEElEmmB8ue170006Ev, symObjAddr: 0xAB20, symBinAddr: 0x10000CE84, symSize: 0x38 }
  - { offsetInCU: 0x32E04, offset: 0x32E04, size: 0x8, addend: 0x0, symName: __ZNSt3__16__treeINS_12__value_typeINS_12basic_stringIcNS_11char_traitsIcEENS_9allocatorIcEEEES7_EENS_19__map_value_compareIS7_S8_NS_4lessIS7_EELb1EEENS5_IS8_EEE12__find_equalIS7_EERPNS_16__tree_node_baseIPvEERPNS_15__tree_end_nodeISJ_EERKT_, symObjAddr: 0xAB58, symBinAddr: 0x10000CEBC, symSize: 0x184 }
  - { offsetInCU: 0x32E71, offset: 0x32E71, size: 0x8, addend: 0x0, symName: __ZNKSt3__121__tree_const_iteratorINS_12__value_typeINS_12basic_stringIcNS_11char_traitsIcEENS_9allocatorIcEEEES7_EEPNS_11__tree_nodeIS8_PvEElE8__get_npB8ue170006Ev, symObjAddr: 0xAD18, symBinAddr: 0x10000D07C, symSize: 0x18 }
  - { offsetInCU: 0x32E97, offset: 0x32E97, size: 0x8, addend: 0x0, symName: __ZNSt3__115__tree_iteratorINS_12__value_typeINS_12basic_stringIcNS_11char_traitsIcEENS_9allocatorIcEEEES7_EEPNS_11__tree_nodeIS8_PvEElEC1B8ue170006EPNS_15__tree_end_nodeIPNS_16__tree_node_baseISA_EEEE, symObjAddr: 0xAD30, symBinAddr: 0x10000D094, symSize: 0x34 }
  - { offsetInCU: 0x32ED0, offset: 0x32ED0, size: 0x8, addend: 0x0, symName: __ZNSt3__115__tree_iteratorINS_12__value_typeINS_12basic_stringIcNS_11char_traitsIcEENS_9allocatorIcEEEES7_EEPNS_11__tree_nodeIS8_PvEElEC2B8ue170006EPNS_15__tree_end_nodeIPNS_16__tree_node_baseISA_EEEE, symObjAddr: 0xAD64, symBinAddr: 0x10000D0C8, symSize: 0x20 }
  - { offsetInCU: 0x32F09, offset: 0x32F09, size: 0x8, addend: 0x0, symName: __ZNSt3__121__tree_const_iteratorINS_12__value_typeINS_12basic_stringIcNS_11char_traitsIcEENS_9allocatorIcEEEES7_EEPNS_11__tree_nodeIS8_PvEElEC2B8ue170006ENS_15__tree_iteratorIS8_SC_lEE, symObjAddr: 0xAD84, symBinAddr: 0x10000D0E8, symSize: 0x20 }
  - { offsetInCU: 0x32F42, offset: 0x32F42, size: 0x8, addend: 0x0, symName: __ZNSt3__117__compressed_pairImNS_19__map_value_compareINS_12basic_stringIcNS_11char_traitsIcEENS_9allocatorIcEEEENS_12__value_typeIS7_S7_EENS_4lessIS7_EELb1EEEE6secondB8ue170006Ev, symObjAddr: 0xADA4, symBinAddr: 0x10000D108, symSize: 0x24 }
  - { offsetInCU: 0x32F68, offset: 0x32F68, size: 0x8, addend: 0x0, symName: __ZNSt3__122__compressed_pair_elemINS_19__map_value_compareINS_12basic_stringIcNS_11char_traitsIcEENS_9allocatorIcEEEENS_12__value_typeIS7_S7_EENS_4lessIS7_EELb1EEELi1ELb1EE5__getB8ue170006Ev, symObjAddr: 0xADC8, symBinAddr: 0x10000D12C, symSize: 0x14 }
  - { offsetInCU: 0x32F8E, offset: 0x32F8E, size: 0x8, addend: 0x0, symName: __ZNKSt3__112__value_typeINS_12basic_stringIcNS_11char_traitsIcEENS_9allocatorIcEEEES6_E11__get_valueB8ue170006Ev, symObjAddr: 0xADDC, symBinAddr: 0x10000D140, symSize: 0x14 }
  - { offsetInCU: 0x32FB4, offset: 0x32FB4, size: 0x8, addend: 0x0, symName: __ZNKSt3__16__treeINS_12__value_typeINS_12basic_stringIcNS_11char_traitsIcEENS_9allocatorIcEEEES7_EENS_19__map_value_compareIS7_S8_NS_4lessIS7_EELb1EEENS5_IS8_EEE6__rootB8ue170006Ev, symObjAddr: 0xADF0, symBinAddr: 0x10000D154, symSize: 0x28 }
  - { offsetInCU: 0x32FDA, offset: 0x32FDA, size: 0x8, addend: 0x0, symName: __ZNKSt3__16__treeINS_12__value_typeINS_12basic_stringIcNS_11char_traitsIcEENS_9allocatorIcEEEES7_EENS_19__map_value_compareIS7_S8_NS_4lessIS7_EELb1EEENS5_IS8_EEE10__root_ptrB8ue170006Ev, symObjAddr: 0xAE18, symBinAddr: 0x10000D17C, symSize: 0x24 }
  - { offsetInCU: 0x33000, offset: 0x33000, size: 0x8, addend: 0x0, symName: __ZNSt3__121__tree_const_iteratorINS_12__value_typeINS_12basic_stringIcNS_11char_traitsIcEENS_9allocatorIcEEEES7_EEPNS_11__tree_nodeIS8_PvEElEppB8ue170006Ev, symObjAddr: 0xAF18, symBinAddr: 0x10000D27C, symSize: 0x38 }
  - { offsetInCU: 0x33026, offset: 0x33026, size: 0x8, addend: 0x0, symName: __ZNSt3__16__treeINS_12__value_typeINS_12basic_stringIcNS_11char_traitsIcEENS_9allocatorIcEEEES7_EENS_19__map_value_compareIS7_S8_NS_4lessIS7_EELb1EEENS5_IS8_EEE12__node_allocB8ue170006Ev, symObjAddr: 0xAF50, symBinAddr: 0x10000D2B4, symSize: 0x28 }
  - { offsetInCU: 0x3304C, offset: 0x3304C, size: 0x8, addend: 0x0, symName: __ZNSt3__116allocator_traitsINS_9allocatorINS_11__tree_nodeINS_12__value_typeINS_12basic_stringIcNS_11char_traitsIcEENS1_IcEEEES8_EEPvEEEEE8allocateB8ue170006ERSC_m, symObjAddr: 0xAF78, symBinAddr: 0x10000D2DC, symSize: 0x2C }
  - { offsetInCU: 0x3307F, offset: 0x3307F, size: 0x8, addend: 0x0, symName: __ZNSt3__122__tree_node_destructorINS_9allocatorINS_11__tree_nodeINS_12__value_typeINS_12basic_stringIcNS_11char_traitsIcEENS1_IcEEEES8_EEPvEEEEEC1B8ue170006ERSC_b, symObjAddr: 0xAFA4, symBinAddr: 0x10000D308, symSize: 0x48 }
  - { offsetInCU: 0x330CC, offset: 0x330CC, size: 0x8, addend: 0x0, symName: __ZNSt3__110unique_ptrINS_11__tree_nodeINS_12__value_typeINS_12basic_stringIcNS_11char_traitsIcEENS_9allocatorIcEEEES8_EEPvEENS_22__tree_node_destructorINS6_ISB_EEEEEC1B8ue170006ILb1EvEEPSB_NS_16__dependent_typeINS_27__unique_ptr_deleter_sfinaeISE_EEXT_EE20__good_rval_ref_typeE, symObjAddr: 0xAFEC, symBinAddr: 0x10000D350, symSize: 0x3C }
  - { offsetInCU: 0x3311D, offset: 0x3311D, size: 0x8, addend: 0x0, symName: __ZNSt3__116allocator_traitsINS_9allocatorINS_11__tree_nodeINS_12__value_typeINS_12basic_stringIcNS_11char_traitsIcEENS1_IcEEEES8_EEPvEEEEE9constructB8ue170006INS_4pairIKS8_S8_EEJRKSH_EvEEvRSC_PT_DpOT0_, symObjAddr: 0xB028, symBinAddr: 0x10000D38C, symSize: 0x34 }
  - { offsetInCU: 0x33174, offset: 0x33174, size: 0x8, addend: 0x0, symName: __ZNSt3__122__tree_key_value_typesINS_12__value_typeINS_12basic_stringIcNS_11char_traitsIcEENS_9allocatorIcEEEES7_EEE9__get_ptrB8ue170006ERS8_, symObjAddr: 0xB05C, symBinAddr: 0x10000D3C0, symSize: 0x24 }
  - { offsetInCU: 0x33198, offset: 0x33198, size: 0x8, addend: 0x0, symName: __ZNKSt3__110unique_ptrINS_11__tree_nodeINS_12__value_typeINS_12basic_stringIcNS_11char_traitsIcEENS_9allocatorIcEEEES8_EEPvEENS_22__tree_node_destructorINS6_ISB_EEEEEptB8ue170006Ev, symObjAddr: 0xB080, symBinAddr: 0x10000D3E4, symSize: 0x28 }
  - { offsetInCU: 0x331BE, offset: 0x331BE, size: 0x8, addend: 0x0, symName: __ZNSt3__110unique_ptrINS_11__tree_nodeINS_12__value_typeINS_12basic_stringIcNS_11char_traitsIcEENS_9allocatorIcEEEES8_EEPvEENS_22__tree_node_destructorINS6_ISB_EEEEE11get_deleterB8ue170006Ev, symObjAddr: 0xB0A8, symBinAddr: 0x10000D40C, symSize: 0x24 }
  - { offsetInCU: 0x331E4, offset: 0x331E4, size: 0x8, addend: 0x0, symName: __ZNSt3__117__compressed_pairINS_15__tree_end_nodeIPNS_16__tree_node_baseIPvEEEENS_9allocatorINS_11__tree_nodeINS_12__value_typeINS_12basic_stringIcNS_11char_traitsIcEENS7_IcEEEESE_EES3_EEEEE6secondB8ue170006Ev, symObjAddr: 0xB0CC, symBinAddr: 0x10000D430, symSize: 0x24 }
  - { offsetInCU: 0x3320A, offset: 0x3320A, size: 0x8, addend: 0x0, symName: __ZNSt3__122__compressed_pair_elemINS_9allocatorINS_11__tree_nodeINS_12__value_typeINS_12basic_stringIcNS_11char_traitsIcEENS1_IcEEEES8_EEPvEEEELi1ELb1EE5__getB8ue170006Ev, symObjAddr: 0xB0F0, symBinAddr: 0x10000D454, symSize: 0x14 }
  - { offsetInCU: 0x33230, offset: 0x33230, size: 0x8, addend: 0x0, symName: __ZNSt3__19allocatorINS_11__tree_nodeINS_12__value_typeINS_12basic_stringIcNS_11char_traitsIcEENS0_IcEEEES7_EEPvEEE8allocateB8ue170006Em, symObjAddr: 0xB104, symBinAddr: 0x10000D468, symSize: 0x5C }
  - { offsetInCU: 0x3326E, offset: 0x3326E, size: 0x8, addend: 0x0, symName: __ZNSt3__116allocator_traitsINS_9allocatorINS_11__tree_nodeINS_12__value_typeINS_12basic_stringIcNS_11char_traitsIcEENS1_IcEEEES8_EEPvEEEEE8max_sizeB8ue170006ISC_vEEmRKSC_, symObjAddr: 0xB160, symBinAddr: 0x10000D4C4, symSize: 0x24 }
  - { offsetInCU: 0x3329C, offset: 0x3329C, size: 0x8, addend: 0x0, symName: __ZNKSt3__19allocatorINS_11__tree_nodeINS_12__value_typeINS_12basic_stringIcNS_11char_traitsIcEENS0_IcEEEES7_EEPvEEE8max_sizeB8ue170006Ev, symObjAddr: 0xB184, symBinAddr: 0x10000D4E8, symSize: 0x18 }
  - { offsetInCU: 0x332C2, offset: 0x332C2, size: 0x8, addend: 0x0, symName: __ZNSt3__122__tree_node_destructorINS_9allocatorINS_11__tree_nodeINS_12__value_typeINS_12basic_stringIcNS_11char_traitsIcEENS1_IcEEEES8_EEPvEEEEEC2B8ue170006ERSC_b, symObjAddr: 0xB19C, symBinAddr: 0x10000D500, symSize: 0x38 }
  - { offsetInCU: 0x3330A, offset: 0x3330A, size: 0x8, addend: 0x0, symName: __ZNSt3__110unique_ptrINS_11__tree_nodeINS_12__value_typeINS_12basic_stringIcNS_11char_traitsIcEENS_9allocatorIcEEEES8_EEPvEENS_22__tree_node_destructorINS6_ISB_EEEEEC2B8ue170006ILb1EvEEPSB_NS_16__dependent_typeINS_27__unique_ptr_deleter_sfinaeISE_EEXT_EE20__good_rval_ref_typeE, symObjAddr: 0xB1D4, symBinAddr: 0x10000D538, symSize: 0x48 }
  - { offsetInCU: 0x3335B, offset: 0x3335B, size: 0x8, addend: 0x0, symName: __ZNSt3__117__compressed_pairIPNS_11__tree_nodeINS_12__value_typeINS_12basic_stringIcNS_11char_traitsIcEENS_9allocatorIcEEEES8_EEPvEENS_22__tree_node_destructorINS6_ISB_EEEEEC1B8ue170006IRSC_SF_EEOT_OT0_, symObjAddr: 0xB21C, symBinAddr: 0x10000D580, symSize: 0x3C }
  - { offsetInCU: 0x333B3, offset: 0x333B3, size: 0x8, addend: 0x0, symName: __ZNSt3__117__compressed_pairIPNS_11__tree_nodeINS_12__value_typeINS_12basic_stringIcNS_11char_traitsIcEENS_9allocatorIcEEEES8_EEPvEENS_22__tree_node_destructorINS6_ISB_EEEEEC2B8ue170006IRSC_SF_EEOT_OT0_, symObjAddr: 0xB258, symBinAddr: 0x10000D5BC, symSize: 0x48 }
  - { offsetInCU: 0x3340B, offset: 0x3340B, size: 0x8, addend: 0x0, symName: __ZNSt3__122__compressed_pair_elemIPNS_11__tree_nodeINS_12__value_typeINS_12basic_stringIcNS_11char_traitsIcEENS_9allocatorIcEEEES8_EEPvEELi0ELb0EEC2B8ue170006IRSC_vEEOT_, symObjAddr: 0xB2A0, symBinAddr: 0x10000D604, symSize: 0x24 }
  - { offsetInCU: 0x3344D, offset: 0x3344D, size: 0x8, addend: 0x0, symName: __ZNSt3__122__compressed_pair_elemINS_22__tree_node_destructorINS_9allocatorINS_11__tree_nodeINS_12__value_typeINS_12basic_stringIcNS_11char_traitsIcEENS2_IcEEEES9_EEPvEEEEEELi1ELb0EEC2B8ue170006ISE_vEEOT_, symObjAddr: 0xB2C4, symBinAddr: 0x10000D628, symSize: 0x24 }
  - { offsetInCU: 0x3348F, offset: 0x3348F, size: 0x8, addend: 0x0, symName: __ZNSt3__19allocatorINS_11__tree_nodeINS_12__value_typeINS_12basic_stringIcNS_11char_traitsIcEENS0_IcEEEES7_EEPvEEE9constructB8ue170006INS_4pairIKS7_S7_EEJRKSF_EEEvPT_DpOT0_, symObjAddr: 0xB2E8, symBinAddr: 0x10000D64C, symSize: 0x30 }
  - { offsetInCU: 0x334E5, offset: 0x334E5, size: 0x8, addend: 0x0, symName: __ZNSt3__14pairIKNS_12basic_stringIcNS_11char_traitsIcEENS_9allocatorIcEEEES6_EC1B8ue170006ERKS8_, symObjAddr: 0xB318, symBinAddr: 0x10000D67C, symSize: 0x34 }
  - { offsetInCU: 0x33519, offset: 0x33519, size: 0x8, addend: 0x0, symName: __ZNSt3__14pairIKNS_12basic_stringIcNS_11char_traitsIcEENS_9allocatorIcEEEES6_EC2B8ue170006ERKS8_, symObjAddr: 0xB34C, symBinAddr: 0x10000D6B0, symSize: 0x70 }
  - { offsetInCU: 0x3354D, offset: 0x3354D, size: 0x8, addend: 0x0, symName: __ZNSt3__112__value_typeINS_12basic_stringIcNS_11char_traitsIcEENS_9allocatorIcEEEES6_E11__get_valueB8ue170006Ev, symObjAddr: 0xB3BC, symBinAddr: 0x10000D720, symSize: 0x14 }
  - { offsetInCU: 0x33573, offset: 0x33573, size: 0x8, addend: 0x0, symName: __ZNKSt3__117__compressed_pairIPNS_11__tree_nodeINS_12__value_typeINS_12basic_stringIcNS_11char_traitsIcEENS_9allocatorIcEEEES8_EEPvEENS_22__tree_node_destructorINS6_ISB_EEEEE5firstB8ue170006Ev, symObjAddr: 0xB3D0, symBinAddr: 0x10000D734, symSize: 0x24 }
  - { offsetInCU: 0x33599, offset: 0x33599, size: 0x8, addend: 0x0, symName: __ZNKSt3__122__compressed_pair_elemIPNS_11__tree_nodeINS_12__value_typeINS_12basic_stringIcNS_11char_traitsIcEENS_9allocatorIcEEEES8_EEPvEELi0ELb0EE5__getB8ue170006Ev, symObjAddr: 0xB3F4, symBinAddr: 0x10000D758, symSize: 0x14 }
  - { offsetInCU: 0x335BF, offset: 0x335BF, size: 0x8, addend: 0x0, symName: __ZNSt3__117__compressed_pairIPNS_11__tree_nodeINS_12__value_typeINS_12basic_stringIcNS_11char_traitsIcEENS_9allocatorIcEEEES8_EEPvEENS_22__tree_node_destructorINS6_ISB_EEEEE6secondB8ue170006Ev, symObjAddr: 0xB408, symBinAddr: 0x10000D76C, symSize: 0x28 }
  - { offsetInCU: 0x335E5, offset: 0x335E5, size: 0x8, addend: 0x0, symName: __ZNSt3__122__compressed_pair_elemINS_22__tree_node_destructorINS_9allocatorINS_11__tree_nodeINS_12__value_typeINS_12basic_stringIcNS_11char_traitsIcEENS2_IcEEEES9_EEPvEEEEEELi1ELb0EE5__getB8ue170006Ev, symObjAddr: 0xB430, symBinAddr: 0x10000D794, symSize: 0x14 }
  - { offsetInCU: 0x3360B, offset: 0x3360B, size: 0x8, addend: 0x0, symName: __ZNSt3__16__treeINS_12__value_typeINS_12basic_stringIcNS_11char_traitsIcEENS_9allocatorIcEEEES7_EENS_19__map_value_compareIS7_S8_NS_4lessIS7_EELb1EEENS5_IS8_EEE4sizeB8ue170006Ev, symObjAddr: 0xB444, symBinAddr: 0x10000D7A8, symSize: 0x28 }
  - { offsetInCU: 0x33631, offset: 0x33631, size: 0x8, addend: 0x0, symName: __ZNSt3__117__compressed_pairImNS_19__map_value_compareINS_12basic_stringIcNS_11char_traitsIcEENS_9allocatorIcEEEENS_12__value_typeIS7_S7_EENS_4lessIS7_EELb1EEEE5firstB8ue170006Ev, symObjAddr: 0xB46C, symBinAddr: 0x10000D7D0, symSize: 0x24 }
  - { offsetInCU: 0x33657, offset: 0x33657, size: 0x8, addend: 0x0, symName: __ZNSt3__117__compressed_pairIPNS_11__tree_nodeINS_12__value_typeINS_12basic_stringIcNS_11char_traitsIcEENS_9allocatorIcEEEES8_EEPvEENS_22__tree_node_destructorINS6_ISB_EEEEE5firstB8ue170006Ev, symObjAddr: 0xB490, symBinAddr: 0x10000D7F4, symSize: 0x24 }
  - { offsetInCU: 0x3367D, offset: 0x3367D, size: 0x8, addend: 0x0, symName: __ZNSt3__122__compressed_pair_elemIPNS_11__tree_nodeINS_12__value_typeINS_12basic_stringIcNS_11char_traitsIcEENS_9allocatorIcEEEES8_EEPvEELi0ELb0EE5__getB8ue170006Ev, symObjAddr: 0xB4B4, symBinAddr: 0x10000D818, symSize: 0x14 }
  - { offsetInCU: 0x336A3, offset: 0x336A3, size: 0x8, addend: 0x0, symName: __ZNSt3__110unique_ptrINS_11__tree_nodeINS_12__value_typeINS_12basic_stringIcNS_11char_traitsIcEENS_9allocatorIcEEEES8_EEPvEENS_22__tree_node_destructorINS6_ISB_EEEEED2B8ue170006Ev, symObjAddr: 0xB4C8, symBinAddr: 0x10000D82C, symSize: 0x30 }
  - { offsetInCU: 0x336CD, offset: 0x336CD, size: 0x8, addend: 0x0, symName: __ZNSt3__110unique_ptrINS_11__tree_nodeINS_12__value_typeINS_12basic_stringIcNS_11char_traitsIcEENS_9allocatorIcEEEES8_EEPvEENS_22__tree_node_destructorINS6_ISB_EEEEE5resetB8ue170006EPSB_, symObjAddr: 0xB4F8, symBinAddr: 0x10000D85C, symSize: 0x78 }
  - { offsetInCU: 0x33711, offset: 0x33711, size: 0x8, addend: 0x0, symName: __ZNSt3__122__tree_node_destructorINS_9allocatorINS_11__tree_nodeINS_12__value_typeINS_12basic_stringIcNS_11char_traitsIcEENS1_IcEEEES8_EEPvEEEEEclB8ue170006EPSB_, symObjAddr: 0xB570, symBinAddr: 0x10000D8D4, symSize: 0x98 }
  - { offsetInCU: 0x33746, offset: 0x33746, size: 0x8, addend: 0x0, symName: __ZNSt3__116allocator_traitsINS_9allocatorINS_11__tree_nodeINS_12__value_typeINS_12basic_stringIcNS_11char_traitsIcEENS1_IcEEEES8_EEPvEEEEE7destroyB8ue170006INS_4pairIKS8_S8_EEvvEEvRSC_PT_, symObjAddr: 0xB608, symBinAddr: 0x10000D96C, symSize: 0x28 }
  - { offsetInCU: 0x33781, offset: 0x33781, size: 0x8, addend: 0x0, symName: __ZNSt3__116allocator_traitsINS_9allocatorINS_11__tree_nodeINS_12__value_typeINS_12basic_stringIcNS_11char_traitsIcEENS1_IcEEEES8_EEPvEEEEE10deallocateB8ue170006ERSC_PSB_m, symObjAddr: 0xB630, symBinAddr: 0x10000D994, symSize: 0x34 }
  - { offsetInCU: 0x337C3, offset: 0x337C3, size: 0x8, addend: 0x0, symName: __ZNSt3__19allocatorINS_11__tree_nodeINS_12__value_typeINS_12basic_stringIcNS_11char_traitsIcEENS0_IcEEEES7_EEPvEEE10deallocateB8ue170006EPSA_m, symObjAddr: 0xB664, symBinAddr: 0x10000D9C8, symSize: 0x44 }
  - { offsetInCU: 0x33805, offset: 0x33805, size: 0x8, addend: 0x0, symName: __ZNSt3__115__tree_iteratorINS_12__value_typeINS_12basic_stringIcNS_11char_traitsIcEENS_9allocatorIcEEEES7_EEPNS_11__tree_nodeIS8_PvEElEC2B8ue170006ESC_, symObjAddr: 0xB6A8, symBinAddr: 0x10000DA0C, symSize: 0x20 }
  - { offsetInCU: 0x3383E, offset: 0x3383E, size: 0x8, addend: 0x0, symName: __ZNSt3__14pairINS_15__tree_iteratorINS_12__value_typeINS_12basic_stringIcNS_11char_traitsIcEENS_9allocatorIcEEEES8_EEPNS_11__tree_nodeIS9_PvEElEEbEC2B8ue170006ISE_RbLSB_0EEEOT_OT0_, symObjAddr: 0xB6C8, symBinAddr: 0x10000DA2C, symSize: 0x38 }
  - { offsetInCU: 0x3389C, offset: 0x3389C, size: 0x8, addend: 0x0, symName: __ZNSt3__114__map_iteratorINS_15__tree_iteratorINS_12__value_typeINS_12basic_stringIcNS_11char_traitsIcEENS_9allocatorIcEEEES8_EEPNS_11__tree_nodeIS9_PvEElEEEC2B8ue170006ESE_, symObjAddr: 0xB700, symBinAddr: 0x10000DA64, symSize: 0x20 }
  - { offsetInCU: 0x338D5, offset: 0x338D5, size: 0x8, addend: 0x0, symName: __ZNSt3__120__map_const_iteratorINS_21__tree_const_iteratorINS_12__value_typeINS_12basic_stringIcNS_11char_traitsIcEENS_9allocatorIcEEEES8_EEPNS_11__tree_nodeIS9_PvEElEEEC2B8ue170006ESE_, symObjAddr: 0xB720, symBinAddr: 0x10000DA84, symSize: 0x20 }
  - { offsetInCU: 0x3390E, offset: 0x3390E, size: 0x8, addend: 0x0, symName: __ZNSt3__16__treeINS_12__value_typeINS_12basic_stringIcNS_11char_traitsIcEENS_9allocatorIcEEEES7_EENS_19__map_value_compareIS7_S8_NS_4lessIS7_EELb1EEENS5_IS8_EEED2Ev, symObjAddr: 0xB740, symBinAddr: 0x10000DAA4, symSize: 0x38 }
  - { offsetInCU: 0x3393A, offset: 0x3393A, size: 0x8, addend: 0x0, symName: __ZNSt3__16__treeINS_12__value_typeINS_12basic_stringIcNS_11char_traitsIcEENS_9allocatorIcEEEES7_EENS_19__map_value_compareIS7_S8_NS_4lessIS7_EELb1EEENS5_IS8_EEE7destroyEPNS_11__tree_nodeIS8_PvEE, symObjAddr: 0xB778, symBinAddr: 0x10000DADC, symSize: 0xA8 }
  - { offsetInCU: 0x33986, offset: 0x33986, size: 0x8, addend: 0x0, symName: __ZNSt3__13mapINS_12basic_stringIcNS_11char_traitsIcEENS_9allocatorIcEEEES6_NS_4lessIS6_EENS4_INS_4pairIKS6_S6_EEEEED2B8ue170006Ev, symObjAddr: 0xB820, symBinAddr: 0x10000DB84, symSize: 0x2C }
  - { offsetInCU: 0x339B0, offset: 0x339B0, size: 0x8, addend: 0x0, symName: __ZNSt3__16__treeINS_12__value_typeINS_12basic_stringIcNS_11char_traitsIcEENS_9allocatorIcEEEES7_EENS_19__map_value_compareIS7_S8_NS_4lessIS7_EELb1EEENS5_IS8_EEE4findIS7_EENS_15__tree_iteratorIS8_PNS_11__tree_nodeIS8_PvEElEERKT_, symObjAddr: 0xB84C, symBinAddr: 0x10000DBB0, symSize: 0xF8 }
  - { offsetInCU: 0x339FF, offset: 0x339FF, size: 0x8, addend: 0x0, symName: __ZNSt3__16__treeINS_12__value_typeINS_12basic_stringIcNS_11char_traitsIcEENS_9allocatorIcEEEES7_EENS_19__map_value_compareIS7_S8_NS_4lessIS7_EELb1EEENS5_IS8_EEE13__lower_boundIS7_EENS_15__tree_iteratorIS8_PNS_11__tree_nodeIS8_PvEElEERKT_SK_PNS_15__tree_end_nodeIPNS_16__tree_node_baseISI_EEEE, symObjAddr: 0xB944, symBinAddr: 0x10000DCA8, symSize: 0xA4 }
  - { offsetInCU: 0x33A5D, offset: 0x33A5D, size: 0x8, addend: 0x0, symName: __ZNKSt3__115__tree_iteratorINS_12__value_typeINS_12basic_stringIcNS_11char_traitsIcEENS_9allocatorIcEEEES7_EEPNS_11__tree_nodeIS8_PvEElEdeB8ue170006Ev, symObjAddr: 0xBA1C, symBinAddr: 0x10000DD80, symSize: 0x28 }
  - { offsetInCU: 0x33A83, offset: 0x33A83, size: 0x8, addend: 0x0, symName: __ZNKSt3__115__tree_iteratorINS_12__value_typeINS_12basic_stringIcNS_11char_traitsIcEENS_9allocatorIcEEEES7_EEPNS_11__tree_nodeIS8_PvEElE8__get_npB8ue170006Ev, symObjAddr: 0xBA74, symBinAddr: 0x10000DDD8, symSize: 0x18 }
  - { offsetInCU: 0x33AA9, offset: 0x33AA9, size: 0x8, addend: 0x0, symName: __ZNSt3__16__treeINS_12__value_typeINS_12basic_stringIcNS_11char_traitsIcEENS_9allocatorIcEEEES7_EENS_19__map_value_compareIS7_S8_NS_4lessIS7_EELb1EEENS5_IS8_EEE25__emplace_unique_key_argsIS7_JRKNS_21piecewise_construct_tENS_5tupleIJRKS7_EEENSJ_IJEEEEEENS_4pairINS_15__tree_iteratorIS8_PNS_11__tree_nodeIS8_PvEElEEbEERKT_DpOT0_, symObjAddr: 0xBA8C, symBinAddr: 0x10000DDF0, symSize: 0x100 }
  - { offsetInCU: 0x33B7F, offset: 0x33B7F, size: 0x8, addend: 0x0, symName: __ZNKSt3__115__tree_iteratorINS_12__value_typeINS_12basic_stringIcNS_11char_traitsIcEENS_9allocatorIcEEEES7_EEPNS_11__tree_nodeIS8_PvEElEptB8ue170006Ev, symObjAddr: 0xBB8C, symBinAddr: 0x10000DEF0, symSize: 0x2C }
  - { offsetInCU: 0x33BA5, offset: 0x33BA5, size: 0x8, addend: 0x0, symName: __ZNSt3__16__treeINS_12__value_typeINS_12basic_stringIcNS_11char_traitsIcEENS_9allocatorIcEEEES7_EENS_19__map_value_compareIS7_S8_NS_4lessIS7_EELb1EEENS5_IS8_EEE16__construct_nodeIJRKNS_21piecewise_construct_tENS_5tupleIJRKS7_EEENSJ_IJEEEEEENS_10unique_ptrINS_11__tree_nodeIS8_PvEENS_22__tree_node_destructorINS5_ISR_EEEEEEDpOT_, symObjAddr: 0xBBB8, symBinAddr: 0x10000DF1C, symSize: 0x120 }
  - { offsetInCU: 0x33C2E, offset: 0x33C2E, size: 0x8, addend: 0x0, symName: __ZNSt3__116allocator_traitsINS_9allocatorINS_11__tree_nodeINS_12__value_typeINS_12basic_stringIcNS_11char_traitsIcEENS1_IcEEEES8_EEPvEEEEE9constructB8ue170006INS_4pairIKS8_S8_EEJRKNS_21piecewise_construct_tENS_5tupleIJRSG_EEENSL_IJEEEEvEEvRSC_PT_DpOT0_, symObjAddr: 0xBCD8, symBinAddr: 0x10000E03C, symSize: 0x44 }
  - { offsetInCU: 0x33CAD, offset: 0x33CAD, size: 0x8, addend: 0x0, symName: __ZNSt3__19allocatorINS_11__tree_nodeINS_12__value_typeINS_12basic_stringIcNS_11char_traitsIcEENS0_IcEEEES7_EEPvEEE9constructB8ue170006INS_4pairIKS7_S7_EEJRKNS_21piecewise_construct_tENS_5tupleIJRSE_EEENSJ_IJEEEEEEvPT_DpOT0_, symObjAddr: 0xBD1C, symBinAddr: 0x10000E080, symSize: 0x44 }
  - { offsetInCU: 0x33D29, offset: 0x33D29, size: 0x8, addend: 0x0, symName: __ZNSt3__14pairIKNS_12basic_stringIcNS_11char_traitsIcEENS_9allocatorIcEEEES6_EC1B8ue170006IJRS7_EJEEENS_21piecewise_construct_tENS_5tupleIJDpT_EEENSC_IJDpT0_EEE, symObjAddr: 0xBD60, symBinAddr: 0x10000E0C4, symSize: 0x3C }
  - { offsetInCU: 0x33D90, offset: 0x33D90, size: 0x8, addend: 0x0, symName: __ZNSt3__14pairIKNS_12basic_stringIcNS_11char_traitsIcEENS_9allocatorIcEEEES6_EC1B8ue170006IJRS7_EJEJLm0EEJEEENS_21piecewise_construct_tERNS_5tupleIJDpT_EEERNSC_IJDpT0_EEENS_15__tuple_indicesIJXspT1_EEEENSL_IJXspT2_EEEE, symObjAddr: 0xBD9C, symBinAddr: 0x10000E100, symSize: 0x3C }
  - { offsetInCU: 0x33E20, offset: 0x33E20, size: 0x8, addend: 0x0, symName: __ZNSt3__14pairIKNS_12basic_stringIcNS_11char_traitsIcEENS_9allocatorIcEEEES6_EC2B8ue170006IJRS7_EJEJLm0EEJEEENS_21piecewise_construct_tERNS_5tupleIJDpT_EEERNSC_IJDpT0_EEENS_15__tuple_indicesIJXspT1_EEEENSL_IJXspT2_EEEE, symObjAddr: 0xBDD8, symBinAddr: 0x10000E13C, symSize: 0x50 }
  - { offsetInCU: 0x33EB0, offset: 0x33EB0, size: 0x8, addend: 0x0, symName: __ZNSt3__114pointer_traitsIPNS_12__value_typeINS_12basic_stringIcNS_11char_traitsIcEENS_9allocatorIcEEEES7_EEE10pointer_toB8ue170006ERS8_, symObjAddr: 0xBE28, symBinAddr: 0x10000E18C, symSize: 0x14 }
  - { offsetInCU: 0x33ED3, offset: 0x33ED3, size: 0x8, addend: 0x0, symName: __ZNSt3__14pairIKNS_12basic_stringIcNS_11char_traitsIcEENS_9allocatorIcEEEEN2cv7Scalar_IdEEEC2B8ue170006IRA6_KcSA_LPv0EEEOT_OT0_, symObjAddr: 0xBE3C, symBinAddr: 0x10000E1A0, symSize: 0x48 }
  - { offsetInCU: 0x33F31, offset: 0x33F31, size: 0x8, addend: 0x0, symName: __ZN2cv7Scalar_IdEC1EOS1_, symObjAddr: 0xBE84, symBinAddr: 0x10000E1E8, symSize: 0x34 }
  - { offsetInCU: 0x33F6C, offset: 0x33F6C, size: 0x8, addend: 0x0, symName: __ZN2cv7Scalar_IdEC2EOS1_, symObjAddr: 0xBEB8, symBinAddr: 0x10000E21C, symSize: 0x68 }
  - { offsetInCU: 0x33FA7, offset: 0x33FA7, size: 0x8, addend: 0x0, symName: __ZNSt3__14pairIKNS_12basic_stringIcNS_11char_traitsIcEENS_9allocatorIcEEEEN2cv7Scalar_IdEEEC2B8ue170006IRA4_KcSA_LPv0EEEOT_OT0_, symObjAddr: 0xBF20, symBinAddr: 0x10000E284, symSize: 0x48 }
  - { offsetInCU: 0x34005, offset: 0x34005, size: 0x8, addend: 0x0, symName: __ZNSt3__14pairIKNS_12basic_stringIcNS_11char_traitsIcEENS_9allocatorIcEEEEN2cv7Scalar_IdEEEC2B8ue170006IRA7_KcSA_LPv0EEEOT_OT0_, symObjAddr: 0xBF68, symBinAddr: 0x10000E2CC, symSize: 0x48 }
  - { offsetInCU: 0x34063, offset: 0x34063, size: 0x8, addend: 0x0, symName: __ZNSt3__14pairIKNS_12basic_stringIcNS_11char_traitsIcEENS_9allocatorIcEEEEN2cv7Scalar_IdEEEC2B8ue170006IRA5_KcSA_LPv0EEEOT_OT0_, symObjAddr: 0xBFB0, symBinAddr: 0x10000E314, symSize: 0x48 }
  - { offsetInCU: 0x340C1, offset: 0x340C1, size: 0x8, addend: 0x0, symName: __ZNSt3__13mapINS_12basic_stringIcNS_11char_traitsIcEENS_9allocatorIcEEEEN2cv7Scalar_IdEENS_4lessIS6_EENS4_INS_4pairIKS6_S9_EEEEEC2B8ue170006ESt16initializer_listISE_ERKSB_, symObjAddr: 0xBFF8, symBinAddr: 0x10000E35C, symSize: 0xA4 }
  - { offsetInCU: 0x34109, offset: 0x34109, size: 0x8, addend: 0x0, symName: __ZNSt3__119__map_value_compareINS_12basic_stringIcNS_11char_traitsIcEENS_9allocatorIcEEEENS_12__value_typeIS6_N2cv7Scalar_IdEEEENS_4lessIS6_EELb1EEC1B8ue170006ESD_, symObjAddr: 0xC09C, symBinAddr: 0x10000E400, symSize: 0x2C }
  - { offsetInCU: 0x34142, offset: 0x34142, size: 0x8, addend: 0x0, symName: __ZNSt3__16__treeINS_12__value_typeINS_12basic_stringIcNS_11char_traitsIcEENS_9allocatorIcEEEEN2cv7Scalar_IdEEEENS_19__map_value_compareIS7_SB_NS_4lessIS7_EELb1EEENS5_ISB_EEEC1ERKSF_, symObjAddr: 0xC0C8, symBinAddr: 0x10000E42C, symSize: 0x34 }
  - { offsetInCU: 0x3417D, offset: 0x3417D, size: 0x8, addend: 0x0, symName: __ZNSt3__13mapINS_12basic_stringIcNS_11char_traitsIcEENS_9allocatorIcEEEEN2cv7Scalar_IdEENS_4lessIS6_EENS4_INS_4pairIKS6_S9_EEEEE6insertB8ue170006IPKSE_EEvT_SK_, symObjAddr: 0xC0FC, symBinAddr: 0x10000E460, symSize: 0x8C }
  - { offsetInCU: 0x341E7, offset: 0x341E7, size: 0x8, addend: 0x0, symName: __ZNKSt16initializer_listINSt3__14pairIKNS0_12basic_stringIcNS0_11char_traitsIcEENS0_9allocatorIcEEEEN2cv7Scalar_IdEEEEE5beginB8ue170006Ev, symObjAddr: 0xC188, symBinAddr: 0x10000E4EC, symSize: 0x18 }
  - { offsetInCU: 0x3420D, offset: 0x3420D, size: 0x8, addend: 0x0, symName: __ZNKSt16initializer_listINSt3__14pairIKNS0_12basic_stringIcNS0_11char_traitsIcEENS0_9allocatorIcEEEEN2cv7Scalar_IdEEEEE3endB8ue170006Ev, symObjAddr: 0xC1A0, symBinAddr: 0x10000E504, symSize: 0x28 }
  - { offsetInCU: 0x34233, offset: 0x34233, size: 0x8, addend: 0x0, symName: __ZNSt3__16__treeINS_12__value_typeINS_12basic_stringIcNS_11char_traitsIcEENS_9allocatorIcEEEEN2cv7Scalar_IdEEEENS_19__map_value_compareIS7_SB_NS_4lessIS7_EELb1EEENS5_ISB_EEED1Ev, symObjAddr: 0xC1C8, symBinAddr: 0x10000E52C, symSize: 0x2C }
  - { offsetInCU: 0x3425F, offset: 0x3425F, size: 0x8, addend: 0x0, symName: __ZNSt3__119__map_value_compareINS_12basic_stringIcNS_11char_traitsIcEENS_9allocatorIcEEEENS_12__value_typeIS6_N2cv7Scalar_IdEEEENS_4lessIS6_EELb1EEC2B8ue170006ESD_, symObjAddr: 0xC1F4, symBinAddr: 0x10000E558, symSize: 0x14 }
  - { offsetInCU: 0x34298, offset: 0x34298, size: 0x8, addend: 0x0, symName: __ZNSt3__16__treeINS_12__value_typeINS_12basic_stringIcNS_11char_traitsIcEENS_9allocatorIcEEEEN2cv7Scalar_IdEEEENS_19__map_value_compareIS7_SB_NS_4lessIS7_EELb1EEENS5_ISB_EEEC2ERKSF_, symObjAddr: 0xC208, symBinAddr: 0x10000E56C, symSize: 0x7C }
  - { offsetInCU: 0x342D3, offset: 0x342D3, size: 0x8, addend: 0x0, symName: __ZNSt3__117__compressed_pairINS_15__tree_end_nodeIPNS_16__tree_node_baseIPvEEEENS_9allocatorINS_11__tree_nodeINS_12__value_typeINS_12basic_stringIcNS_11char_traitsIcEENS7_IcEEEEN2cv7Scalar_IdEEEES3_EEEEEC1B8ue170006ILb1EvEEv, symObjAddr: 0xC284, symBinAddr: 0x10000E5E8, symSize: 0x2C }
  - { offsetInCU: 0x34308, offset: 0x34308, size: 0x8, addend: 0x0, symName: __ZNSt3__117__compressed_pairImNS_19__map_value_compareINS_12basic_stringIcNS_11char_traitsIcEENS_9allocatorIcEEEENS_12__value_typeIS7_N2cv7Scalar_IdEEEENS_4lessIS7_EELb1EEEEC1B8ue170006IiRKSF_EEOT_OT0_, symObjAddr: 0xC2B0, symBinAddr: 0x10000E614, symSize: 0x3C }
  - { offsetInCU: 0x34360, offset: 0x34360, size: 0x8, addend: 0x0, symName: __ZNSt3__16__treeINS_12__value_typeINS_12basic_stringIcNS_11char_traitsIcEENS_9allocatorIcEEEEN2cv7Scalar_IdEEEENS_19__map_value_compareIS7_SB_NS_4lessIS7_EELb1EEENS5_ISB_EEE10__end_nodeB8ue170006Ev, symObjAddr: 0xC2EC, symBinAddr: 0x10000E650, symSize: 0x2C }
  - { offsetInCU: 0x34386, offset: 0x34386, size: 0x8, addend: 0x0, symName: __ZNSt3__16__treeINS_12__value_typeINS_12basic_stringIcNS_11char_traitsIcEENS_9allocatorIcEEEEN2cv7Scalar_IdEEEENS_19__map_value_compareIS7_SB_NS_4lessIS7_EELb1EEENS5_ISB_EEE12__begin_nodeB8ue170006Ev, symObjAddr: 0xC318, symBinAddr: 0x10000E67C, symSize: 0x14 }
  - { offsetInCU: 0x343AC, offset: 0x343AC, size: 0x8, addend: 0x0, symName: __ZNSt3__117__compressed_pairINS_15__tree_end_nodeIPNS_16__tree_node_baseIPvEEEENS_9allocatorINS_11__tree_nodeINS_12__value_typeINS_12basic_stringIcNS_11char_traitsIcEENS7_IcEEEEN2cv7Scalar_IdEEEES3_EEEEEC2B8ue170006ILb1EvEEv, symObjAddr: 0xC32C, symBinAddr: 0x10000E690, symSize: 0x34 }
  - { offsetInCU: 0x343E1, offset: 0x343E1, size: 0x8, addend: 0x0, symName: __ZNSt3__122__compressed_pair_elemINS_9allocatorINS_11__tree_nodeINS_12__value_typeINS_12basic_stringIcNS_11char_traitsIcEENS1_IcEEEEN2cv7Scalar_IdEEEEPvEEEELi1ELb1EEC2B8ue170006ENS_16__value_init_tagE, symObjAddr: 0xC360, symBinAddr: 0x10000E6C4, symSize: 0x2C }
  - { offsetInCU: 0x34415, offset: 0x34415, size: 0x8, addend: 0x0, symName: __ZNSt3__19allocatorINS_11__tree_nodeINS_12__value_typeINS_12basic_stringIcNS_11char_traitsIcEENS0_IcEEEEN2cv7Scalar_IdEEEEPvEEEC2B8ue170006Ev, symObjAddr: 0xC38C, symBinAddr: 0x10000E6F0, symSize: 0x2C }
  - { offsetInCU: 0x3443F, offset: 0x3443F, size: 0x8, addend: 0x0, symName: __ZNSt3__116__non_trivial_ifILb1ENS_9allocatorINS_11__tree_nodeINS_12__value_typeINS_12basic_stringIcNS_11char_traitsIcEENS1_IcEEEEN2cv7Scalar_IdEEEEPvEEEEEC2B8ue170006Ev, symObjAddr: 0xC3B8, symBinAddr: 0x10000E71C, symSize: 0x14 }
  - { offsetInCU: 0x34469, offset: 0x34469, size: 0x8, addend: 0x0, symName: __ZNSt3__117__compressed_pairImNS_19__map_value_compareINS_12basic_stringIcNS_11char_traitsIcEENS_9allocatorIcEEEENS_12__value_typeIS7_N2cv7Scalar_IdEEEENS_4lessIS7_EELb1EEEEC2B8ue170006IiRKSF_EEOT_OT0_, symObjAddr: 0xC3CC, symBinAddr: 0x10000E730, symSize: 0x44 }
  - { offsetInCU: 0x344C1, offset: 0x344C1, size: 0x8, addend: 0x0, symName: __ZNSt3__122__compressed_pair_elemINS_19__map_value_compareINS_12basic_stringIcNS_11char_traitsIcEENS_9allocatorIcEEEENS_12__value_typeIS7_N2cv7Scalar_IdEEEENS_4lessIS7_EELb1EEELi1ELb1EEC2B8ue170006IRKSF_vEEOT_, symObjAddr: 0xC410, symBinAddr: 0x10000E774, symSize: 0x18 }
  - { offsetInCU: 0x34503, offset: 0x34503, size: 0x8, addend: 0x0, symName: __ZNSt3__117__compressed_pairINS_15__tree_end_nodeIPNS_16__tree_node_baseIPvEEEENS_9allocatorINS_11__tree_nodeINS_12__value_typeINS_12basic_stringIcNS_11char_traitsIcEENS7_IcEEEEN2cv7Scalar_IdEEEES3_EEEEE5firstB8ue170006Ev, symObjAddr: 0xC428, symBinAddr: 0x10000E78C, symSize: 0x24 }
  - { offsetInCU: 0x34529, offset: 0x34529, size: 0x8, addend: 0x0, symName: __ZNKSt3__13mapINS_12basic_stringIcNS_11char_traitsIcEENS_9allocatorIcEEEEN2cv7Scalar_IdEENS_4lessIS6_EENS4_INS_4pairIKS6_S9_EEEEE4cendB8ue170006Ev, symObjAddr: 0xC44C, symBinAddr: 0x10000E7B0, symSize: 0x2C }
  - { offsetInCU: 0x3454F, offset: 0x3454F, size: 0x8, addend: 0x0, symName: __ZNSt3__13mapINS_12basic_stringIcNS_11char_traitsIcEENS_9allocatorIcEEEEN2cv7Scalar_IdEENS_4lessIS6_EENS4_INS_4pairIKS6_S9_EEEEE6insertB8ue170006ENS_20__map_const_iteratorINS_21__tree_const_iteratorINS_12__value_typeIS6_S9_EEPNS_11__tree_nodeISK_PvEElEEEERKSE_, symObjAddr: 0xC478, symBinAddr: 0x10000E7DC, symSize: 0x50 }
  - { offsetInCU: 0x34593, offset: 0x34593, size: 0x8, addend: 0x0, symName: __ZNSt3__120__map_const_iteratorINS_21__tree_const_iteratorINS_12__value_typeINS_12basic_stringIcNS_11char_traitsIcEENS_9allocatorIcEEEEN2cv7Scalar_IdEEEEPNS_11__tree_nodeISC_PvEElEEEC1B8ue170006ESH_, symObjAddr: 0xC4C8, symBinAddr: 0x10000E82C, symSize: 0x34 }
  - { offsetInCU: 0x345CC, offset: 0x345CC, size: 0x8, addend: 0x0, symName: __ZNKSt3__13mapINS_12basic_stringIcNS_11char_traitsIcEENS_9allocatorIcEEEEN2cv7Scalar_IdEENS_4lessIS6_EENS4_INS_4pairIKS6_S9_EEEEE3endB8ue170006Ev, symObjAddr: 0xC4FC, symBinAddr: 0x10000E860, symSize: 0x38 }
  - { offsetInCU: 0x345F2, offset: 0x345F2, size: 0x8, addend: 0x0, symName: __ZNKSt3__16__treeINS_12__value_typeINS_12basic_stringIcNS_11char_traitsIcEENS_9allocatorIcEEEEN2cv7Scalar_IdEEEENS_19__map_value_compareIS7_SB_NS_4lessIS7_EELb1EEENS5_ISB_EEE3endB8ue170006Ev, symObjAddr: 0xC534, symBinAddr: 0x10000E898, symSize: 0x34 }
  - { offsetInCU: 0x34618, offset: 0x34618, size: 0x8, addend: 0x0, symName: __ZNKSt3__16__treeINS_12__value_typeINS_12basic_stringIcNS_11char_traitsIcEENS_9allocatorIcEEEEN2cv7Scalar_IdEEEENS_19__map_value_compareIS7_SB_NS_4lessIS7_EELb1EEENS5_ISB_EEE10__end_nodeB8ue170006Ev, symObjAddr: 0xC568, symBinAddr: 0x10000E8CC, symSize: 0x2C }
  - { offsetInCU: 0x3463E, offset: 0x3463E, size: 0x8, addend: 0x0, symName: __ZNSt3__121__tree_const_iteratorINS_12__value_typeINS_12basic_stringIcNS_11char_traitsIcEENS_9allocatorIcEEEEN2cv7Scalar_IdEEEEPNS_11__tree_nodeISB_PvEElEC1B8ue170006EPNS_15__tree_end_nodeIPNS_16__tree_node_baseISD_EEEE, symObjAddr: 0xC594, symBinAddr: 0x10000E8F8, symSize: 0x34 }
  - { offsetInCU: 0x34677, offset: 0x34677, size: 0x8, addend: 0x0, symName: __ZNKSt3__117__compressed_pairINS_15__tree_end_nodeIPNS_16__tree_node_baseIPvEEEENS_9allocatorINS_11__tree_nodeINS_12__value_typeINS_12basic_stringIcNS_11char_traitsIcEENS7_IcEEEEN2cv7Scalar_IdEEEES3_EEEEE5firstB8ue170006Ev, symObjAddr: 0xC5C8, symBinAddr: 0x10000E92C, symSize: 0x24 }
  - { offsetInCU: 0x3469D, offset: 0x3469D, size: 0x8, addend: 0x0, symName: __ZNSt3__121__tree_const_iteratorINS_12__value_typeINS_12basic_stringIcNS_11char_traitsIcEENS_9allocatorIcEEEEN2cv7Scalar_IdEEEEPNS_11__tree_nodeISB_PvEElEC2B8ue170006EPNS_15__tree_end_nodeIPNS_16__tree_node_baseISD_EEEE, symObjAddr: 0xC5EC, symBinAddr: 0x10000E950, symSize: 0x20 }
  - { offsetInCU: 0x346D6, offset: 0x346D6, size: 0x8, addend: 0x0, symName: __ZNSt3__16__treeINS_12__value_typeINS_12basic_stringIcNS_11char_traitsIcEENS_9allocatorIcEEEEN2cv7Scalar_IdEEEENS_19__map_value_compareIS7_SB_NS_4lessIS7_EELb1EEENS5_ISB_EEE15__insert_uniqueB8ue170006ENS_21__tree_const_iteratorISB_PNS_11__tree_nodeISB_PvEElEERKNS_4pairIKS7_SA_EE, symObjAddr: 0xC60C, symBinAddr: 0x10000E970, symSize: 0x64 }
  - { offsetInCU: 0x3471A, offset: 0x3471A, size: 0x8, addend: 0x0, symName: __ZNSt3__114__map_iteratorINS_15__tree_iteratorINS_12__value_typeINS_12basic_stringIcNS_11char_traitsIcEENS_9allocatorIcEEEEN2cv7Scalar_IdEEEEPNS_11__tree_nodeISC_PvEElEEEC1B8ue170006ESH_, symObjAddr: 0xC670, symBinAddr: 0x10000E9D4, symSize: 0x34 }
  - { offsetInCU: 0x34753, offset: 0x34753, size: 0x8, addend: 0x0, symName: __ZNSt3__16__treeINS_12__value_typeINS_12basic_stringIcNS_11char_traitsIcEENS_9allocatorIcEEEEN2cv7Scalar_IdEEEENS_19__map_value_compareIS7_SB_NS_4lessIS7_EELb1EEENS5_ISB_EEE30__emplace_hint_unique_key_argsIS7_JRKNS_4pairIKS7_SA_EEEEENSJ_INS_15__tree_iteratorISB_PNS_11__tree_nodeISB_PvEElEEbEENS_21__tree_const_iteratorISB_SS_lEERKT_DpOT0_, symObjAddr: 0xC6A4, symBinAddr: 0x10000EA08, symSize: 0x104 }
  - { offsetInCU: 0x3481F, offset: 0x3481F, size: 0x8, addend: 0x0, symName: __ZNSt3__122__tree_key_value_typesINS_12__value_typeINS_12basic_stringIcNS_11char_traitsIcEENS_9allocatorIcEEEEN2cv7Scalar_IdEEEEE9__get_keyB8ue170006IKNS_4pairIKS7_SA_EEEENS_9enable_ifIXsr17__is_same_uncvrefIT_SG_EE5valueERSF_E4typeERSJ_, symObjAddr: 0xC7A8, symBinAddr: 0x10000EB0C, symSize: 0x14 }
  - { offsetInCU: 0x3484C, offset: 0x3484C, size: 0x8, addend: 0x0, symName: __ZNSt3__16__treeINS_12__value_typeINS_12basic_stringIcNS_11char_traitsIcEENS_9allocatorIcEEEEN2cv7Scalar_IdEEEENS_19__map_value_compareIS7_SB_NS_4lessIS7_EELb1EEENS5_ISB_EEE12__find_equalIS7_EERPNS_16__tree_node_baseIPvEENS_21__tree_const_iteratorISB_PNS_11__tree_nodeISB_SK_EElEERPNS_15__tree_end_nodeISM_EESN_RKT_, symObjAddr: 0xC7BC, symBinAddr: 0x10000EB20, symSize: 0x304 }
  - { offsetInCU: 0x348F5, offset: 0x348F5, size: 0x8, addend: 0x0, symName: __ZNSt3__16__treeINS_12__value_typeINS_12basic_stringIcNS_11char_traitsIcEENS_9allocatorIcEEEEN2cv7Scalar_IdEEEENS_19__map_value_compareIS7_SB_NS_4lessIS7_EELb1EEENS5_ISB_EEE16__construct_nodeIJRKNS_4pairIKS7_SA_EEEEENS_10unique_ptrINS_11__tree_nodeISB_PvEENS_22__tree_node_destructorINS5_ISR_EEEEEEDpOT_, symObjAddr: 0xCAC0, symBinAddr: 0x10000EE24, symSize: 0x110 }
  - { offsetInCU: 0x34956, offset: 0x34956, size: 0x8, addend: 0x0, symName: __ZNSt3__16__treeINS_12__value_typeINS_12basic_stringIcNS_11char_traitsIcEENS_9allocatorIcEEEEN2cv7Scalar_IdEEEENS_19__map_value_compareIS7_SB_NS_4lessIS7_EELb1EEENS5_ISB_EEE16__insert_node_atEPNS_15__tree_end_nodeIPNS_16__tree_node_baseIPvEEEERSM_SM_, symObjAddr: 0xCBD0, symBinAddr: 0x10000EF34, symSize: 0xCC }
  - { offsetInCU: 0x349AB, offset: 0x349AB, size: 0x8, addend: 0x0, symName: __ZNKSt3__110unique_ptrINS_11__tree_nodeINS_12__value_typeINS_12basic_stringIcNS_11char_traitsIcEENS_9allocatorIcEEEEN2cv7Scalar_IdEEEEPvEENS_22__tree_node_destructorINS6_ISE_EEEEE3getB8ue170006Ev, symObjAddr: 0xCC9C, symBinAddr: 0x10000F000, symSize: 0x28 }
  - { offsetInCU: 0x349D1, offset: 0x349D1, size: 0x8, addend: 0x0, symName: __ZNSt3__110unique_ptrINS_11__tree_nodeINS_12__value_typeINS_12basic_stringIcNS_11char_traitsIcEENS_9allocatorIcEEEEN2cv7Scalar_IdEEEEPvEENS_22__tree_node_destructorINS6_ISE_EEEEE7releaseB8ue170006Ev, symObjAddr: 0xCCC4, symBinAddr: 0x10000F028, symSize: 0x44 }
  - { offsetInCU: 0x34A06, offset: 0x34A06, size: 0x8, addend: 0x0, symName: __ZNSt3__110unique_ptrINS_11__tree_nodeINS_12__value_typeINS_12basic_stringIcNS_11char_traitsIcEENS_9allocatorIcEEEEN2cv7Scalar_IdEEEEPvEENS_22__tree_node_destructorINS6_ISE_EEEEED1B8ue170006Ev, symObjAddr: 0xCD08, symBinAddr: 0x10000F06C, symSize: 0x2C }
  - { offsetInCU: 0x34A30, offset: 0x34A30, size: 0x8, addend: 0x0, symName: __ZNSt3__115__tree_iteratorINS_12__value_typeINS_12basic_stringIcNS_11char_traitsIcEENS_9allocatorIcEEEEN2cv7Scalar_IdEEEEPNS_11__tree_nodeISB_PvEElEC1B8ue170006ESF_, symObjAddr: 0xCD34, symBinAddr: 0x10000F098, symSize: 0x34 }
  - { offsetInCU: 0x34A6E, offset: 0x34A6E, size: 0x8, addend: 0x0, symName: __ZNSt3__14pairINS_15__tree_iteratorINS_12__value_typeINS_12basic_stringIcNS_11char_traitsIcEENS_9allocatorIcEEEEN2cv7Scalar_IdEEEEPNS_11__tree_nodeISC_PvEElEEbEC1B8ue170006ISH_RbLSE_0EEEOT_OT0_, symObjAddr: 0xCD68, symBinAddr: 0x10000F0CC, symSize: 0x3C }
  - { offsetInCU: 0x34ACC, offset: 0x34ACC, size: 0x8, addend: 0x0, symName: __ZNSt3__16__treeINS_12__value_typeINS_12basic_stringIcNS_11char_traitsIcEENS_9allocatorIcEEEEN2cv7Scalar_IdEEEENS_19__map_value_compareIS7_SB_NS_4lessIS7_EELb1EEENS5_ISB_EEE3endB8ue170006Ev, symObjAddr: 0xCDD4, symBinAddr: 0x10000F138, symSize: 0x34 }
  - { offsetInCU: 0x34AF2, offset: 0x34AF2, size: 0x8, addend: 0x0, symName: __ZNSt3__121__tree_const_iteratorINS_12__value_typeINS_12basic_stringIcNS_11char_traitsIcEENS_9allocatorIcEEEEN2cv7Scalar_IdEEEEPNS_11__tree_nodeISB_PvEElEC1B8ue170006ENS_15__tree_iteratorISB_SF_lEE, symObjAddr: 0xCE08, symBinAddr: 0x10000F16C, symSize: 0x34 }
  - { offsetInCU: 0x34B2B, offset: 0x34B2B, size: 0x8, addend: 0x0, symName: __ZNSt3__16__treeINS_12__value_typeINS_12basic_stringIcNS_11char_traitsIcEENS_9allocatorIcEEEEN2cv7Scalar_IdEEEENS_19__map_value_compareIS7_SB_NS_4lessIS7_EELb1EEENS5_ISB_EEE10value_compB8ue170006Ev, symObjAddr: 0xCE3C, symBinAddr: 0x10000F1A0, symSize: 0x28 }
  - { offsetInCU: 0x34B51, offset: 0x34B51, size: 0x8, addend: 0x0, symName: __ZNKSt3__119__map_value_compareINS_12basic_stringIcNS_11char_traitsIcEENS_9allocatorIcEEEENS_12__value_typeIS6_N2cv7Scalar_IdEEEENS_4lessIS6_EELb1EEclB8ue170006ERKS6_RKSB_, symObjAddr: 0xCE64, symBinAddr: 0x10000F1C8, symSize: 0x50 }
  - { offsetInCU: 0x34B95, offset: 0x34B95, size: 0x8, addend: 0x0, symName: __ZNKSt3__121__tree_const_iteratorINS_12__value_typeINS_12basic_stringIcNS_11char_traitsIcEENS_9allocatorIcEEEEN2cv7Scalar_IdEEEEPNS_11__tree_nodeISB_PvEElEdeB8ue170006Ev, symObjAddr: 0xCEB4, symBinAddr: 0x10000F218, symSize: 0x28 }
  - { offsetInCU: 0x34BBB, offset: 0x34BBB, size: 0x8, addend: 0x0, symName: __ZNSt3__16__treeINS_12__value_typeINS_12basic_stringIcNS_11char_traitsIcEENS_9allocatorIcEEEEN2cv7Scalar_IdEEEENS_19__map_value_compareIS7_SB_NS_4lessIS7_EELb1EEENS5_ISB_EEE5beginB8ue170006Ev, symObjAddr: 0xCEDC, symBinAddr: 0x10000F240, symSize: 0x34 }
  - { offsetInCU: 0x34BE1, offset: 0x34BE1, size: 0x8, addend: 0x0, symName: __ZNKSt3__119__map_value_compareINS_12basic_stringIcNS_11char_traitsIcEENS_9allocatorIcEEEENS_12__value_typeIS6_N2cv7Scalar_IdEEEENS_4lessIS6_EELb1EEclB8ue170006ERKSB_RKS6_, symObjAddr: 0xCF10, symBinAddr: 0x10000F274, symSize: 0x48 }
  - { offsetInCU: 0x34C25, offset: 0x34C25, size: 0x8, addend: 0x0, symName: __ZNSt3__121__tree_const_iteratorINS_12__value_typeINS_12basic_stringIcNS_11char_traitsIcEENS_9allocatorIcEEEEN2cv7Scalar_IdEEEEPNS_11__tree_nodeISB_PvEElEmmB8ue170006Ev, symObjAddr: 0xCF58, symBinAddr: 0x10000F2BC, symSize: 0x38 }
  - { offsetInCU: 0x34C4B, offset: 0x34C4B, size: 0x8, addend: 0x0, symName: __ZNSt3__16__treeINS_12__value_typeINS_12basic_stringIcNS_11char_traitsIcEENS_9allocatorIcEEEEN2cv7Scalar_IdEEEENS_19__map_value_compareIS7_SB_NS_4lessIS7_EELb1EEENS5_ISB_EEE12__find_equalIS7_EERPNS_16__tree_node_baseIPvEERPNS_15__tree_end_nodeISM_EERKT_, symObjAddr: 0xCF90, symBinAddr: 0x10000F2F4, symSize: 0x184 }
  - { offsetInCU: 0x34CB8, offset: 0x34CB8, size: 0x8, addend: 0x0, symName: __ZNKSt3__121__tree_const_iteratorINS_12__value_typeINS_12basic_stringIcNS_11char_traitsIcEENS_9allocatorIcEEEEN2cv7Scalar_IdEEEEPNS_11__tree_nodeISB_PvEElE8__get_npB8ue170006Ev, symObjAddr: 0xD150, symBinAddr: 0x10000F4B4, symSize: 0x18 }
  - { offsetInCU: 0x34CDE, offset: 0x34CDE, size: 0x8, addend: 0x0, symName: __ZNSt3__115__tree_iteratorINS_12__value_typeINS_12basic_stringIcNS_11char_traitsIcEENS_9allocatorIcEEEEN2cv7Scalar_IdEEEEPNS_11__tree_nodeISB_PvEElEC1B8ue170006EPNS_15__tree_end_nodeIPNS_16__tree_node_baseISD_EEEE, symObjAddr: 0xD168, symBinAddr: 0x10000F4CC, symSize: 0x34 }
  - { offsetInCU: 0x34D17, offset: 0x34D17, size: 0x8, addend: 0x0, symName: __ZNSt3__115__tree_iteratorINS_12__value_typeINS_12basic_stringIcNS_11char_traitsIcEENS_9allocatorIcEEEEN2cv7Scalar_IdEEEEPNS_11__tree_nodeISB_PvEElEC2B8ue170006EPNS_15__tree_end_nodeIPNS_16__tree_node_baseISD_EEEE, symObjAddr: 0xD19C, symBinAddr: 0x10000F500, symSize: 0x20 }
  - { offsetInCU: 0x34D50, offset: 0x34D50, size: 0x8, addend: 0x0, symName: __ZNSt3__121__tree_const_iteratorINS_12__value_typeINS_12basic_stringIcNS_11char_traitsIcEENS_9allocatorIcEEEEN2cv7Scalar_IdEEEEPNS_11__tree_nodeISB_PvEElEC2B8ue170006ENS_15__tree_iteratorISB_SF_lEE, symObjAddr: 0xD1BC, symBinAddr: 0x10000F520, symSize: 0x20 }
  - { offsetInCU: 0x34D89, offset: 0x34D89, size: 0x8, addend: 0x0, symName: __ZNSt3__117__compressed_pairImNS_19__map_value_compareINS_12basic_stringIcNS_11char_traitsIcEENS_9allocatorIcEEEENS_12__value_typeIS7_N2cv7Scalar_IdEEEENS_4lessIS7_EELb1EEEE6secondB8ue170006Ev, symObjAddr: 0xD1DC, symBinAddr: 0x10000F540, symSize: 0x24 }
  - { offsetInCU: 0x34DAF, offset: 0x34DAF, size: 0x8, addend: 0x0, symName: __ZNSt3__122__compressed_pair_elemINS_19__map_value_compareINS_12basic_stringIcNS_11char_traitsIcEENS_9allocatorIcEEEENS_12__value_typeIS7_N2cv7Scalar_IdEEEENS_4lessIS7_EELb1EEELi1ELb1EE5__getB8ue170006Ev, symObjAddr: 0xD200, symBinAddr: 0x10000F564, symSize: 0x14 }
  - { offsetInCU: 0x34DD5, offset: 0x34DD5, size: 0x8, addend: 0x0, symName: __ZNKSt3__112__value_typeINS_12basic_stringIcNS_11char_traitsIcEENS_9allocatorIcEEEEN2cv7Scalar_IdEEE11__get_valueB8ue170006Ev, symObjAddr: 0xD214, symBinAddr: 0x10000F578, symSize: 0x14 }
  - { offsetInCU: 0x34DFB, offset: 0x34DFB, size: 0x8, addend: 0x0, symName: __ZNKSt3__16__treeINS_12__value_typeINS_12basic_stringIcNS_11char_traitsIcEENS_9allocatorIcEEEEN2cv7Scalar_IdEEEENS_19__map_value_compareIS7_SB_NS_4lessIS7_EELb1EEENS5_ISB_EEE6__rootB8ue170006Ev, symObjAddr: 0xD228, symBinAddr: 0x10000F58C, symSize: 0x28 }
  - { offsetInCU: 0x34E21, offset: 0x34E21, size: 0x8, addend: 0x0, symName: __ZNKSt3__16__treeINS_12__value_typeINS_12basic_stringIcNS_11char_traitsIcEENS_9allocatorIcEEEEN2cv7Scalar_IdEEEENS_19__map_value_compareIS7_SB_NS_4lessIS7_EELb1EEENS5_ISB_EEE10__root_ptrB8ue170006Ev, symObjAddr: 0xD250, symBinAddr: 0x10000F5B4, symSize: 0x24 }
  - { offsetInCU: 0x34E47, offset: 0x34E47, size: 0x8, addend: 0x0, symName: __ZNSt3__121__tree_const_iteratorINS_12__value_typeINS_12basic_stringIcNS_11char_traitsIcEENS_9allocatorIcEEEEN2cv7Scalar_IdEEEEPNS_11__tree_nodeISB_PvEElEppB8ue170006Ev, symObjAddr: 0xD350, symBinAddr: 0x10000F6B4, symSize: 0x38 }
  - { offsetInCU: 0x34E6D, offset: 0x34E6D, size: 0x8, addend: 0x0, symName: __ZNSt3__16__treeINS_12__value_typeINS_12basic_stringIcNS_11char_traitsIcEENS_9allocatorIcEEEEN2cv7Scalar_IdEEEENS_19__map_value_compareIS7_SB_NS_4lessIS7_EELb1EEENS5_ISB_EEE12__node_allocB8ue170006Ev, symObjAddr: 0xD388, symBinAddr: 0x10000F6EC, symSize: 0x28 }
  - { offsetInCU: 0x34E93, offset: 0x34E93, size: 0x8, addend: 0x0, symName: __ZNSt3__116allocator_traitsINS_9allocatorINS_11__tree_nodeINS_12__value_typeINS_12basic_stringIcNS_11char_traitsIcEENS1_IcEEEEN2cv7Scalar_IdEEEEPvEEEEE8allocateB8ue170006ERSF_m, symObjAddr: 0xD3B0, symBinAddr: 0x10000F714, symSize: 0x2C }
  - { offsetInCU: 0x34EC6, offset: 0x34EC6, size: 0x8, addend: 0x0, symName: __ZNSt3__122__tree_node_destructorINS_9allocatorINS_11__tree_nodeINS_12__value_typeINS_12basic_stringIcNS_11char_traitsIcEENS1_IcEEEEN2cv7Scalar_IdEEEEPvEEEEEC1B8ue170006ERSF_b, symObjAddr: 0xD3DC, symBinAddr: 0x10000F740, symSize: 0x48 }
  - { offsetInCU: 0x34F13, offset: 0x34F13, size: 0x8, addend: 0x0, symName: __ZNSt3__110unique_ptrINS_11__tree_nodeINS_12__value_typeINS_12basic_stringIcNS_11char_traitsIcEENS_9allocatorIcEEEEN2cv7Scalar_IdEEEEPvEENS_22__tree_node_destructorINS6_ISE_EEEEEC1B8ue170006ILb1EvEEPSE_NS_16__dependent_typeINS_27__unique_ptr_deleter_sfinaeISH_EEXT_EE20__good_rval_ref_typeE, symObjAddr: 0xD424, symBinAddr: 0x10000F788, symSize: 0x3C }
  - { offsetInCU: 0x34F64, offset: 0x34F64, size: 0x8, addend: 0x0, symName: __ZNSt3__116allocator_traitsINS_9allocatorINS_11__tree_nodeINS_12__value_typeINS_12basic_stringIcNS_11char_traitsIcEENS1_IcEEEEN2cv7Scalar_IdEEEEPvEEEEE9constructB8ue170006INS_4pairIKS8_SB_EEJRKSK_EvEEvRSF_PT_DpOT0_, symObjAddr: 0xD460, symBinAddr: 0x10000F7C4, symSize: 0x34 }
  - { offsetInCU: 0x34FBB, offset: 0x34FBB, size: 0x8, addend: 0x0, symName: __ZNSt3__122__tree_key_value_typesINS_12__value_typeINS_12basic_stringIcNS_11char_traitsIcEENS_9allocatorIcEEEEN2cv7Scalar_IdEEEEE9__get_ptrB8ue170006ERSB_, symObjAddr: 0xD494, symBinAddr: 0x10000F7F8, symSize: 0x24 }
  - { offsetInCU: 0x34FDF, offset: 0x34FDF, size: 0x8, addend: 0x0, symName: __ZNKSt3__110unique_ptrINS_11__tree_nodeINS_12__value_typeINS_12basic_stringIcNS_11char_traitsIcEENS_9allocatorIcEEEEN2cv7Scalar_IdEEEEPvEENS_22__tree_node_destructorINS6_ISE_EEEEEptB8ue170006Ev, symObjAddr: 0xD4B8, symBinAddr: 0x10000F81C, symSize: 0x28 }
  - { offsetInCU: 0x35005, offset: 0x35005, size: 0x8, addend: 0x0, symName: __ZNSt3__110unique_ptrINS_11__tree_nodeINS_12__value_typeINS_12basic_stringIcNS_11char_traitsIcEENS_9allocatorIcEEEEN2cv7Scalar_IdEEEEPvEENS_22__tree_node_destructorINS6_ISE_EEEEE11get_deleterB8ue170006Ev, symObjAddr: 0xD4E0, symBinAddr: 0x10000F844, symSize: 0x24 }
  - { offsetInCU: 0x3502B, offset: 0x3502B, size: 0x8, addend: 0x0, symName: __ZNSt3__117__compressed_pairINS_15__tree_end_nodeIPNS_16__tree_node_baseIPvEEEENS_9allocatorINS_11__tree_nodeINS_12__value_typeINS_12basic_stringIcNS_11char_traitsIcEENS7_IcEEEEN2cv7Scalar_IdEEEES3_EEEEE6secondB8ue170006Ev, symObjAddr: 0xD504, symBinAddr: 0x10000F868, symSize: 0x24 }
  - { offsetInCU: 0x35051, offset: 0x35051, size: 0x8, addend: 0x0, symName: __ZNSt3__122__compressed_pair_elemINS_9allocatorINS_11__tree_nodeINS_12__value_typeINS_12basic_stringIcNS_11char_traitsIcEENS1_IcEEEEN2cv7Scalar_IdEEEEPvEEEELi1ELb1EE5__getB8ue170006Ev, symObjAddr: 0xD528, symBinAddr: 0x10000F88C, symSize: 0x14 }
  - { offsetInCU: 0x35077, offset: 0x35077, size: 0x8, addend: 0x0, symName: __ZNSt3__19allocatorINS_11__tree_nodeINS_12__value_typeINS_12basic_stringIcNS_11char_traitsIcEENS0_IcEEEEN2cv7Scalar_IdEEEEPvEEE8allocateB8ue170006Em, symObjAddr: 0xD53C, symBinAddr: 0x10000F8A0, symSize: 0x5C }
  - { offsetInCU: 0x350B5, offset: 0x350B5, size: 0x8, addend: 0x0, symName: __ZNSt3__116allocator_traitsINS_9allocatorINS_11__tree_nodeINS_12__value_typeINS_12basic_stringIcNS_11char_traitsIcEENS1_IcEEEEN2cv7Scalar_IdEEEEPvEEEEE8max_sizeB8ue170006ISF_vEEmRKSF_, symObjAddr: 0xD598, symBinAddr: 0x10000F8FC, symSize: 0x24 }
  - { offsetInCU: 0x350E3, offset: 0x350E3, size: 0x8, addend: 0x0, symName: __ZNKSt3__19allocatorINS_11__tree_nodeINS_12__value_typeINS_12basic_stringIcNS_11char_traitsIcEENS0_IcEEEEN2cv7Scalar_IdEEEEPvEEE8max_sizeB8ue170006Ev, symObjAddr: 0xD5BC, symBinAddr: 0x10000F920, symSize: 0x20 }
  - { offsetInCU: 0x35109, offset: 0x35109, size: 0x8, addend: 0x0, symName: __ZNSt3__122__tree_node_destructorINS_9allocatorINS_11__tree_nodeINS_12__value_typeINS_12basic_stringIcNS_11char_traitsIcEENS1_IcEEEEN2cv7Scalar_IdEEEEPvEEEEEC2B8ue170006ERSF_b, symObjAddr: 0xD5DC, symBinAddr: 0x10000F940, symSize: 0x38 }
  - { offsetInCU: 0x35151, offset: 0x35151, size: 0x8, addend: 0x0, symName: __ZNSt3__110unique_ptrINS_11__tree_nodeINS_12__value_typeINS_12basic_stringIcNS_11char_traitsIcEENS_9allocatorIcEEEEN2cv7Scalar_IdEEEEPvEENS_22__tree_node_destructorINS6_ISE_EEEEEC2B8ue170006ILb1EvEEPSE_NS_16__dependent_typeINS_27__unique_ptr_deleter_sfinaeISH_EEXT_EE20__good_rval_ref_typeE, symObjAddr: 0xD614, symBinAddr: 0x10000F978, symSize: 0x48 }
  - { offsetInCU: 0x351A2, offset: 0x351A2, size: 0x8, addend: 0x0, symName: __ZNSt3__117__compressed_pairIPNS_11__tree_nodeINS_12__value_typeINS_12basic_stringIcNS_11char_traitsIcEENS_9allocatorIcEEEEN2cv7Scalar_IdEEEEPvEENS_22__tree_node_destructorINS6_ISE_EEEEEC1B8ue170006IRSF_SI_EEOT_OT0_, symObjAddr: 0xD65C, symBinAddr: 0x10000F9C0, symSize: 0x3C }
  - { offsetInCU: 0x351FA, offset: 0x351FA, size: 0x8, addend: 0x0, symName: __ZNSt3__117__compressed_pairIPNS_11__tree_nodeINS_12__value_typeINS_12basic_stringIcNS_11char_traitsIcEENS_9allocatorIcEEEEN2cv7Scalar_IdEEEEPvEENS_22__tree_node_destructorINS6_ISE_EEEEEC2B8ue170006IRSF_SI_EEOT_OT0_, symObjAddr: 0xD698, symBinAddr: 0x10000F9FC, symSize: 0x48 }
  - { offsetInCU: 0x35252, offset: 0x35252, size: 0x8, addend: 0x0, symName: __ZNSt3__122__compressed_pair_elemIPNS_11__tree_nodeINS_12__value_typeINS_12basic_stringIcNS_11char_traitsIcEENS_9allocatorIcEEEEN2cv7Scalar_IdEEEEPvEELi0ELb0EEC2B8ue170006IRSF_vEEOT_, symObjAddr: 0xD6E0, symBinAddr: 0x10000FA44, symSize: 0x24 }
  - { offsetInCU: 0x35294, offset: 0x35294, size: 0x8, addend: 0x0, symName: __ZNSt3__122__compressed_pair_elemINS_22__tree_node_destructorINS_9allocatorINS_11__tree_nodeINS_12__value_typeINS_12basic_stringIcNS_11char_traitsIcEENS2_IcEEEEN2cv7Scalar_IdEEEEPvEEEEEELi1ELb0EEC2B8ue170006ISH_vEEOT_, symObjAddr: 0xD704, symBinAddr: 0x10000FA68, symSize: 0x24 }
  - { offsetInCU: 0x352D6, offset: 0x352D6, size: 0x8, addend: 0x0, symName: __ZNSt3__19allocatorINS_11__tree_nodeINS_12__value_typeINS_12basic_stringIcNS_11char_traitsIcEENS0_IcEEEEN2cv7Scalar_IdEEEEPvEEE9constructB8ue170006INS_4pairIKS7_SA_EEJRKSI_EEEvPT_DpOT0_, symObjAddr: 0xD728, symBinAddr: 0x10000FA8C, symSize: 0x30 }
  - { offsetInCU: 0x3532C, offset: 0x3532C, size: 0x8, addend: 0x0, symName: __ZNSt3__14pairIKNS_12basic_stringIcNS_11char_traitsIcEENS_9allocatorIcEEEEN2cv7Scalar_IdEEEC1B8ue170006ERKSB_, symObjAddr: 0xD758, symBinAddr: 0x10000FABC, symSize: 0x34 }
  - { offsetInCU: 0x35360, offset: 0x35360, size: 0x8, addend: 0x0, symName: __ZNSt3__14pairIKNS_12basic_stringIcNS_11char_traitsIcEENS_9allocatorIcEEEEN2cv7Scalar_IdEEEC2B8ue170006ERKSB_, symObjAddr: 0xD78C, symBinAddr: 0x10000FAF0, symSize: 0x70 }
  - { offsetInCU: 0x35394, offset: 0x35394, size: 0x8, addend: 0x0, symName: __ZN2cv7Scalar_IdEC1ERKS1_, symObjAddr: 0xD7FC, symBinAddr: 0x10000FB60, symSize: 0x34 }
  - { offsetInCU: 0x353CF, offset: 0x353CF, size: 0x8, addend: 0x0, symName: __ZN2cv7Scalar_IdEC2ERKS1_, symObjAddr: 0xD830, symBinAddr: 0x10000FB94, symSize: 0x34 }
  - { offsetInCU: 0x3540A, offset: 0x3540A, size: 0x8, addend: 0x0, symName: __ZN2cv3VecIdLi4EEC2ERKS1_, symObjAddr: 0xD864, symBinAddr: 0x10000FBC8, symSize: 0x34 }
  - { offsetInCU: 0x35445, offset: 0x35445, size: 0x8, addend: 0x0, symName: __ZN2cv4MatxIdLi4ELi1EEC2EPKd, symObjAddr: 0xD898, symBinAddr: 0x10000FBFC, symSize: 0x6C }
  - { offsetInCU: 0x3549C, offset: 0x3549C, size: 0x8, addend: 0x0, symName: __ZNSt3__112__value_typeINS_12basic_stringIcNS_11char_traitsIcEENS_9allocatorIcEEEEN2cv7Scalar_IdEEE11__get_valueB8ue170006Ev, symObjAddr: 0xD904, symBinAddr: 0x10000FC68, symSize: 0x14 }
  - { offsetInCU: 0x354C2, offset: 0x354C2, size: 0x8, addend: 0x0, symName: __ZNKSt3__117__compressed_pairIPNS_11__tree_nodeINS_12__value_typeINS_12basic_stringIcNS_11char_traitsIcEENS_9allocatorIcEEEEN2cv7Scalar_IdEEEEPvEENS_22__tree_node_destructorINS6_ISE_EEEEE5firstB8ue170006Ev, symObjAddr: 0xD918, symBinAddr: 0x10000FC7C, symSize: 0x24 }
  - { offsetInCU: 0x354E8, offset: 0x354E8, size: 0x8, addend: 0x0, symName: __ZNKSt3__122__compressed_pair_elemIPNS_11__tree_nodeINS_12__value_typeINS_12basic_stringIcNS_11char_traitsIcEENS_9allocatorIcEEEEN2cv7Scalar_IdEEEEPvEELi0ELb0EE5__getB8ue170006Ev, symObjAddr: 0xD93C, symBinAddr: 0x10000FCA0, symSize: 0x14 }
  - { offsetInCU: 0x3550E, offset: 0x3550E, size: 0x8, addend: 0x0, symName: __ZNSt3__117__compressed_pairIPNS_11__tree_nodeINS_12__value_typeINS_12basic_stringIcNS_11char_traitsIcEENS_9allocatorIcEEEEN2cv7Scalar_IdEEEEPvEENS_22__tree_node_destructorINS6_ISE_EEEEE6secondB8ue170006Ev, symObjAddr: 0xD950, symBinAddr: 0x10000FCB4, symSize: 0x28 }
  - { offsetInCU: 0x35534, offset: 0x35534, size: 0x8, addend: 0x0, symName: __ZNSt3__122__compressed_pair_elemINS_22__tree_node_destructorINS_9allocatorINS_11__tree_nodeINS_12__value_typeINS_12basic_stringIcNS_11char_traitsIcEENS2_IcEEEEN2cv7Scalar_IdEEEEPvEEEEEELi1ELb0EE5__getB8ue170006Ev, symObjAddr: 0xD978, symBinAddr: 0x10000FCDC, symSize: 0x14 }
  - { offsetInCU: 0x3555A, offset: 0x3555A, size: 0x8, addend: 0x0, symName: __ZNSt3__16__treeINS_12__value_typeINS_12basic_stringIcNS_11char_traitsIcEENS_9allocatorIcEEEEN2cv7Scalar_IdEEEENS_19__map_value_compareIS7_SB_NS_4lessIS7_EELb1EEENS5_ISB_EEE4sizeB8ue170006Ev, symObjAddr: 0xD98C, symBinAddr: 0x10000FCF0, symSize: 0x28 }
  - { offsetInCU: 0x35580, offset: 0x35580, size: 0x8, addend: 0x0, symName: __ZNSt3__117__compressed_pairImNS_19__map_value_compareINS_12basic_stringIcNS_11char_traitsIcEENS_9allocatorIcEEEENS_12__value_typeIS7_N2cv7Scalar_IdEEEENS_4lessIS7_EELb1EEEE5firstB8ue170006Ev, symObjAddr: 0xD9B4, symBinAddr: 0x10000FD18, symSize: 0x24 }
  - { offsetInCU: 0x355A6, offset: 0x355A6, size: 0x8, addend: 0x0, symName: __ZNSt3__117__compressed_pairIPNS_11__tree_nodeINS_12__value_typeINS_12basic_stringIcNS_11char_traitsIcEENS_9allocatorIcEEEEN2cv7Scalar_IdEEEEPvEENS_22__tree_node_destructorINS6_ISE_EEEEE5firstB8ue170006Ev, symObjAddr: 0xD9D8, symBinAddr: 0x10000FD3C, symSize: 0x24 }
  - { offsetInCU: 0x355CC, offset: 0x355CC, size: 0x8, addend: 0x0, symName: __ZNSt3__122__compressed_pair_elemIPNS_11__tree_nodeINS_12__value_typeINS_12basic_stringIcNS_11char_traitsIcEENS_9allocatorIcEEEEN2cv7Scalar_IdEEEEPvEELi0ELb0EE5__getB8ue170006Ev, symObjAddr: 0xD9FC, symBinAddr: 0x10000FD60, symSize: 0x14 }
  - { offsetInCU: 0x355F2, offset: 0x355F2, size: 0x8, addend: 0x0, symName: __ZNSt3__110unique_ptrINS_11__tree_nodeINS_12__value_typeINS_12basic_stringIcNS_11char_traitsIcEENS_9allocatorIcEEEEN2cv7Scalar_IdEEEEPvEENS_22__tree_node_destructorINS6_ISE_EEEEED2B8ue170006Ev, symObjAddr: 0xDA10, symBinAddr: 0x10000FD74, symSize: 0x30 }
  - { offsetInCU: 0x3561C, offset: 0x3561C, size: 0x8, addend: 0x0, symName: __ZNSt3__110unique_ptrINS_11__tree_nodeINS_12__value_typeINS_12basic_stringIcNS_11char_traitsIcEENS_9allocatorIcEEEEN2cv7Scalar_IdEEEEPvEENS_22__tree_node_destructorINS6_ISE_EEEEE5resetB8ue170006EPSE_, symObjAddr: 0xDA40, symBinAddr: 0x10000FDA4, symSize: 0x78 }
  - { offsetInCU: 0x35660, offset: 0x35660, size: 0x8, addend: 0x0, symName: __ZNSt3__122__tree_node_destructorINS_9allocatorINS_11__tree_nodeINS_12__value_typeINS_12basic_stringIcNS_11char_traitsIcEENS1_IcEEEEN2cv7Scalar_IdEEEEPvEEEEEclB8ue170006EPSE_, symObjAddr: 0xDAB8, symBinAddr: 0x10000FE1C, symSize: 0x98 }
  - { offsetInCU: 0x35695, offset: 0x35695, size: 0x8, addend: 0x0, symName: __ZNSt3__116allocator_traitsINS_9allocatorINS_11__tree_nodeINS_12__value_typeINS_12basic_stringIcNS_11char_traitsIcEENS1_IcEEEEN2cv7Scalar_IdEEEEPvEEEEE7destroyB8ue170006INS_4pairIKS8_SB_EEvvEEvRSF_PT_, symObjAddr: 0xDB50, symBinAddr: 0x10000FEB4, symSize: 0x28 }
  - { offsetInCU: 0x356D0, offset: 0x356D0, size: 0x8, addend: 0x0, symName: __ZNSt3__116allocator_traitsINS_9allocatorINS_11__tree_nodeINS_12__value_typeINS_12basic_stringIcNS_11char_traitsIcEENS1_IcEEEEN2cv7Scalar_IdEEEEPvEEEEE10deallocateB8ue170006ERSF_PSE_m, symObjAddr: 0xDB78, symBinAddr: 0x10000FEDC, symSize: 0x34 }
  - { offsetInCU: 0x35712, offset: 0x35712, size: 0x8, addend: 0x0, symName: __ZNSt3__19allocatorINS_11__tree_nodeINS_12__value_typeINS_12basic_stringIcNS_11char_traitsIcEENS0_IcEEEEN2cv7Scalar_IdEEEEPvEEE10deallocateB8ue170006EPSD_m, symObjAddr: 0xDBAC, symBinAddr: 0x10000FF10, symSize: 0x44 }
  - { offsetInCU: 0x35754, offset: 0x35754, size: 0x8, addend: 0x0, symName: __ZNSt3__115__tree_iteratorINS_12__value_typeINS_12basic_stringIcNS_11char_traitsIcEENS_9allocatorIcEEEEN2cv7Scalar_IdEEEEPNS_11__tree_nodeISB_PvEElEC2B8ue170006ESF_, symObjAddr: 0xDBF0, symBinAddr: 0x10000FF54, symSize: 0x20 }
  - { offsetInCU: 0x3578D, offset: 0x3578D, size: 0x8, addend: 0x0, symName: __ZNSt3__14pairINS_15__tree_iteratorINS_12__value_typeINS_12basic_stringIcNS_11char_traitsIcEENS_9allocatorIcEEEEN2cv7Scalar_IdEEEEPNS_11__tree_nodeISC_PvEElEEbEC2B8ue170006ISH_RbLSE_0EEEOT_OT0_, symObjAddr: 0xDC10, symBinAddr: 0x10000FF74, symSize: 0x38 }
  - { offsetInCU: 0x357EB, offset: 0x357EB, size: 0x8, addend: 0x0, symName: __ZNSt3__114__map_iteratorINS_15__tree_iteratorINS_12__value_typeINS_12basic_stringIcNS_11char_traitsIcEENS_9allocatorIcEEEEN2cv7Scalar_IdEEEEPNS_11__tree_nodeISC_PvEElEEEC2B8ue170006ESH_, symObjAddr: 0xDC48, symBinAddr: 0x10000FFAC, symSize: 0x20 }
  - { offsetInCU: 0x35824, offset: 0x35824, size: 0x8, addend: 0x0, symName: __ZNSt3__120__map_const_iteratorINS_21__tree_const_iteratorINS_12__value_typeINS_12basic_stringIcNS_11char_traitsIcEENS_9allocatorIcEEEEN2cv7Scalar_IdEEEEPNS_11__tree_nodeISC_PvEElEEEC2B8ue170006ESH_, symObjAddr: 0xDC68, symBinAddr: 0x10000FFCC, symSize: 0x20 }
  - { offsetInCU: 0x3585D, offset: 0x3585D, size: 0x8, addend: 0x0, symName: __ZNSt3__16__treeINS_12__value_typeINS_12basic_stringIcNS_11char_traitsIcEENS_9allocatorIcEEEEN2cv7Scalar_IdEEEENS_19__map_value_compareIS7_SB_NS_4lessIS7_EELb1EEENS5_ISB_EEED2Ev, symObjAddr: 0xDC88, symBinAddr: 0x10000FFEC, symSize: 0x38 }
  - { offsetInCU: 0x35889, offset: 0x35889, size: 0x8, addend: 0x0, symName: __ZNSt3__16__treeINS_12__value_typeINS_12basic_stringIcNS_11char_traitsIcEENS_9allocatorIcEEEEN2cv7Scalar_IdEEEENS_19__map_value_compareIS7_SB_NS_4lessIS7_EELb1EEENS5_ISB_EEE7destroyEPNS_11__tree_nodeISB_PvEE, symObjAddr: 0xDCC0, symBinAddr: 0x100010024, symSize: 0xA8 }
  - { offsetInCU: 0x358D5, offset: 0x358D5, size: 0x8, addend: 0x0, symName: __ZNSt3__13mapINS_12basic_stringIcNS_11char_traitsIcEENS_9allocatorIcEEEEN2cv7Scalar_IdEENS_4lessIS6_EENS4_INS_4pairIKS6_S9_EEEEED2B8ue170006Ev, symObjAddr: 0xDD68, symBinAddr: 0x1000100CC, symSize: 0x2C }
  - { offsetInCU: 0x358FF, offset: 0x358FF, size: 0x8, addend: 0x0, symName: __ZNSt3__16vectorINS0_IN2cv6Point_IiEENS_9allocatorIS3_EEEENS4_IS6_EEEC2B8ue170006Ev, symObjAddr: 0xDD94, symBinAddr: 0x1000100F8, symSize: 0x4C }
  - { offsetInCU: 0x3592E, offset: 0x3592E, size: 0x8, addend: 0x0, symName: __ZNSt3__117__compressed_pairIPNS_6vectorIN2cv6Point_IiEENS_9allocatorIS4_EEEENS5_IS7_EEEC1B8ue170006IDnNS_18__default_init_tagEEEOT_OT0_, symObjAddr: 0xDDE0, symBinAddr: 0x100010144, symSize: 0x3C }
  - { offsetInCU: 0x35986, offset: 0x35986, size: 0x8, addend: 0x0, symName: __ZNSt3__117__compressed_pairIPNS_6vectorIN2cv6Point_IiEENS_9allocatorIS4_EEEENS5_IS7_EEEC2B8ue170006IDnNS_18__default_init_tagEEEOT_OT0_, symObjAddr: 0xDE1C, symBinAddr: 0x100010180, symSize: 0x40 }
  - { offsetInCU: 0x359DE, offset: 0x359DE, size: 0x8, addend: 0x0, symName: __ZNSt3__122__compressed_pair_elemIPNS_6vectorIN2cv6Point_IiEENS_9allocatorIS4_EEEELi0ELb0EEC2B8ue170006IDnvEEOT_, symObjAddr: 0xDE5C, symBinAddr: 0x1000101C0, symSize: 0x1C }
  - { offsetInCU: 0x35A20, offset: 0x35A20, size: 0x8, addend: 0x0, symName: __ZNSt3__122__compressed_pair_elemINS_9allocatorINS_6vectorIN2cv6Point_IiEENS1_IS5_EEEEEELi1ELb1EEC2B8ue170006ENS_18__default_init_tagE, symObjAddr: 0xDE78, symBinAddr: 0x1000101DC, symSize: 0x2C }
  - { offsetInCU: 0x35A54, offset: 0x35A54, size: 0x8, addend: 0x0, symName: __ZNSt3__19allocatorINS_6vectorIN2cv6Point_IiEENS0_IS4_EEEEEC2B8ue170006Ev, symObjAddr: 0xDEA4, symBinAddr: 0x100010208, symSize: 0x2C }
  - { offsetInCU: 0x35A7E, offset: 0x35A7E, size: 0x8, addend: 0x0, symName: __ZNSt3__116__non_trivial_ifILb1ENS_9allocatorINS_6vectorIN2cv6Point_IiEENS1_IS5_EEEEEEEC2B8ue170006Ev, symObjAddr: 0xDED0, symBinAddr: 0x100010234, symSize: 0x14 }
  - { offsetInCU: 0x35AA8, offset: 0x35AA8, size: 0x8, addend: 0x0, symName: __ZNSt3__16vectorINS0_IN2cv6Point_IiEENS_9allocatorIS3_EEEENS4_IS6_EEED2B8ue170006Ev, symObjAddr: 0xDEE4, symBinAddr: 0x100010248, symSize: 0x44 }
  - { offsetInCU: 0x35AD2, offset: 0x35AD2, size: 0x8, addend: 0x0, symName: __ZNSt3__16vectorINS0_IN2cv6Point_IiEENS_9allocatorIS3_EEEENS4_IS6_EEE16__destroy_vectorC1B8ue170006ERS8_, symObjAddr: 0xDF28, symBinAddr: 0x10001028C, symSize: 0x34 }
  - { offsetInCU: 0x35B0B, offset: 0x35B0B, size: 0x8, addend: 0x0, symName: __ZNSt3__16vectorINS0_IN2cv6Point_IiEENS_9allocatorIS3_EEEENS4_IS6_EEE16__destroy_vectorclB8ue170006Ev, symObjAddr: 0xDF5C, symBinAddr: 0x1000102C0, symSize: 0x90 }
  - { offsetInCU: 0x35B31, offset: 0x35B31, size: 0x8, addend: 0x0, symName: __ZNSt3__16vectorINS0_IN2cv6Point_IiEENS_9allocatorIS3_EEEENS4_IS6_EEE16__destroy_vectorC2B8ue170006ERS8_, symObjAddr: 0xDFEC, symBinAddr: 0x100010350, symSize: 0x20 }
  - { offsetInCU: 0x35B6A, offset: 0x35B6A, size: 0x8, addend: 0x0, symName: __ZNSt3__16vectorINS0_IN2cv6Point_IiEENS_9allocatorIS3_EEEENS4_IS6_EEE7__clearB8ue170006Ev, symObjAddr: 0xE00C, symBinAddr: 0x100010370, symSize: 0x28 }
  - { offsetInCU: 0x35B90, offset: 0x35B90, size: 0x8, addend: 0x0, symName: __ZNKSt3__16vectorINS0_IN2cv6Point_IiEENS_9allocatorIS3_EEEENS4_IS6_EEE17__annotate_deleteB8ue170006Ev, symObjAddr: 0xE034, symBinAddr: 0x100010398, symSize: 0xD4 }
  - { offsetInCU: 0x35BB6, offset: 0x35BB6, size: 0x8, addend: 0x0, symName: __ZNSt3__116allocator_traitsINS_9allocatorINS_6vectorIN2cv6Point_IiEENS1_IS5_EEEEEEE10deallocateB8ue170006ERS8_PS7_m, symObjAddr: 0xE108, symBinAddr: 0x10001046C, symSize: 0x34 }
  - { offsetInCU: 0x35BF8, offset: 0x35BF8, size: 0x8, addend: 0x0, symName: __ZNSt3__16vectorINS0_IN2cv6Point_IiEENS_9allocatorIS3_EEEENS4_IS6_EEE7__allocB8ue170006Ev, symObjAddr: 0xE13C, symBinAddr: 0x1000104A0, symSize: 0x28 }
  - { offsetInCU: 0x35C1E, offset: 0x35C1E, size: 0x8, addend: 0x0, symName: __ZNKSt3__16vectorINS0_IN2cv6Point_IiEENS_9allocatorIS3_EEEENS4_IS6_EEE8capacityB8ue170006Ev, symObjAddr: 0xE164, symBinAddr: 0x1000104C8, symSize: 0x40 }
  - { offsetInCU: 0x35C44, offset: 0x35C44, size: 0x8, addend: 0x0, symName: __ZNSt3__16vectorINS0_IN2cv6Point_IiEENS_9allocatorIS3_EEEENS4_IS6_EEE22__base_destruct_at_endB8ue170006EPS6_, symObjAddr: 0xE1A4, symBinAddr: 0x100010508, symSize: 0x8C }
  - { offsetInCU: 0x35C88, offset: 0x35C88, size: 0x8, addend: 0x0, symName: __ZNSt3__116allocator_traitsINS_9allocatorINS_6vectorIN2cv6Point_IiEENS1_IS5_EEEEEEE7destroyB8ue170006IS7_vEEvRS8_PT_, symObjAddr: 0xE230, symBinAddr: 0x100010594, symSize: 0x2C }
  - { offsetInCU: 0x35CC5, offset: 0x35CC5, size: 0x8, addend: 0x0, symName: __ZNSt3__19allocatorINS_6vectorIN2cv6Point_IiEENS0_IS4_EEEEE7destroyB8ue170006EPS6_, symObjAddr: 0xE270, symBinAddr: 0x1000105D4, symSize: 0x28 }
  - { offsetInCU: 0x35CF9, offset: 0x35CF9, size: 0x8, addend: 0x0, symName: __ZNSt3__16vectorIN2cv6Point_IiEENS_9allocatorIS3_EEED1B8ue170006Ev, symObjAddr: 0xE298, symBinAddr: 0x1000105FC, symSize: 0x2C }
  - { offsetInCU: 0x35D23, offset: 0x35D23, size: 0x8, addend: 0x0, symName: __ZNSt3__16vectorIN2cv6Point_IiEENS_9allocatorIS3_EEED2B8ue170006Ev, symObjAddr: 0xE2C4, symBinAddr: 0x100010628, symSize: 0x44 }
  - { offsetInCU: 0x35D4D, offset: 0x35D4D, size: 0x8, addend: 0x0, symName: __ZNSt3__16vectorIN2cv6Point_IiEENS_9allocatorIS3_EEE16__destroy_vectorC1B8ue170006ERS6_, symObjAddr: 0xE308, symBinAddr: 0x10001066C, symSize: 0x34 }
  - { offsetInCU: 0x35D86, offset: 0x35D86, size: 0x8, addend: 0x0, symName: __ZNSt3__16vectorIN2cv6Point_IiEENS_9allocatorIS3_EEE16__destroy_vectorclB8ue170006Ev, symObjAddr: 0xE33C, symBinAddr: 0x1000106A0, symSize: 0x90 }
  - { offsetInCU: 0x35DAC, offset: 0x35DAC, size: 0x8, addend: 0x0, symName: __ZNSt3__16vectorIN2cv6Point_IiEENS_9allocatorIS3_EEE16__destroy_vectorC2B8ue170006ERS6_, symObjAddr: 0xE3CC, symBinAddr: 0x100010730, symSize: 0x20 }
  - { offsetInCU: 0x35DE5, offset: 0x35DE5, size: 0x8, addend: 0x0, symName: __ZNSt3__16vectorIN2cv6Point_IiEENS_9allocatorIS3_EEE7__clearB8ue170006Ev, symObjAddr: 0xE3EC, symBinAddr: 0x100010750, symSize: 0x28 }
  - { offsetInCU: 0x35E0B, offset: 0x35E0B, size: 0x8, addend: 0x0, symName: __ZNKSt3__16vectorIN2cv6Point_IiEENS_9allocatorIS3_EEE17__annotate_deleteB8ue170006Ev, symObjAddr: 0xE414, symBinAddr: 0x100010778, symSize: 0xB8 }
  - { offsetInCU: 0x35E31, offset: 0x35E31, size: 0x8, addend: 0x0, symName: __ZNSt3__116allocator_traitsINS_9allocatorIN2cv6Point_IiEEEEE10deallocateB8ue170006ERS5_PS4_m, symObjAddr: 0xE4CC, symBinAddr: 0x100010830, symSize: 0x34 }
  - { offsetInCU: 0x35E73, offset: 0x35E73, size: 0x8, addend: 0x0, symName: __ZNSt3__16vectorIN2cv6Point_IiEENS_9allocatorIS3_EEE7__allocB8ue170006Ev, symObjAddr: 0xE500, symBinAddr: 0x100010864, symSize: 0x28 }
  - { offsetInCU: 0x35E99, offset: 0x35E99, size: 0x8, addend: 0x0, symName: __ZNKSt3__16vectorIN2cv6Point_IiEENS_9allocatorIS3_EEE8capacityB8ue170006Ev, symObjAddr: 0xE528, symBinAddr: 0x10001088C, symSize: 0x40 }
  - { offsetInCU: 0x35EBF, offset: 0x35EBF, size: 0x8, addend: 0x0, symName: __ZNSt3__16vectorIN2cv6Point_IiEENS_9allocatorIS3_EEE22__base_destruct_at_endB8ue170006EPS3_, symObjAddr: 0xE568, symBinAddr: 0x1000108CC, symSize: 0x8C }
  - { offsetInCU: 0x35F03, offset: 0x35F03, size: 0x8, addend: 0x0, symName: __ZNSt3__116allocator_traitsINS_9allocatorIN2cv6Point_IiEEEEE7destroyB8ue170006IS4_vEEvRS5_PT_, symObjAddr: 0xE5F4, symBinAddr: 0x100010958, symSize: 0x2C }
  - { offsetInCU: 0x35F40, offset: 0x35F40, size: 0x8, addend: 0x0, symName: __ZNSt3__19allocatorIN2cv6Point_IiEEE7destroyB8ue170006EPS3_, symObjAddr: 0xE634, symBinAddr: 0x100010998, symSize: 0x14 }
  - { offsetInCU: 0x35F74, offset: 0x35F74, size: 0x8, addend: 0x0, symName: __ZNKSt3__16vectorIN2cv6Point_IiEENS_9allocatorIS3_EEE31__annotate_contiguous_containerB8ue170006EPKvS8_S8_S8_, symObjAddr: 0xE648, symBinAddr: 0x1000109AC, symSize: 0x20 }
  - { offsetInCU: 0x35FCA, offset: 0x35FCA, size: 0x8, addend: 0x0, symName: __ZNKSt3__16vectorIN2cv6Point_IiEENS_9allocatorIS3_EEE4dataB8ue170006Ev, symObjAddr: 0xE668, symBinAddr: 0x1000109CC, symSize: 0x28 }
  - { offsetInCU: 0x35FF0, offset: 0x35FF0, size: 0x8, addend: 0x0, symName: __ZNKSt3__16vectorIN2cv6Point_IiEENS_9allocatorIS3_EEE4sizeB8ue170006Ev, symObjAddr: 0xE690, symBinAddr: 0x1000109F4, symSize: 0x28 }
  - { offsetInCU: 0x36016, offset: 0x36016, size: 0x8, addend: 0x0, symName: __ZNSt3__19allocatorIN2cv6Point_IiEEE10deallocateB8ue170006EPS3_m, symObjAddr: 0xE6B8, symBinAddr: 0x100010A1C, symSize: 0x40 }
  - { offsetInCU: 0x36058, offset: 0x36058, size: 0x8, addend: 0x0, symName: __ZNSt3__117__compressed_pairIPN2cv6Point_IiEENS_9allocatorIS3_EEE6secondB8ue170006Ev, symObjAddr: 0xE6F8, symBinAddr: 0x100010A5C, symSize: 0x24 }
  - { offsetInCU: 0x3607E, offset: 0x3607E, size: 0x8, addend: 0x0, symName: __ZNSt3__122__compressed_pair_elemINS_9allocatorIN2cv6Point_IiEEEELi1ELb1EE5__getB8ue170006Ev, symObjAddr: 0xE71C, symBinAddr: 0x100010A80, symSize: 0x14 }
  - { offsetInCU: 0x360A4, offset: 0x360A4, size: 0x8, addend: 0x0, symName: __ZNKSt3__16vectorIN2cv6Point_IiEENS_9allocatorIS3_EEE9__end_capB8ue170006Ev, symObjAddr: 0xE730, symBinAddr: 0x100010A94, symSize: 0x28 }
  - { offsetInCU: 0x360CA, offset: 0x360CA, size: 0x8, addend: 0x0, symName: __ZNKSt3__117__compressed_pairIPN2cv6Point_IiEENS_9allocatorIS3_EEE5firstB8ue170006Ev, symObjAddr: 0xE758, symBinAddr: 0x100010ABC, symSize: 0x24 }
  - { offsetInCU: 0x360F0, offset: 0x360F0, size: 0x8, addend: 0x0, symName: __ZNKSt3__122__compressed_pair_elemIPN2cv6Point_IiEELi0ELb0EE5__getB8ue170006Ev, symObjAddr: 0xE77C, symBinAddr: 0x100010AE0, symSize: 0x14 }
  - { offsetInCU: 0x36116, offset: 0x36116, size: 0x8, addend: 0x0, symName: __ZNKSt3__16vectorINS0_IN2cv6Point_IiEENS_9allocatorIS3_EEEENS4_IS6_EEE31__annotate_contiguous_containerB8ue170006EPKvSA_SA_SA_, symObjAddr: 0xE790, symBinAddr: 0x100010AF4, symSize: 0x20 }
  - { offsetInCU: 0x3616C, offset: 0x3616C, size: 0x8, addend: 0x0, symName: __ZNKSt3__16vectorINS0_IN2cv6Point_IiEENS_9allocatorIS3_EEEENS4_IS6_EEE4dataB8ue170006Ev, symObjAddr: 0xE7B0, symBinAddr: 0x100010B14, symSize: 0x28 }
  - { offsetInCU: 0x36192, offset: 0x36192, size: 0x8, addend: 0x0, symName: __ZNKSt3__16vectorINS0_IN2cv6Point_IiEENS_9allocatorIS3_EEEENS4_IS6_EEE4sizeB8ue170006Ev, symObjAddr: 0xE7D8, symBinAddr: 0x100010B3C, symSize: 0x28 }
  - { offsetInCU: 0x361B8, offset: 0x361B8, size: 0x8, addend: 0x0, symName: __ZNSt3__19allocatorINS_6vectorIN2cv6Point_IiEENS0_IS4_EEEEE10deallocateB8ue170006EPS6_m, symObjAddr: 0xE800, symBinAddr: 0x100010B64, symSize: 0x44 }
  - { offsetInCU: 0x361FA, offset: 0x361FA, size: 0x8, addend: 0x0, symName: __ZNSt3__117__compressed_pairIPNS_6vectorIN2cv6Point_IiEENS_9allocatorIS4_EEEENS5_IS7_EEE6secondB8ue170006Ev, symObjAddr: 0xE844, symBinAddr: 0x100010BA8, symSize: 0x24 }
  - { offsetInCU: 0x36220, offset: 0x36220, size: 0x8, addend: 0x0, symName: __ZNSt3__122__compressed_pair_elemINS_9allocatorINS_6vectorIN2cv6Point_IiEENS1_IS5_EEEEEELi1ELb1EE5__getB8ue170006Ev, symObjAddr: 0xE868, symBinAddr: 0x100010BCC, symSize: 0x14 }
  - { offsetInCU: 0x36246, offset: 0x36246, size: 0x8, addend: 0x0, symName: __ZNKSt3__16vectorINS0_IN2cv6Point_IiEENS_9allocatorIS3_EEEENS4_IS6_EEE9__end_capB8ue170006Ev, symObjAddr: 0xE87C, symBinAddr: 0x100010BE0, symSize: 0x28 }
  - { offsetInCU: 0x3626C, offset: 0x3626C, size: 0x8, addend: 0x0, symName: __ZNKSt3__117__compressed_pairIPNS_6vectorIN2cv6Point_IiEENS_9allocatorIS4_EEEENS5_IS7_EEE5firstB8ue170006Ev, symObjAddr: 0xE8A4, symBinAddr: 0x100010C08, symSize: 0x24 }
  - { offsetInCU: 0x36292, offset: 0x36292, size: 0x8, addend: 0x0, symName: __ZNKSt3__122__compressed_pair_elemIPNS_6vectorIN2cv6Point_IiEENS_9allocatorIS4_EEEELi0ELb0EE5__getB8ue170006Ev, symObjAddr: 0xE8C8, symBinAddr: 0x100010C2C, symSize: 0x14 }
  - { offsetInCU: 0x362B8, offset: 0x362B8, size: 0x8, addend: 0x0, symName: __ZN2cv12_OutputArrayC2INS_6Point_IiEEEERNSt3__16vectorINS5_IT_NS4_9allocatorIS6_EEEENS7_IS9_EEEE, symObjAddr: 0xE8DC, symBinAddr: 0x100010C40, symSize: 0x44 }
  - { offsetInCU: 0x362F9, offset: 0x362F9, size: 0x8, addend: 0x0, symName: __ZNSt3__16vectorINS0_IN2cv6Point_IiEENS_9allocatorIS3_EEEENS4_IS6_EEE11__make_iterB8ue170006EPS6_, symObjAddr: 0xE920, symBinAddr: 0x100010C84, symSize: 0x30 }
  - { offsetInCU: 0x3632E, offset: 0x3632E, size: 0x8, addend: 0x0, symName: __ZNSt3__111__wrap_iterIPNS_6vectorIN2cv6Point_IiEENS_9allocatorIS4_EEEEEC1B8ue170006ES8_, symObjAddr: 0xE950, symBinAddr: 0x100010CB4, symSize: 0x34 }
  - { offsetInCU: 0x36366, offset: 0x36366, size: 0x8, addend: 0x0, symName: __ZNSt3__111__wrap_iterIPNS_6vectorIN2cv6Point_IiEENS_9allocatorIS4_EEEEEC2B8ue170006ES8_, symObjAddr: 0xE984, symBinAddr: 0x100010CE8, symSize: 0x20 }
  - { offsetInCU: 0x3639E, offset: 0x3639E, size: 0x8, addend: 0x0, symName: __ZN2cv11_InputArrayC2INS_6Point_IiEEEERKNSt3__16vectorIT_NS4_9allocatorIS6_EEEE, symObjAddr: 0xE9A4, symBinAddr: 0x100010D08, symSize: 0x48 }
  - { offsetInCU: 0x363DF, offset: 0x363DF, size: 0x8, addend: 0x0, symName: __ZL7cvRoundf, symObjAddr: 0xEA10, symBinAddr: 0x100010D74, symSize: 0x28 }
  - { offsetInCU: 0x3640E, offset: 0x3640E, size: 0x8, addend: 0x0, symName: __ZNSt3__16vectorINS_12basic_stringIcNS_11char_traitsIcEENS_9allocatorIcEEEENS4_IS6_EEEC2B8ue170006ESt16initializer_listIS6_E, symObjAddr: 0xEA38, symBinAddr: 0x100010D9C, symSize: 0x120 }
  - { offsetInCU: 0x3645E, offset: 0x3645E, size: 0x8, addend: 0x0, symName: __ZNSt3__117__compressed_pairIPNS_12basic_stringIcNS_11char_traitsIcEENS_9allocatorIcEEEENS4_IS6_EEEC1B8ue170006IDnNS_18__default_init_tagEEEOT_OT0_, symObjAddr: 0xEB58, symBinAddr: 0x100010EBC, symSize: 0x3C }
  - { offsetInCU: 0x364B6, offset: 0x364B6, size: 0x8, addend: 0x0, symName: __ZNSt3__16vectorINS_12basic_stringIcNS_11char_traitsIcEENS_9allocatorIcEEEENS4_IS6_EEE16__destroy_vectorC1B8ue170006ERS8_, symObjAddr: 0xEBD4, symBinAddr: 0x100010F38, symSize: 0x34 }
  - { offsetInCU: 0x364EF, offset: 0x364EF, size: 0x8, addend: 0x0, symName: __ZNKSt16initializer_listINSt3__112basic_stringIcNS0_11char_traitsIcEENS0_9allocatorIcEEEEE4sizeB8ue170006Ev, symObjAddr: 0xEC08, symBinAddr: 0x100010F6C, symSize: 0x18 }
  - { offsetInCU: 0x36515, offset: 0x36515, size: 0x8, addend: 0x0, symName: __ZNSt3__16vectorINS_12basic_stringIcNS_11char_traitsIcEENS_9allocatorIcEEEENS4_IS6_EEE11__vallocateB8ue170006Em, symObjAddr: 0xEC20, symBinAddr: 0x100010F84, symSize: 0xB4 }
  - { offsetInCU: 0x36559, offset: 0x36559, size: 0x8, addend: 0x0, symName: __ZNSt3__16vectorINS_12basic_stringIcNS_11char_traitsIcEENS_9allocatorIcEEEENS4_IS6_EEE18__construct_at_endIPKS6_SB_EEvT_T0_m, symObjAddr: 0xECD4, symBinAddr: 0x100011038, symSize: 0x8C }
  - { offsetInCU: 0x365CF, offset: 0x365CF, size: 0x8, addend: 0x0, symName: __ZNKSt16initializer_listINSt3__112basic_stringIcNS0_11char_traitsIcEENS0_9allocatorIcEEEEE5beginB8ue170006Ev, symObjAddr: 0xED60, symBinAddr: 0x1000110C4, symSize: 0x18 }
  - { offsetInCU: 0x365F5, offset: 0x365F5, size: 0x8, addend: 0x0, symName: __ZNKSt16initializer_listINSt3__112basic_stringIcNS0_11char_traitsIcEENS0_9allocatorIcEEEEE3endB8ue170006Ev, symObjAddr: 0xED78, symBinAddr: 0x1000110DC, symSize: 0x28 }
  - { offsetInCU: 0x3661B, offset: 0x3661B, size: 0x8, addend: 0x0, symName: __ZNSt3__128__exception_guard_exceptionsINS_6vectorINS_12basic_stringIcNS_11char_traitsIcEENS_9allocatorIcEEEENS5_IS7_EEE16__destroy_vectorEE10__completeB8ue170006Ev, symObjAddr: 0xEDA0, symBinAddr: 0x100011104, symSize: 0x1C }
  - { offsetInCU: 0x36641, offset: 0x36641, size: 0x8, addend: 0x0, symName: __ZNSt3__128__exception_guard_exceptionsINS_6vectorINS_12basic_stringIcNS_11char_traitsIcEENS_9allocatorIcEEEENS5_IS7_EEE16__destroy_vectorEED1B8ue170006Ev, symObjAddr: 0xEDBC, symBinAddr: 0x100011120, symSize: 0x2C }
  - { offsetInCU: 0x3666B, offset: 0x3666B, size: 0x8, addend: 0x0, symName: __ZNSt3__117__compressed_pairIPNS_12basic_stringIcNS_11char_traitsIcEENS_9allocatorIcEEEENS4_IS6_EEEC2B8ue170006IDnNS_18__default_init_tagEEEOT_OT0_, symObjAddr: 0xEDE8, symBinAddr: 0x10001114C, symSize: 0x40 }
  - { offsetInCU: 0x366C3, offset: 0x366C3, size: 0x8, addend: 0x0, symName: __ZNSt3__122__compressed_pair_elemIPNS_12basic_stringIcNS_11char_traitsIcEENS_9allocatorIcEEEELi0ELb0EEC2B8ue170006IDnvEEOT_, symObjAddr: 0xEE28, symBinAddr: 0x10001118C, symSize: 0x1C }
  - { offsetInCU: 0x36705, offset: 0x36705, size: 0x8, addend: 0x0, symName: __ZNSt3__122__compressed_pair_elemINS_9allocatorINS_12basic_stringIcNS_11char_traitsIcEENS1_IcEEEEEELi1ELb1EEC2B8ue170006ENS_18__default_init_tagE, symObjAddr: 0xEE44, symBinAddr: 0x1000111A8, symSize: 0x2C }
  - { offsetInCU: 0x36739, offset: 0x36739, size: 0x8, addend: 0x0, symName: __ZNSt3__19allocatorINS_12basic_stringIcNS_11char_traitsIcEENS0_IcEEEEEC2B8ue170006Ev, symObjAddr: 0xEE70, symBinAddr: 0x1000111D4, symSize: 0x2C }
  - { offsetInCU: 0x36763, offset: 0x36763, size: 0x8, addend: 0x0, symName: __ZNSt3__116__non_trivial_ifILb1ENS_9allocatorINS_12basic_stringIcNS_11char_traitsIcEENS1_IcEEEEEEEC2B8ue170006Ev, symObjAddr: 0xEE9C, symBinAddr: 0x100011200, symSize: 0x14 }
  - { offsetInCU: 0x3678D, offset: 0x3678D, size: 0x8, addend: 0x0, symName: __ZNSt3__128__exception_guard_exceptionsINS_6vectorINS_12basic_stringIcNS_11char_traitsIcEENS_9allocatorIcEEEENS5_IS7_EEE16__destroy_vectorEEC1B8ue170006ESA_, symObjAddr: 0xEEB0, symBinAddr: 0x100011214, symSize: 0x34 }
  - { offsetInCU: 0x367C5, offset: 0x367C5, size: 0x8, addend: 0x0, symName: __ZNSt3__128__exception_guard_exceptionsINS_6vectorINS_12basic_stringIcNS_11char_traitsIcEENS_9allocatorIcEEEENS5_IS7_EEE16__destroy_vectorEEC2B8ue170006ESA_, symObjAddr: 0xEEE4, symBinAddr: 0x100011248, symSize: 0x24 }
  - { offsetInCU: 0x367FD, offset: 0x367FD, size: 0x8, addend: 0x0, symName: __ZNSt3__16vectorINS_12basic_stringIcNS_11char_traitsIcEENS_9allocatorIcEEEENS4_IS6_EEE16__destroy_vectorC2B8ue170006ERS8_, symObjAddr: 0xEF08, symBinAddr: 0x10001126C, symSize: 0x20 }
  - { offsetInCU: 0x36836, offset: 0x36836, size: 0x8, addend: 0x0, symName: __ZNKSt3__16vectorINS_12basic_stringIcNS_11char_traitsIcEENS_9allocatorIcEEEENS4_IS6_EEE8max_sizeEv, symObjAddr: 0xEF28, symBinAddr: 0x10001128C, symSize: 0x60 }
  - { offsetInCU: 0x3685E, offset: 0x3685E, size: 0x8, addend: 0x0, symName: __ZNKSt3__16vectorINS_12basic_stringIcNS_11char_traitsIcEENS_9allocatorIcEEEENS4_IS6_EEE20__throw_length_errorB8ue170006Ev, symObjAddr: 0xEF88, symBinAddr: 0x1000112EC, symSize: 0x1C }
  - { offsetInCU: 0x36884, offset: 0x36884, size: 0x8, addend: 0x0, symName: __ZNSt3__16vectorINS_12basic_stringIcNS_11char_traitsIcEENS_9allocatorIcEEEENS4_IS6_EEE7__allocB8ue170006Ev, symObjAddr: 0xEFE4, symBinAddr: 0x100011348, symSize: 0x28 }
  - { offsetInCU: 0x368AA, offset: 0x368AA, size: 0x8, addend: 0x0, symName: __ZNSt3__16vectorINS_12basic_stringIcNS_11char_traitsIcEENS_9allocatorIcEEEENS4_IS6_EEE9__end_capB8ue170006Ev, symObjAddr: 0xF00C, symBinAddr: 0x100011370, symSize: 0x28 }
  - { offsetInCU: 0x368D0, offset: 0x368D0, size: 0x8, addend: 0x0, symName: __ZNKSt3__16vectorINS_12basic_stringIcNS_11char_traitsIcEENS_9allocatorIcEEEENS4_IS6_EEE14__annotate_newB8ue170006Em, symObjAddr: 0xF034, symBinAddr: 0x100011398, symSize: 0xC8 }
  - { offsetInCU: 0x3690F, offset: 0x3690F, size: 0x8, addend: 0x0, symName: __ZNSt3__116allocator_traitsINS_9allocatorINS_12basic_stringIcNS_11char_traitsIcEENS1_IcEEEEEEE8max_sizeB8ue170006IS7_vEEmRKS7_, symObjAddr: 0xF0FC, symBinAddr: 0x100011460, symSize: 0x24 }
  - { offsetInCU: 0x3693D, offset: 0x3693D, size: 0x8, addend: 0x0, symName: __ZNKSt3__16vectorINS_12basic_stringIcNS_11char_traitsIcEENS_9allocatorIcEEEENS4_IS6_EEE7__allocB8ue170006Ev, symObjAddr: 0xF120, symBinAddr: 0x100011484, symSize: 0x28 }
  - { offsetInCU: 0x36963, offset: 0x36963, size: 0x8, addend: 0x0, symName: __ZNSt3__114numeric_limitsIlE3maxB8ue170006Ev, symObjAddr: 0xF148, symBinAddr: 0x1000114AC, symSize: 0x14 }
  - { offsetInCU: 0x36977, offset: 0x36977, size: 0x8, addend: 0x0, symName: __ZNKSt3__19allocatorINS_12basic_stringIcNS_11char_traitsIcEENS0_IcEEEEE8max_sizeB8ue170006Ev, symObjAddr: 0xF15C, symBinAddr: 0x1000114C0, symSize: 0x18 }
  - { offsetInCU: 0x3699D, offset: 0x3699D, size: 0x8, addend: 0x0, symName: __ZNKSt3__117__compressed_pairIPNS_12basic_stringIcNS_11char_traitsIcEENS_9allocatorIcEEEENS4_IS6_EEE6secondB8ue170006Ev, symObjAddr: 0xF174, symBinAddr: 0x1000114D8, symSize: 0x24 }
  - { offsetInCU: 0x369C3, offset: 0x369C3, size: 0x8, addend: 0x0, symName: __ZNKSt3__122__compressed_pair_elemINS_9allocatorINS_12basic_stringIcNS_11char_traitsIcEENS1_IcEEEEEELi1ELb1EE5__getB8ue170006Ev, symObjAddr: 0xF198, symBinAddr: 0x1000114FC, symSize: 0x14 }
  - { offsetInCU: 0x369E9, offset: 0x369E9, size: 0x8, addend: 0x0, symName: __ZNSt3__123__libcpp_numeric_limitsIlLb1EE3maxB8ue170006Ev, symObjAddr: 0xF1AC, symBinAddr: 0x100011510, symSize: 0x8 }
  - { offsetInCU: 0x369FD, offset: 0x369FD, size: 0x8, addend: 0x0, symName: __ZNSt12length_errorC1B8ue170006EPKc, symObjAddr: 0xF218, symBinAddr: 0x10001157C, symSize: 0x34 }
  - { offsetInCU: 0x36A35, offset: 0x36A35, size: 0x8, addend: 0x0, symName: __ZNSt12length_errorC2B8ue170006EPKc, symObjAddr: 0xF24C, symBinAddr: 0x1000115B0, symSize: 0x4C }
  - { offsetInCU: 0x36A6D, offset: 0x36A6D, size: 0x8, addend: 0x0, symName: __ZNSt3__19allocatorINS_12basic_stringIcNS_11char_traitsIcEENS0_IcEEEEE8allocateB8ue170006Em, symObjAddr: 0xF298, symBinAddr: 0x1000115FC, symSize: 0x5C }
  - { offsetInCU: 0x36AA1, offset: 0x36AA1, size: 0x8, addend: 0x0, symName: __ZNSt3__117__compressed_pairIPNS_12basic_stringIcNS_11char_traitsIcEENS_9allocatorIcEEEENS4_IS6_EEE6secondB8ue170006Ev, symObjAddr: 0xF2F4, symBinAddr: 0x100011658, symSize: 0x24 }
  - { offsetInCU: 0x36AC7, offset: 0x36AC7, size: 0x8, addend: 0x0, symName: __ZNSt3__122__compressed_pair_elemINS_9allocatorINS_12basic_stringIcNS_11char_traitsIcEENS1_IcEEEEEELi1ELb1EE5__getB8ue170006Ev, symObjAddr: 0xF318, symBinAddr: 0x10001167C, symSize: 0x14 }
  - { offsetInCU: 0x36AED, offset: 0x36AED, size: 0x8, addend: 0x0, symName: __ZNSt3__117__compressed_pairIPNS_12basic_stringIcNS_11char_traitsIcEENS_9allocatorIcEEEENS4_IS6_EEE5firstB8ue170006Ev, symObjAddr: 0xF32C, symBinAddr: 0x100011690, symSize: 0x24 }
  - { offsetInCU: 0x36B13, offset: 0x36B13, size: 0x8, addend: 0x0, symName: __ZNSt3__122__compressed_pair_elemIPNS_12basic_stringIcNS_11char_traitsIcEENS_9allocatorIcEEEELi0ELb0EE5__getB8ue170006Ev, symObjAddr: 0xF350, symBinAddr: 0x1000116B4, symSize: 0x14 }
  - { offsetInCU: 0x36B39, offset: 0x36B39, size: 0x8, addend: 0x0, symName: __ZNKSt3__16vectorINS_12basic_stringIcNS_11char_traitsIcEENS_9allocatorIcEEEENS4_IS6_EEE31__annotate_contiguous_containerB8ue170006EPKvSA_SA_SA_, symObjAddr: 0xF364, symBinAddr: 0x1000116C8, symSize: 0x20 }
  - { offsetInCU: 0x36B8F, offset: 0x36B8F, size: 0x8, addend: 0x0, symName: __ZNKSt3__16vectorINS_12basic_stringIcNS_11char_traitsIcEENS_9allocatorIcEEEENS4_IS6_EEE4dataB8ue170006Ev, symObjAddr: 0xF384, symBinAddr: 0x1000116E8, symSize: 0x28 }
  - { offsetInCU: 0x36BB5, offset: 0x36BB5, size: 0x8, addend: 0x0, symName: __ZNKSt3__16vectorINS_12basic_stringIcNS_11char_traitsIcEENS_9allocatorIcEEEENS4_IS6_EEE8capacityB8ue170006Ev, symObjAddr: 0xF3AC, symBinAddr: 0x100011710, symSize: 0x40 }
  - { offsetInCU: 0x36BDB, offset: 0x36BDB, size: 0x8, addend: 0x0, symName: __ZNKSt3__16vectorINS_12basic_stringIcNS_11char_traitsIcEENS_9allocatorIcEEEENS4_IS6_EEE9__end_capB8ue170006Ev, symObjAddr: 0xF400, symBinAddr: 0x100011764, symSize: 0x28 }
  - { offsetInCU: 0x36C01, offset: 0x36C01, size: 0x8, addend: 0x0, symName: __ZNKSt3__117__compressed_pairIPNS_12basic_stringIcNS_11char_traitsIcEENS_9allocatorIcEEEENS4_IS6_EEE5firstB8ue170006Ev, symObjAddr: 0xF428, symBinAddr: 0x10001178C, symSize: 0x24 }
  - { offsetInCU: 0x36C27, offset: 0x36C27, size: 0x8, addend: 0x0, symName: __ZNKSt3__122__compressed_pair_elemIPNS_12basic_stringIcNS_11char_traitsIcEENS_9allocatorIcEEEELi0ELb0EE5__getB8ue170006Ev, symObjAddr: 0xF44C, symBinAddr: 0x1000117B0, symSize: 0x14 }
  - { offsetInCU: 0x36C66, offset: 0x36C66, size: 0x8, addend: 0x0, symName: __ZNSt3__16vectorINS_12basic_stringIcNS_11char_traitsIcEENS_9allocatorIcEEEENS4_IS6_EEE21_ConstructTransactionC1B8ue170006ERS8_m, symObjAddr: 0xF460, symBinAddr: 0x1000117C4, symSize: 0x3C }
  - { offsetInCU: 0x36CAE, offset: 0x36CAE, size: 0x8, addend: 0x0, symName: __ZNSt3__16vectorINS_12basic_stringIcNS_11char_traitsIcEENS_9allocatorIcEEEENS4_IS6_EEE21_ConstructTransactionD1B8ue170006Ev, symObjAddr: 0xF51C, symBinAddr: 0x100011880, symSize: 0x2C }
  - { offsetInCU: 0x36CD8, offset: 0x36CD8, size: 0x8, addend: 0x0, symName: __ZNSt3__16vectorINS_12basic_stringIcNS_11char_traitsIcEENS_9allocatorIcEEEENS4_IS6_EEE21_ConstructTransactionC2B8ue170006ERS8_m, symObjAddr: 0xF548, symBinAddr: 0x1000118AC, symSize: 0x4C }
  - { offsetInCU: 0x36D3E, offset: 0x36D3E, size: 0x8, addend: 0x0, symName: __ZNSt3__14pairIPKNS_12basic_stringIcNS_11char_traitsIcEENS_9allocatorIcEEEES8_EC1B8ue170006IS8_S8_LPv0EEEOT_OT0_, symObjAddr: 0xF7A4, symBinAddr: 0x100011B08, symSize: 0x3C }
  - { offsetInCU: 0x36D9C, offset: 0x36D9C, size: 0x8, addend: 0x0, symName: __ZNSt3__14pairIPKNS_12basic_stringIcNS_11char_traitsIcEENS_9allocatorIcEEEES8_EC2B8ue170006IS8_S8_LPv0EEEOT_OT0_, symObjAddr: 0xF7E0, symBinAddr: 0x100011B44, symSize: 0x34 }
  - { offsetInCU: 0x36DFA, offset: 0x36DFA, size: 0x8, addend: 0x0, symName: __ZNSt3__118__unwrap_iter_implIPKNS_12basic_stringIcNS_11char_traitsIcEENS_9allocatorIcEEEELb1EE8__unwrapB8ue170006ES8_, symObjAddr: 0xF814, symBinAddr: 0x100011B78, symSize: 0x24 }
  - { offsetInCU: 0x36E1D, offset: 0x36E1D, size: 0x8, addend: 0x0, symName: __ZNSt3__129_AllocatorDestroyRangeReverseINS_9allocatorINS_12basic_stringIcNS_11char_traitsIcEENS1_IcEEEEEEPS6_EC1B8ue170006ERS7_RS8_SB_, symObjAddr: 0xF898, symBinAddr: 0x100011BFC, symSize: 0x44 }
  - { offsetInCU: 0x36E74, offset: 0x36E74, size: 0x8, addend: 0x0, symName: __ZNSt3__116allocator_traitsINS_9allocatorINS_12basic_stringIcNS_11char_traitsIcEENS1_IcEEEEEEE9constructB8ue170006IS6_JRKS6_EvEEvRS7_PT_DpOT0_, symObjAddr: 0xF8DC, symBinAddr: 0x100011C40, symSize: 0x34 }
  - { offsetInCU: 0x36ECB, offset: 0x36ECB, size: 0x8, addend: 0x0, symName: __ZNSt3__128__exception_guard_exceptionsINS_29_AllocatorDestroyRangeReverseINS_9allocatorINS_12basic_stringIcNS_11char_traitsIcEENS2_IcEEEEEEPS7_EEE10__completeB8ue170006Ev, symObjAddr: 0xF910, symBinAddr: 0x100011C74, symSize: 0x1C }
  - { offsetInCU: 0x36EF1, offset: 0x36EF1, size: 0x8, addend: 0x0, symName: __ZNSt3__128__exception_guard_exceptionsINS_29_AllocatorDestroyRangeReverseINS_9allocatorINS_12basic_stringIcNS_11char_traitsIcEENS2_IcEEEEEEPS7_EEED1B8ue170006Ev, symObjAddr: 0xF92C, symBinAddr: 0x100011C90, symSize: 0x2C }
  - { offsetInCU: 0x36F1B, offset: 0x36F1B, size: 0x8, addend: 0x0, symName: __ZNSt3__128__exception_guard_exceptionsINS_29_AllocatorDestroyRangeReverseINS_9allocatorINS_12basic_stringIcNS_11char_traitsIcEENS2_IcEEEEEEPS7_EEEC1B8ue170006ESA_, symObjAddr: 0xF958, symBinAddr: 0x100011CBC, symSize: 0x34 }
  - { offsetInCU: 0x36F54, offset: 0x36F54, size: 0x8, addend: 0x0, symName: __ZNSt3__128__exception_guard_exceptionsINS_29_AllocatorDestroyRangeReverseINS_9allocatorINS_12basic_stringIcNS_11char_traitsIcEENS2_IcEEEEEEPS7_EEEC2B8ue170006ESA_, symObjAddr: 0xF98C, symBinAddr: 0x100011CF0, symSize: 0x30 }
  - { offsetInCU: 0x36F8D, offset: 0x36F8D, size: 0x8, addend: 0x0, symName: __ZNSt3__129_AllocatorDestroyRangeReverseINS_9allocatorINS_12basic_stringIcNS_11char_traitsIcEENS1_IcEEEEEEPS6_EC2B8ue170006ERS7_RS8_SB_, symObjAddr: 0xF9BC, symBinAddr: 0x100011D20, symSize: 0x38 }
  - { offsetInCU: 0x36FE4, offset: 0x36FE4, size: 0x8, addend: 0x0, symName: __ZNSt3__19allocatorINS_12basic_stringIcNS_11char_traitsIcEENS0_IcEEEEE9constructB8ue170006IS5_JRKS5_EEEvPT_DpOT0_, symObjAddr: 0xF9F4, symBinAddr: 0x100011D58, symSize: 0x30 }
  - { offsetInCU: 0x3703A, offset: 0x3703A, size: 0x8, addend: 0x0, symName: __ZNSt3__128__exception_guard_exceptionsINS_29_AllocatorDestroyRangeReverseINS_9allocatorINS_12basic_stringIcNS_11char_traitsIcEENS2_IcEEEEEEPS7_EEED2B8ue170006Ev, symObjAddr: 0xFA24, symBinAddr: 0x100011D88, symSize: 0x50 }
  - { offsetInCU: 0x37064, offset: 0x37064, size: 0x8, addend: 0x0, symName: __ZNKSt3__129_AllocatorDestroyRangeReverseINS_9allocatorINS_12basic_stringIcNS_11char_traitsIcEENS1_IcEEEEEEPS6_EclB8ue170006Ev, symObjAddr: 0xFA74, symBinAddr: 0x100011DD8, symSize: 0x68 }
  - { offsetInCU: 0x3708A, offset: 0x3708A, size: 0x8, addend: 0x0, symName: __ZNSt3__116reverse_iteratorIPNS_12basic_stringIcNS_11char_traitsIcEENS_9allocatorIcEEEEEC1B8ue170006ES7_, symObjAddr: 0xFB4C, symBinAddr: 0x100011EB0, symSize: 0x34 }
  - { offsetInCU: 0x370C2, offset: 0x370C2, size: 0x8, addend: 0x0, symName: __ZNSt3__116allocator_traitsINS_9allocatorINS_12basic_stringIcNS_11char_traitsIcEENS1_IcEEEEEEE7destroyB8ue170006IS6_vEEvRS7_PT_, symObjAddr: 0xFBC8, symBinAddr: 0x100011F2C, symSize: 0x2C }
  - { offsetInCU: 0x370FF, offset: 0x370FF, size: 0x8, addend: 0x0, symName: __ZNSt3__116reverse_iteratorIPNS_12basic_stringIcNS_11char_traitsIcEENS_9allocatorIcEEEEEppB8ue170006Ev, symObjAddr: 0xFC18, symBinAddr: 0x100011F7C, symSize: 0x20 }
  - { offsetInCU: 0x37125, offset: 0x37125, size: 0x8, addend: 0x0, symName: __ZNKSt3__116reverse_iteratorIPNS_12basic_stringIcNS_11char_traitsIcEENS_9allocatorIcEEEEE4baseB8ue170006Ev, symObjAddr: 0xFC38, symBinAddr: 0x100011F9C, symSize: 0x18 }
  - { offsetInCU: 0x3714B, offset: 0x3714B, size: 0x8, addend: 0x0, symName: __ZNSt3__19allocatorINS_12basic_stringIcNS_11char_traitsIcEENS0_IcEEEEE7destroyB8ue170006EPS5_, symObjAddr: 0xFC50, symBinAddr: 0x100011FB4, symSize: 0x28 }
  - { offsetInCU: 0x37184, offset: 0x37184, size: 0x8, addend: 0x0, symName: __ZNSt3__119__to_address_helperINS_16reverse_iteratorIPNS_12basic_stringIcNS_11char_traitsIcEENS_9allocatorIcEEEEEEvE6__callB8ue170006ERKS9_, symObjAddr: 0xFC78, symBinAddr: 0x100011FDC, symSize: 0x38 }
  - { offsetInCU: 0x371A7, offset: 0x371A7, size: 0x8, addend: 0x0, symName: __ZNKSt3__116reverse_iteratorIPNS_12basic_stringIcNS_11char_traitsIcEENS_9allocatorIcEEEEEptB8ue170006Ev, symObjAddr: 0xFCB0, symBinAddr: 0x100012014, symSize: 0x24 }
  - { offsetInCU: 0x371CD, offset: 0x371CD, size: 0x8, addend: 0x0, symName: __ZNKSt3__116reverse_iteratorIPNS_12basic_stringIcNS_11char_traitsIcEENS_9allocatorIcEEEEEdeB8ue170006Ev, symObjAddr: 0xFCD4, symBinAddr: 0x100012038, symSize: 0x28 }
  - { offsetInCU: 0x37201, offset: 0x37201, size: 0x8, addend: 0x0, symName: __ZNSt3__116reverse_iteratorIPNS_12basic_stringIcNS_11char_traitsIcEENS_9allocatorIcEEEEEC2B8ue170006ES7_, symObjAddr: 0xFCFC, symBinAddr: 0x100012060, symSize: 0x28 }
  - { offsetInCU: 0x37239, offset: 0x37239, size: 0x8, addend: 0x0, symName: __ZNSt3__118__unwrap_iter_implIPNS_12basic_stringIcNS_11char_traitsIcEENS_9allocatorIcEEEELb1EE8__unwrapB8ue170006ES7_, symObjAddr: 0xFD24, symBinAddr: 0x100012088, symSize: 0x24 }
  - { offsetInCU: 0x3725C, offset: 0x3725C, size: 0x8, addend: 0x0, symName: __ZNSt3__118__unwrap_iter_implIPNS_12basic_stringIcNS_11char_traitsIcEENS_9allocatorIcEEEELb1EE8__rewrapB8ue170006ES7_S7_, symObjAddr: 0xFD48, symBinAddr: 0x1000120AC, symSize: 0x58 }
  - { offsetInCU: 0x3728D, offset: 0x3728D, size: 0x8, addend: 0x0, symName: __ZNSt3__16vectorINS_12basic_stringIcNS_11char_traitsIcEENS_9allocatorIcEEEENS4_IS6_EEE21_ConstructTransactionD2B8ue170006Ev, symObjAddr: 0xFDA0, symBinAddr: 0x100012104, symSize: 0x20 }
  - { offsetInCU: 0x372B7, offset: 0x372B7, size: 0x8, addend: 0x0, symName: __ZNSt3__128__exception_guard_exceptionsINS_6vectorINS_12basic_stringIcNS_11char_traitsIcEENS_9allocatorIcEEEENS5_IS7_EEE16__destroy_vectorEED2B8ue170006Ev, symObjAddr: 0xFDC0, symBinAddr: 0x100012124, symSize: 0x50 }
  - { offsetInCU: 0x372E1, offset: 0x372E1, size: 0x8, addend: 0x0, symName: __ZNSt3__16vectorINS_12basic_stringIcNS_11char_traitsIcEENS_9allocatorIcEEEENS4_IS6_EEE16__destroy_vectorclB8ue170006Ev, symObjAddr: 0xFE10, symBinAddr: 0x100012174, symSize: 0x90 }
  - { offsetInCU: 0x37307, offset: 0x37307, size: 0x8, addend: 0x0, symName: __ZNSt3__16vectorINS_12basic_stringIcNS_11char_traitsIcEENS_9allocatorIcEEEENS4_IS6_EEE7__clearB8ue170006Ev, symObjAddr: 0xFEA0, symBinAddr: 0x100012204, symSize: 0x28 }
  - { offsetInCU: 0x3732D, offset: 0x3732D, size: 0x8, addend: 0x0, symName: __ZNKSt3__16vectorINS_12basic_stringIcNS_11char_traitsIcEENS_9allocatorIcEEEENS4_IS6_EEE17__annotate_deleteB8ue170006Ev, symObjAddr: 0xFEC8, symBinAddr: 0x10001222C, symSize: 0xD4 }
  - { offsetInCU: 0x37353, offset: 0x37353, size: 0x8, addend: 0x0, symName: __ZNSt3__116allocator_traitsINS_9allocatorINS_12basic_stringIcNS_11char_traitsIcEENS1_IcEEEEEEE10deallocateB8ue170006ERS7_PS6_m, symObjAddr: 0xFF9C, symBinAddr: 0x100012300, symSize: 0x34 }
  - { offsetInCU: 0x37395, offset: 0x37395, size: 0x8, addend: 0x0, symName: __ZNSt3__16vectorINS_12basic_stringIcNS_11char_traitsIcEENS_9allocatorIcEEEENS4_IS6_EEE22__base_destruct_at_endB8ue170006EPS6_, symObjAddr: 0xFFD0, symBinAddr: 0x100012334, symSize: 0x8C }
  - { offsetInCU: 0x373D9, offset: 0x373D9, size: 0x8, addend: 0x0, symName: __ZNSt3__19allocatorINS_12basic_stringIcNS_11char_traitsIcEENS0_IcEEEEE10deallocateB8ue170006EPS5_m, symObjAddr: 0x1005C, symBinAddr: 0x1000123C0, symSize: 0x44 }
  - { offsetInCU: 0x3741B, offset: 0x3741B, size: 0x8, addend: 0x0, symName: __ZNSt3__16vectorINS_12basic_stringIcNS_11char_traitsIcEENS_9allocatorIcEEEENS4_IS6_EEED2B8ue170006Ev, symObjAddr: 0x100A0, symBinAddr: 0x100012404, symSize: 0x40 }
...
