---
triple:          'arm64-apple-darwin'
binary-path:     project7
relocations:
  - { offsetInCU: 0x52, offset: 0x52, size: 0x8, addend: 0x0, symName: _rgbColorMap, symObjAddr: 0xEB880, symBinAddr: 0x10001C000, symSize: 0x0 }
  - { offsetInCU: 0x533F, offset: 0x533F, size: 0x8, addend: 0x0, symName: __ZNSt3__1L19piecewise_constructE, symObjAddr: 0x12793, symBinAddr: 0x1000173C8, symSize: 0x0 }
  - { offsetInCU: 0xCFB6, offset: 0xCFB6, size: 0x8, addend: 0x0, symName: __ZNSt3__124__put_character_sequenceB8ue170006IcNS_11char_traitsIcEEEERNS_13basic_ostreamIT_T0_EES7_PKS4_m, symObjAddr: 0x38B8, symBinAddr: 0x100007FB0, symSize: 0x1EC }
  - { offsetInCU: 0xDE1F, offset: 0xDE1F, size: 0x8, addend: 0x0, symName: __ZNSt3__17advanceB8ue170006INS_21__tree_const_iteratorINS_12__value_typeINS_12basic_stringIcNS_11char_traitsIcEENS_9allocatorIcEEEEN2cv7Scalar_IdEEEEPNS_11__tree_nodeISC_PvEElEEllvEEvRT_T0_, symObjAddr: 0x5EF0, symBinAddr: 0x10000A5E8, symSize: 0x38 }
  - { offsetInCU: 0x12202, offset: 0x12202, size: 0x8, addend: 0x0, symName: __ZNSt3__17advanceB8ue170006INS_21__tree_const_iteratorINS_12__value_typeINS_12basic_stringIcNS_11char_traitsIcEENS_9allocatorIcEEEEiEEPNS_11__tree_nodeIS9_PvEElEEllvEEvRT_T0_, symObjAddr: 0x8AF4, symBinAddr: 0x10000D1EC, symSize: 0x38 }
  - { offsetInCU: 0x14BCE, offset: 0x14BCE, size: 0x8, addend: 0x0, symName: __ZNSt3__17advanceB8ue170006INS_21__tree_const_iteratorINS_12__value_typeINS_12basic_stringIcNS_11char_traitsIcEENS_9allocatorIcEEEEdEEPNS_11__tree_nodeIS9_PvEElEEllvEEvRT_T0_, symObjAddr: 0xA904, symBinAddr: 0x10000EFFC, symSize: 0x38 }
  - { offsetInCU: 0x1C16B, offset: 0x1C16B, size: 0x8, addend: 0x0, symName: __ZNSt3__1neB8ue170006ERKNS_14__map_iteratorINS_15__tree_iteratorINS_12__value_typeINS_12basic_stringIcNS_11char_traitsIcEENS_9allocatorIcEEEEN2cv7Scalar_IdEEEEPNS_11__tree_nodeISC_PvEElEEEESK_, symObjAddr: 0x740, symBinAddr: 0x100004E38, symSize: 0x30 }
  - { offsetInCU: 0x1C1A8, offset: 0x1C1A8, size: 0x8, addend: 0x0, symName: __ZNSt3__1eqB8ue170006ERKNS_14__map_iteratorINS_15__tree_iteratorINS_12__value_typeINS_12basic_stringIcNS_11char_traitsIcEENS_9allocatorIcEEEEiEEPNS_11__tree_nodeIS9_PvEElEEEESH_, symObjAddr: 0x14C4, symBinAddr: 0x100005BBC, symSize: 0x30 }
  - { offsetInCU: 0x1C1E5, offset: 0x1C1E5, size: 0x8, addend: 0x0, symName: __ZNSt3__1eqB8ue170006ERKNS_14__map_iteratorINS_15__tree_iteratorINS_12__value_typeINS_12basic_stringIcNS_11char_traitsIcEENS_9allocatorIcEEEEdEEPNS_11__tree_nodeIS9_PvEElEEEESH_, symObjAddr: 0x1598, symBinAddr: 0x100005C90, symSize: 0x30 }
  - { offsetInCU: 0x1C222, offset: 0x1C222, size: 0x8, addend: 0x0, symName: __ZNSt3__1plB8ue170006IcNS_11char_traitsIcEENS_9allocatorIcEEEENS_12basic_stringIT_T0_T1_EEOS9_PKS6_, symObjAddr: 0x1740, symBinAddr: 0x100005E38, symSize: 0x40 }
  - { offsetInCU: 0x1C27A, offset: 0x1C27A, size: 0x8, addend: 0x0, symName: __ZNSt3__1neB8ue170006IPNS_6vectorIN2cv6Point_IiEENS_9allocatorIS4_EEEEEEbRKNS_11__wrap_iterIT_EESD_, symObjAddr: 0x22E8, symBinAddr: 0x1000069E0, symSize: 0x34 }
  - { offsetInCU: 0x1C2BD, offset: 0x1C2BD, size: 0x8, addend: 0x0, symName: __ZNSt3__1neB8ue170006IP8ResistorEEbRKNS_11__wrap_iterIT_EES7_, symObjAddr: 0x2548, symBinAddr: 0x100006C40, symSize: 0x34 }
  - { offsetInCU: 0x1C300, offset: 0x1C300, size: 0x8, addend: 0x0, symName: __ZNSt3__1neB8ue170006IPK8ResistorEEbRKNS_11__wrap_iterIT_EES8_, symObjAddr: 0x2C3C, symBinAddr: 0x100007334, symSize: 0x34 }
  - { offsetInCU: 0x1C343, offset: 0x1C343, size: 0x8, addend: 0x0, symName: __ZNSt3__1lsB8ue170006INS_11char_traitsIcEEEERNS_13basic_ostreamIcT_EES6_PKc, symObjAddr: 0x30B0, symBinAddr: 0x1000077A8, symSize: 0x48 }
  - { offsetInCU: 0x1C389, offset: 0x1C389, size: 0x8, addend: 0x0, symName: __ZNSt3__14endlB8ue170006IcNS_11char_traitsIcEEEERNS_13basic_ostreamIT_T0_EES7_, symObjAddr: 0x3124, symBinAddr: 0x10000781C, symSize: 0x58 }
  - { offsetInCU: 0x1C3C9, offset: 0x1C3C9, size: 0x8, addend: 0x0, symName: __ZNSt3__1eqB8ue170006IPNS_6vectorIN2cv6Point_IiEENS_9allocatorIS4_EEEEEEbRKNS_11__wrap_iterIT_EESD_, symObjAddr: 0x33D0, symBinAddr: 0x100007AC8, symSize: 0x48 }
  - { offsetInCU: 0x1C40C, offset: 0x1C40C, size: 0x8, addend: 0x0, symName: __ZNSt3__1eqB8ue170006IP8ResistorEEbRKNS_11__wrap_iterIT_EES7_, symObjAddr: 0x3430, symBinAddr: 0x100007B28, symSize: 0x48 }
  - { offsetInCU: 0x1C44F, offset: 0x1C44F, size: 0x8, addend: 0x0, symName: __ZNSt3__1eqB8ue170006IPK8ResistorEEbRKNS_11__wrap_iterIT_EES8_, symObjAddr: 0x34CC, symBinAddr: 0x100007BC4, symSize: 0x48 }
  - { offsetInCU: 0x1C492, offset: 0x1C492, size: 0x8, addend: 0x0, symName: __ZNSt3__118__constexpr_strlenB8ue170006EPKc, symObjAddr: 0x3758, symBinAddr: 0x100007E50, symSize: 0x24 }
  - { offsetInCU: 0x1C4BE, offset: 0x1C4BE, size: 0x8, addend: 0x0, symName: __ZNSt3__116__pad_and_outputB8ue170006IcNS_11char_traitsIcEEEENS_19ostreambuf_iteratorIT_T0_EES6_PKS4_S8_S8_RNS_8ios_baseES4_, symObjAddr: 0x3AC0, symBinAddr: 0x1000081B8, symSize: 0x240 }
  - { offsetInCU: 0x1C58D, offset: 0x1C58D, size: 0x8, addend: 0x0, symName: __ZNSt3__112__to_addressB8ue170006IKcEEPT_S3_, symObjAddr: 0x3F30, symBinAddr: 0x100008628, symSize: 0x14 }
  - { offsetInCU: 0x1C5F5, offset: 0x1C5F5, size: 0x8, addend: 0x0, symName: __ZNSt3__19use_facetB8ue170006INS_5ctypeIcEEEERKT_RKNS_6localeE, symObjAddr: 0x41B0, symBinAddr: 0x1000088A8, symSize: 0x2C }
  - { offsetInCU: 0x1CB19, offset: 0x1CB19, size: 0x8, addend: 0x0, symName: __ZNSt3__1eqB8ue170006ERKNS_21__tree_const_iteratorINS_12__value_typeINS_12basic_stringIcNS_11char_traitsIcEENS_9allocatorIcEEEEN2cv7Scalar_IdEEEEPNS_11__tree_nodeISB_PvEElEESI_, symObjAddr: 0x5494, symBinAddr: 0x100009B8C, symSize: 0x30 }
  - { offsetInCU: 0x1CB56, offset: 0x1CB56, size: 0x8, addend: 0x0, symName: __ZNSt3__14nextB8ue170006INS_21__tree_const_iteratorINS_12__value_typeINS_12basic_stringIcNS_11char_traitsIcEENS_9allocatorIcEEEEN2cv7Scalar_IdEEEEPNS_11__tree_nodeISC_PvEElEEEENS_9enable_ifIXsr29__has_input_iterator_categoryIT_EE5valueESJ_E4typeESJ_NS_15iterator_traitsISJ_E15difference_typeE, symObjAddr: 0x5804, symBinAddr: 0x100009EFC, symSize: 0x3C }
  - { offsetInCU: 0x1CB99, offset: 0x1CB99, size: 0x8, addend: 0x0, symName: __ZNSt3__1ltB8ue170006IcNS_11char_traitsIcEENS_9allocatorIcEEEEbRKNS_12basic_stringIT_T0_T1_EESB_, symObjAddr: 0x594C, symBinAddr: 0x10000A044, symSize: 0x38 }
  - { offsetInCU: 0x1CBF1, offset: 0x1CBF1, size: 0x8, addend: 0x0, symName: __ZNSt3__13minB8ue170006ImEERKT_S3_S3_, symObjAddr: 0x5C04, symBinAddr: 0x10000A2FC, symSize: 0x2C }
  - { offsetInCU: 0x1CC34, offset: 0x1CC34, size: 0x8, addend: 0x0, symName: __ZNSt3__13minB8ue170006ImNS_6__lessIvvEEEERKT_S5_S5_T0_, symObjAddr: 0x5C8C, symBinAddr: 0x10000A384, symSize: 0x54 }
  - { offsetInCU: 0x1CD04, offset: 0x1CD04, size: 0x8, addend: 0x0, symName: __ZNSt3__116__tree_prev_iterB8ue170006IPNS_16__tree_node_baseIPvEEPNS_15__tree_end_nodeIS4_EEEET_T0_, symObjAddr: 0x5D7C, symBinAddr: 0x10000A474, symSize: 0xA4 }
  - { offsetInCU: 0x1CD50, offset: 0x1CD50, size: 0x8, addend: 0x0, symName: __ZNSt3__110__tree_maxB8ue170006IPNS_16__tree_node_baseIPvEEEET_S5_, symObjAddr: 0x5E20, symBinAddr: 0x10000A518, symSize: 0x40 }
  - { offsetInCU: 0x1CD85, offset: 0x1CD85, size: 0x8, addend: 0x0, symName: __ZNSt3__120__tree_is_left_childB8ue170006IPNS_16__tree_node_baseIPvEEEEbT_, symObjAddr: 0x5E60, symBinAddr: 0x10000A558, symSize: 0x2C }
  - { offsetInCU: 0x1CDBA, offset: 0x1CDBA, size: 0x8, addend: 0x0, symName: __ZNSt3__121__convert_to_integralB8ue170006El, symObjAddr: 0x5F28, symBinAddr: 0x10000A620, symSize: 0x14 }
  - { offsetInCU: 0x1CDE6, offset: 0x1CDE6, size: 0x8, addend: 0x0, symName: __ZNSt3__19__advanceB8ue170006INS_21__tree_const_iteratorINS_12__value_typeINS_12basic_stringIcNS_11char_traitsIcEENS_9allocatorIcEEEEN2cv7Scalar_IdEEEEPNS_11__tree_nodeISC_PvEElEEEEvRT_NS_15iterator_traitsISI_E15difference_typeENS_26bidirectional_iterator_tagE, symObjAddr: 0x5F3C, symBinAddr: 0x10000A634, symSize: 0xA4 }
  - { offsetInCU: 0x1CE2F, offset: 0x1CE2F, size: 0x8, addend: 0x0, symName: __ZNSt3__116__tree_next_iterB8ue170006IPNS_15__tree_end_nodeIPNS_16__tree_node_baseIPvEEEES5_EET_T0_, symObjAddr: 0x6018, symBinAddr: 0x10000A710, symSize: 0x80 }
  - { offsetInCU: 0x1CE6D, offset: 0x1CE6D, size: 0x8, addend: 0x0, symName: __ZNSt3__110__tree_minB8ue170006IPNS_16__tree_node_baseIPvEEEET_S5_, symObjAddr: 0x6098, symBinAddr: 0x10000A790, symSize: 0x40 }
  - { offsetInCU: 0x1CEC0, offset: 0x1CEC0, size: 0x8, addend: 0x0, symName: __ZNSt3__117__libcpp_allocateB8ue170006Emm, symObjAddr: 0x6340, symBinAddr: 0x10000AA38, symSize: 0x28 }
  - { offsetInCU: 0x1CEFD, offset: 0x1CEFD, size: 0x8, addend: 0x0, symName: __ZNSt3__121__libcpp_operator_newB8ue170006IJmEEEPvDpT_, symObjAddr: 0x6388, symBinAddr: 0x10000AA80, symSize: 0x24 }
  - { offsetInCU: 0x1CF36, offset: 0x1CF36, size: 0x8, addend: 0x0, symName: __ZNSt3__127__tree_balance_after_insertB8ue170006IPNS_16__tree_node_baseIPvEEEEvT_S5_, symObjAddr: 0x675C, symBinAddr: 0x10000AE54, symSize: 0x27C }
  - { offsetInCU: 0x1CFB2, offset: 0x1CFB2, size: 0x8, addend: 0x0, symName: __ZNSt3__118__tree_left_rotateB8ue170006IPNS_16__tree_node_baseIPvEEEEvT_, symObjAddr: 0x6A00, symBinAddr: 0x10000B0F8, symSize: 0xD8 }
  - { offsetInCU: 0x1CFF4, offset: 0x1CFF4, size: 0x8, addend: 0x0, symName: __ZNSt3__119__tree_right_rotateB8ue170006IPNS_16__tree_node_baseIPvEEEEvT_, symObjAddr: 0x6AD8, symBinAddr: 0x10000B1D0, symSize: 0xCC }
  - { offsetInCU: 0x1D036, offset: 0x1D036, size: 0x8, addend: 0x0, symName: __ZNSt3__119__libcpp_deallocateB8ue170006EPvmm, symObjAddr: 0x6E14, symBinAddr: 0x10000B50C, symSize: 0x30 }
  - { offsetInCU: 0x1D07E, offset: 0x1D07E, size: 0x8, addend: 0x0, symName: __ZNSt3__127__do_deallocate_handle_sizeB8ue170006IJEEEvPvmDpT_, symObjAddr: 0x6E44, symBinAddr: 0x10000B53C, symSize: 0x28 }
  - { offsetInCU: 0x1D0BC, offset: 0x1D0BC, size: 0x8, addend: 0x0, symName: __ZNSt3__124__libcpp_operator_deleteB8ue170006IJPvEEEvDpT_, symObjAddr: 0x6E6C, symBinAddr: 0x10000B564, symSize: 0x24 }
  - { offsetInCU: 0x1D0F1, offset: 0x1D0F1, size: 0x8, addend: 0x0, symName: __ZNSt3__1neB8ue170006ERKNS_15__tree_iteratorINS_12__value_typeINS_12basic_stringIcNS_11char_traitsIcEENS_9allocatorIcEEEEN2cv7Scalar_IdEEEEPNS_11__tree_nodeISB_PvEElEESI_, symObjAddr: 0x711C, symBinAddr: 0x10000B814, symSize: 0x34 }
  - { offsetInCU: 0x1D12E, offset: 0x1D12E, size: 0x8, addend: 0x0, symName: __ZNSt3__1eqB8ue170006ERKNS_15__tree_iteratorINS_12__value_typeINS_12basic_stringIcNS_11char_traitsIcEENS_9allocatorIcEEEEN2cv7Scalar_IdEEEEPNS_11__tree_nodeISB_PvEElEESI_, symObjAddr: 0x7150, symBinAddr: 0x10000B848, symSize: 0x30 }
  - { offsetInCU: 0x1D1D5, offset: 0x1D1D5, size: 0x8, addend: 0x0, symName: __ZNSt3__116forward_as_tupleB8ue170006IJRKNS_12basic_stringIcNS_11char_traitsIcEENS_9allocatorIcEEEEEEENS_5tupleIJDpOT_EEESC_, symObjAddr: 0x7310, symBinAddr: 0x10000BA08, symSize: 0x2C }
  - { offsetInCU: 0x1D20E, offset: 0x1D20E, size: 0x8, addend: 0x0, symName: __ZNSt3__116forward_as_tupleB8ue170006IJEEENS_5tupleIJDpOT_EEES4_, symObjAddr: 0x733C, symBinAddr: 0x10000BA34, symSize: 0x4 }
  - { offsetInCU: 0x1D23D, offset: 0x1D23D, size: 0x8, addend: 0x0, symName: __ZNSt3__13getB8ue170006ILm0EJRKNS_12basic_stringIcNS_11char_traitsIcEENS_9allocatorIcEEEEEEERNS_13tuple_elementIXT_ENS_5tupleIJDpT0_EEEE4typeERSD_, symObjAddr: 0x75D8, symBinAddr: 0x10000BCD0, symSize: 0x24 }
  - { offsetInCU: 0x1D2A4, offset: 0x1D2A4, size: 0x8, addend: 0x0, symName: __ZNSt3__1eqB8ue170006ERKNS_21__tree_const_iteratorINS_12__value_typeINS_12basic_stringIcNS_11char_traitsIcEENS_9allocatorIcEEEEiEEPNS_11__tree_nodeIS8_PvEElEESF_, symObjAddr: 0x8624, symBinAddr: 0x10000CD1C, symSize: 0x30 }
  - { offsetInCU: 0x1D2E1, offset: 0x1D2E1, size: 0x8, addend: 0x0, symName: __ZNSt3__14nextB8ue170006INS_21__tree_const_iteratorINS_12__value_typeINS_12basic_stringIcNS_11char_traitsIcEENS_9allocatorIcEEEEiEEPNS_11__tree_nodeIS9_PvEElEEEENS_9enable_ifIXsr29__has_input_iterator_categoryIT_EE5valueESG_E4typeESG_NS_15iterator_traitsISG_E15difference_typeE, symObjAddr: 0x8994, symBinAddr: 0x10000D08C, symSize: 0x3C }
  - { offsetInCU: 0x1D324, offset: 0x1D324, size: 0x8, addend: 0x0, symName: __ZNSt3__19__advanceB8ue170006INS_21__tree_const_iteratorINS_12__value_typeINS_12basic_stringIcNS_11char_traitsIcEENS_9allocatorIcEEEEiEEPNS_11__tree_nodeIS9_PvEElEEEEvRT_NS_15iterator_traitsISF_E15difference_typeENS_26bidirectional_iterator_tagE, symObjAddr: 0x8B2C, symBinAddr: 0x10000D224, symSize: 0xA4 }
  - { offsetInCU: 0x1D38B, offset: 0x1D38B, size: 0x8, addend: 0x0, symName: __ZNSt3__1eqB8ue170006ERKNS_21__tree_const_iteratorINS_12__value_typeINS_12basic_stringIcNS_11char_traitsIcEENS_9allocatorIcEEEEdEEPNS_11__tree_nodeIS8_PvEElEESF_, symObjAddr: 0xA434, symBinAddr: 0x10000EB2C, symSize: 0x30 }
  - { offsetInCU: 0x1D3C8, offset: 0x1D3C8, size: 0x8, addend: 0x0, symName: __ZNSt3__14nextB8ue170006INS_21__tree_const_iteratorINS_12__value_typeINS_12basic_stringIcNS_11char_traitsIcEENS_9allocatorIcEEEEdEEPNS_11__tree_nodeIS9_PvEElEEEENS_9enable_ifIXsr29__has_input_iterator_categoryIT_EE5valueESG_E4typeESG_NS_15iterator_traitsISG_E15difference_typeE, symObjAddr: 0xA7A4, symBinAddr: 0x10000EE9C, symSize: 0x3C }
  - { offsetInCU: 0x1D40B, offset: 0x1D40B, size: 0x8, addend: 0x0, symName: __ZNSt3__19__advanceB8ue170006INS_21__tree_const_iteratorINS_12__value_typeINS_12basic_stringIcNS_11char_traitsIcEENS_9allocatorIcEEEEdEEPNS_11__tree_nodeIS9_PvEElEEEEvRT_NS_15iterator_traitsISF_E15difference_typeENS_26bidirectional_iterator_tagE, symObjAddr: 0xA93C, symBinAddr: 0x10000F034, symSize: 0xA4 }
  - { offsetInCU: 0x1D472, offset: 0x1D472, size: 0x8, addend: 0x0, symName: __ZNSt3__1neB8ue170006ERKNS_15__tree_iteratorINS_12__value_typeINS_12basic_stringIcNS_11char_traitsIcEENS_9allocatorIcEEEEiEEPNS_11__tree_nodeIS8_PvEElEESF_, symObjAddr: 0xB474, symBinAddr: 0x10000FB6C, symSize: 0x34 }
  - { offsetInCU: 0x1D4AF, offset: 0x1D4AF, size: 0x8, addend: 0x0, symName: __ZNSt3__1eqB8ue170006ERKNS_15__tree_iteratorINS_12__value_typeINS_12basic_stringIcNS_11char_traitsIcEENS_9allocatorIcEEEEiEEPNS_11__tree_nodeIS8_PvEElEESF_, symObjAddr: 0xB4D0, symBinAddr: 0x10000FBC8, symSize: 0x30 }
  - { offsetInCU: 0x1D4EC, offset: 0x1D4EC, size: 0x8, addend: 0x0, symName: __ZNSt3__1neB8ue170006ERKNS_15__tree_iteratorINS_12__value_typeINS_12basic_stringIcNS_11char_traitsIcEENS_9allocatorIcEEEEdEEPNS_11__tree_nodeIS8_PvEElEESF_, symObjAddr: 0xB6B4, symBinAddr: 0x10000FDAC, symSize: 0x34 }
  - { offsetInCU: 0x1D529, offset: 0x1D529, size: 0x8, addend: 0x0, symName: __ZNSt3__1eqB8ue170006ERKNS_15__tree_iteratorINS_12__value_typeINS_12basic_stringIcNS_11char_traitsIcEENS_9allocatorIcEEEEdEEPNS_11__tree_nodeIS8_PvEElEESF_, symObjAddr: 0xB710, symBinAddr: 0x10000FE08, symSize: 0x30 }
  - { offsetInCU: 0x1D5FF, offset: 0x1D5FF, size: 0x8, addend: 0x0, symName: __ZNSt3__112__to_addressB8ue170006INS_6vectorIN2cv6Point_IiEENS_9allocatorIS4_EEEEEEPT_S9_, symObjAddr: 0xC39C, symBinAddr: 0x100010A94, symSize: 0x14 }
  - { offsetInCU: 0x1D634, offset: 0x1D634, size: 0x8, addend: 0x0, symName: __ZNSt3__112__to_addressB8ue170006IN2cv6Point_IiEEEEPT_S5_, symObjAddr: 0xC760, symBinAddr: 0x100010E58, symSize: 0x14 }
  - { offsetInCU: 0x1D669, offset: 0x1D669, size: 0x8, addend: 0x0, symName: __ZNSt3__13minB8ue170006IiEERKT_S3_S3_, symObjAddr: 0xCF5C, symBinAddr: 0x100011654, symSize: 0x2C }
  - { offsetInCU: 0x1D6AC, offset: 0x1D6AC, size: 0x8, addend: 0x0, symName: __ZNSt3__13minB8ue170006IiNS_6__lessIvvEEEERKT_S5_S5_T0_, symObjAddr: 0xCFAC, symBinAddr: 0x1000116A4, symSize: 0x54 }
  - { offsetInCU: 0x1D706, offset: 0x1D706, size: 0x8, addend: 0x0, symName: __ZNSt3__112__to_addressB8ue170006INS_12basic_stringIcNS_11char_traitsIcEENS_9allocatorIcEEEEEEPT_S8_, symObjAddr: 0xD294, symBinAddr: 0x10001198C, symSize: 0x14 }
  - { offsetInCU: 0x1D73B, offset: 0x1D73B, size: 0x8, addend: 0x0, symName: __ZNSt3__13maxB8ue170006ImEERKT_S3_S3_, symObjAddr: 0xD698, symBinAddr: 0x100011D90, symSize: 0x2C }
  - { offsetInCU: 0x1D97F, offset: 0x1D97F, size: 0x8, addend: 0x0, symName: __ZNSt3__120__throw_length_errorB8ue170006EPKc, symObjAddr: 0xD77C, symBinAddr: 0x100011E74, symSize: 0x64 }
  - { offsetInCU: 0x1D9A9, offset: 0x1D9A9, size: 0x8, addend: 0x0, symName: __ZNSt3__13maxB8ue170006ImNS_6__lessIvvEEEERKT_S5_S5_T0_, symObjAddr: 0xD8C0, symBinAddr: 0x100011FB8, symSize: 0x54 }
  - { offsetInCU: 0x1DA03, offset: 0x1DA03, size: 0x8, addend: 0x0, symName: __ZNSt3__119__allocate_at_leastB8ue170006INS_9allocatorINS_12basic_stringIcNS_11char_traitsIcEENS1_IcEEEEEEEENS_19__allocation_resultINS_16allocator_traitsIT_E7pointerEEERSA_m, symObjAddr: 0xDA30, symBinAddr: 0x100012128, symSize: 0x40 }
  - { offsetInCU: 0x1DA46, offset: 0x1DA46, size: 0x8, addend: 0x0, symName: __ZNSt3__142__uninitialized_allocator_move_if_noexceptB8ue170006INS_9allocatorINS_12basic_stringIcNS_11char_traitsIcEENS1_IcEEEEEENS_16reverse_iteratorIPS6_EESA_SA_EET2_RT_T0_T1_SB_, symObjAddr: 0xDCD8, symBinAddr: 0x1000123D0, symSize: 0x12C }
  - { offsetInCU: 0x1DAE6, offset: 0x1DAE6, size: 0x8, addend: 0x0, symName: __ZNSt3__14swapB8ue170006IPNS_12basic_stringIcNS_11char_traitsIcEENS_9allocatorIcEEEEEENS_9enable_ifIXaasr21is_move_constructibleIT_EE5valuesr18is_move_assignableIS9_EE5valueEvE4typeERS9_SC_, symObjAddr: 0xDE50, symBinAddr: 0x100012548, symSize: 0x3C }
  - { offsetInCU: 0x1DB37, offset: 0x1DB37, size: 0x8, addend: 0x0, symName: __ZNSt3__122__make_exception_guardB8ue170006INS_29_AllocatorDestroyRangeReverseINS_9allocatorINS_12basic_stringIcNS_11char_traitsIcEENS2_IcEEEEEENS_16reverse_iteratorIPS7_EEEEEENS_28__exception_guard_exceptionsIT_EESE_, symObjAddr: 0xDF9C, symBinAddr: 0x100012694, symSize: 0x4C }
  - { offsetInCU: 0x1DB6D, offset: 0x1DB6D, size: 0x8, addend: 0x0, symName: __ZNSt3__1neB8ue170006IPNS_12basic_stringIcNS_11char_traitsIcEENS_9allocatorIcEEEES7_EEbRKNS_16reverse_iteratorIT_EERKNS8_IT0_EE, symObjAddr: 0xE02C, symBinAddr: 0x100012724, symSize: 0x48 }
  - { offsetInCU: 0x1DBB9, offset: 0x1DBB9, size: 0x8, addend: 0x0, symName: __ZNSt3__112__to_addressB8ue170006INS_16reverse_iteratorIPNS_12basic_stringIcNS_11char_traitsIcEENS_9allocatorIcEEEEEEvEEu7__decayIDTclsr19__to_address_helperIT_EE6__callclsr3stdE7declvalIRKSA_EEEEESC_, symObjAddr: 0xE0A8, symBinAddr: 0x1000127A0, symSize: 0x24 }
  - { offsetInCU: 0x1DC18, offset: 0x1DC18, size: 0x8, addend: 0x0, symName: __ZNSt3__119__allocator_destroyB8ue170006INS_9allocatorINS_12basic_stringIcNS_11char_traitsIcEENS1_IcEEEEEENS_16reverse_iteratorINS8_IPS6_EEEESB_EEvRT_T0_T1_, symObjAddr: 0xE388, symBinAddr: 0x100012A80, symSize: 0x70 }
  - { offsetInCU: 0x1DC7D, offset: 0x1DC7D, size: 0x8, addend: 0x0, symName: __ZNSt3__1neB8ue170006INS_16reverse_iteratorIPNS_12basic_stringIcNS_11char_traitsIcEENS_9allocatorIcEEEEEES9_EEbRKNS1_IT_EERKNS1_IT0_EE, symObjAddr: 0xE434, symBinAddr: 0x100012B2C, symSize: 0x60 }
  - { offsetInCU: 0x1DCC9, offset: 0x1DCC9, size: 0x8, addend: 0x0, symName: __ZNSt3__112__to_addressB8ue170006INS_16reverse_iteratorINS1_IPNS_12basic_stringIcNS_11char_traitsIcEENS_9allocatorIcEEEEEEEEvEEu7__decayIDTclsr19__to_address_helperIT_EE6__callclsr3stdE7declvalIRKSB_EEEEESD_, symObjAddr: 0xE4C0, symBinAddr: 0x100012BB8, symSize: 0x24 }
  - { offsetInCU: 0x1DD28, offset: 0x1DD28, size: 0x8, addend: 0x0, symName: __ZNSt3__13maxB8ue170006IiEERKT_S3_S3_, symObjAddr: 0xE8C8, symBinAddr: 0x100012FC0, symSize: 0x2C }
  - { offsetInCU: 0x1DD6B, offset: 0x1DD6B, size: 0x8, addend: 0x0, symName: __ZNSt3__13maxB8ue170006IiNS_6__lessIvvEEEERKT_S5_S5_T0_, symObjAddr: 0xE8F4, symBinAddr: 0x100012FEC, symSize: 0x54 }
  - { offsetInCU: 0x1DDC5, offset: 0x1DDC5, size: 0x8, addend: 0x0, symName: __ZNSt3__122__make_exception_guardB8ue170006INS_6vectorINS_12basic_stringIcNS_11char_traitsIcEENS_9allocatorIcEEEENS5_IS7_EEE16__destroy_vectorEEENS_28__exception_guard_exceptionsIT_EESC_, symObjAddr: 0xEAA4, symBinAddr: 0x10001319C, symSize: 0x40 }
  - { offsetInCU: 0x1DDFA, offset: 0x1DDFA, size: 0x8, addend: 0x0, symName: __ZNSt3__130__uninitialized_allocator_copyB8ue170006INS_9allocatorINS_12basic_stringIcNS_11char_traitsIcEENS1_IcEEEEEEPKS6_S9_PS6_EET2_RT_T0_T1_SB_, symObjAddr: 0xEE1C, symBinAddr: 0x100013514, symSize: 0x80 }
  - { offsetInCU: 0x1DE97, offset: 0x1DE97, size: 0x8, addend: 0x0, symName: __ZNSt3__114__unwrap_rangeB8ue170006IPKNS_12basic_stringIcNS_11char_traitsIcEENS_9allocatorIcEEEES8_EENS_4pairIT0_SA_EET_SC_, symObjAddr: 0xEE9C, symBinAddr: 0x100013594, symSize: 0x60 }
  - { offsetInCU: 0x1DEE3, offset: 0x1DEE3, size: 0x8, addend: 0x0, symName: __ZNSt3__135__uninitialized_allocator_copy_implB8ue170006INS_9allocatorINS_12basic_stringIcNS_11char_traitsIcEENS1_IcEEEEEEPKS6_S9_PS6_EET2_RT_T0_T1_SB_, symObjAddr: 0xEEFC, symBinAddr: 0x1000135F4, symSize: 0xF4 }
  - { offsetInCU: 0x1DF81, offset: 0x1DF81, size: 0x8, addend: 0x0, symName: __ZNSt3__113__unwrap_iterB8ue170006IPNS_12basic_stringIcNS_11char_traitsIcEENS_9allocatorIcEEEENS_18__unwrap_iter_implIS7_Lb1EEELi0EEEDTclsrT0_8__unwrapclsr3stdE7declvalIT_EEEESB_, symObjAddr: 0xEFF0, symBinAddr: 0x1000136E8, symSize: 0x24 }
  - { offsetInCU: 0x1DFC5, offset: 0x1DFC5, size: 0x8, addend: 0x0, symName: __ZNSt3__113__rewrap_iterB8ue170006IPNS_12basic_stringIcNS_11char_traitsIcEENS_9allocatorIcEEEES7_NS_18__unwrap_iter_implIS7_Lb1EEEEET_SA_T0_, symObjAddr: 0xF014, symBinAddr: 0x10001370C, symSize: 0x3C }
  - { offsetInCU: 0x1E01A, offset: 0x1E01A, size: 0x8, addend: 0x0, symName: __ZNSt3__19make_pairB8ue170006IPKNS_12basic_stringIcNS_11char_traitsIcEENS_9allocatorIcEEEES8_EENS_4pairINS_18__unwrap_ref_decayIT_E4typeENSA_IT0_E4typeEEEOSB_OSE_, symObjAddr: 0xF050, symBinAddr: 0x100013748, symSize: 0x38 }
  - { offsetInCU: 0x1E069, offset: 0x1E069, size: 0x8, addend: 0x0, symName: __ZNSt3__113__unwrap_iterB8ue170006IPKNS_12basic_stringIcNS_11char_traitsIcEENS_9allocatorIcEEEENS_18__unwrap_iter_implIS8_Lb1EEELi0EEEDTclsrT0_8__unwrapclsr3stdE7declvalIT_EEEESC_, symObjAddr: 0xF088, symBinAddr: 0x100013780, symSize: 0x24 }
  - { offsetInCU: 0x1E1D4, offset: 0x1E1D4, size: 0x8, addend: 0x0, symName: __ZNSt3__112__to_addressB8ue170006IKNS_12basic_stringIcNS_11char_traitsIcEENS_9allocatorIcEEEEEEPT_S9_, symObjAddr: 0xF140, symBinAddr: 0x100013838, symSize: 0x14 }
  - { offsetInCU: 0x1E209, offset: 0x1E209, size: 0x8, addend: 0x0, symName: __ZNSt3__122__make_exception_guardB8ue170006INS_29_AllocatorDestroyRangeReverseINS_9allocatorINS_12basic_stringIcNS_11char_traitsIcEENS2_IcEEEEEEPS7_EEEENS_28__exception_guard_exceptionsIT_EESC_, symObjAddr: 0xF154, symBinAddr: 0x10001384C, symSize: 0x4C }
  - { offsetInCU: 0x1E23F, offset: 0x1E23F, size: 0x8, addend: 0x0, symName: __ZNSt3__119__allocator_destroyB8ue170006INS_9allocatorINS_12basic_stringIcNS_11char_traitsIcEENS1_IcEEEEEENS_16reverse_iteratorIPS6_EESA_EEvRT_T0_T1_, symObjAddr: 0xF380, symBinAddr: 0x100013A78, symSize: 0x70 }
  - { offsetInCU: 0x1E2F5, offset: 0x1E2F5, size: 0x8, addend: 0x0, symName: __ZNSt3__112__to_addressB8ue170006I8ResistorEEPT_S3_, symObjAddr: 0xF8A0, symBinAddr: 0x100013F98, symSize: 0x14 }
  - { offsetInCU: 0x1E32A, offset: 0x1E32A, size: 0x8, addend: 0x0, symName: __ZNSt3__119__allocate_at_leastB8ue170006INS_9allocatorI8ResistorEEEENS_19__allocation_resultINS_16allocator_traitsIT_E7pointerEEERS6_m, symObjAddr: 0x10114, symBinAddr: 0x10001480C, symSize: 0x40 }
  - { offsetInCU: 0x1E36D, offset: 0x1E36D, size: 0x8, addend: 0x0, symName: __ZNSt3__142__uninitialized_allocator_move_if_noexceptB8ue170006INS_9allocatorI8ResistorEENS_16reverse_iteratorIPS2_EES6_S6_EET2_RT_T0_T1_S7_, symObjAddr: 0x103BC, symBinAddr: 0x100014AB4, symSize: 0x12C }
  - { offsetInCU: 0x1E40D, offset: 0x1E40D, size: 0x8, addend: 0x0, symName: __ZNSt3__14swapB8ue170006IP8ResistorEENS_9enable_ifIXaasr21is_move_constructibleIT_EE5valuesr18is_move_assignableIS4_EE5valueEvE4typeERS4_S7_, symObjAddr: 0x10534, symBinAddr: 0x100014C2C, symSize: 0x3C }
  - { offsetInCU: 0x1E45E, offset: 0x1E45E, size: 0x8, addend: 0x0, symName: __ZNSt3__122__make_exception_guardB8ue170006INS_29_AllocatorDestroyRangeReverseINS_9allocatorI8ResistorEENS_16reverse_iteratorIPS3_EEEEEENS_28__exception_guard_exceptionsIT_EESA_, symObjAddr: 0x10680, symBinAddr: 0x100014D78, symSize: 0x4C }
  - { offsetInCU: 0x1E494, offset: 0x1E494, size: 0x8, addend: 0x0, symName: __ZNSt3__1neB8ue170006IP8ResistorS2_EEbRKNS_16reverse_iteratorIT_EERKNS3_IT0_EE, symObjAddr: 0x10710, symBinAddr: 0x100014E08, symSize: 0x48 }
  - { offsetInCU: 0x1E4E0, offset: 0x1E4E0, size: 0x8, addend: 0x0, symName: __ZNSt3__112__to_addressB8ue170006INS_16reverse_iteratorIP8ResistorEEvEEu7__decayIDTclsr19__to_address_helperIT_EE6__callclsr3stdE7declvalIRKS5_EEEEES7_, symObjAddr: 0x10758, symBinAddr: 0x100014E50, symSize: 0x24 }
  - { offsetInCU: 0x1E53F, offset: 0x1E53F, size: 0x8, addend: 0x0, symName: __ZNSt3__119__allocator_destroyB8ue170006INS_9allocatorI8ResistorEENS_16reverse_iteratorINS4_IPS2_EEEES7_EEvRT_T0_T1_, symObjAddr: 0x10A08, symBinAddr: 0x100015100, symSize: 0x70 }
  - { offsetInCU: 0x1E5A4, offset: 0x1E5A4, size: 0x8, addend: 0x0, symName: __ZNSt3__1neB8ue170006INS_16reverse_iteratorIP8ResistorEES4_EEbRKNS1_IT_EERKNS1_IT0_EE, symObjAddr: 0x10AB4, symBinAddr: 0x1000151AC, symSize: 0x60 }
  - { offsetInCU: 0x1E5F0, offset: 0x1E5F0, size: 0x8, addend: 0x0, symName: __ZNSt3__112__to_addressB8ue170006INS_16reverse_iteratorINS1_IP8ResistorEEEEvEEu7__decayIDTclsr19__to_address_helperIT_EE6__callclsr3stdE7declvalIRKS6_EEEEES8_, symObjAddr: 0x10B40, symBinAddr: 0x100015238, symSize: 0x24 }
  - { offsetInCU: 0x1E64F, offset: 0x1E64F, size: 0x8, addend: 0x0, symName: __ZNSt3__130__uninitialized_allocator_copyB8ue170006INS_9allocatorINS_12basic_stringIcNS_11char_traitsIcEENS1_IcEEEEEEPS6_S8_S8_EET2_RT_T0_T1_S9_, symObjAddr: 0x11130, symBinAddr: 0x100015828, symSize: 0x80 }
  - { offsetInCU: 0x1E6EC, offset: 0x1E6EC, size: 0x8, addend: 0x0, symName: __ZNSt3__114__unwrap_rangeB8ue170006IPNS_12basic_stringIcNS_11char_traitsIcEENS_9allocatorIcEEEES7_EENS_4pairIT0_S9_EET_SB_, symObjAddr: 0x111B0, symBinAddr: 0x1000158A8, symSize: 0x60 }
  - { offsetInCU: 0x1E738, offset: 0x1E738, size: 0x8, addend: 0x0, symName: __ZNSt3__135__uninitialized_allocator_copy_implB8ue170006INS_9allocatorINS_12basic_stringIcNS_11char_traitsIcEENS1_IcEEEEEEPS6_S8_S8_EET2_RT_T0_T1_S9_, symObjAddr: 0x11210, symBinAddr: 0x100015908, symSize: 0xF4 }
  - { offsetInCU: 0x1E7D6, offset: 0x1E7D6, size: 0x8, addend: 0x0, symName: __ZNSt3__19make_pairB8ue170006IPNS_12basic_stringIcNS_11char_traitsIcEENS_9allocatorIcEEEES7_EENS_4pairINS_18__unwrap_ref_decayIT_E4typeENS9_IT0_E4typeEEEOSA_OSD_, symObjAddr: 0x11304, symBinAddr: 0x1000159FC, symSize: 0x38 }
  - { offsetInCU: 0x1F6B8, offset: 0x1F6B8, size: 0x8, addend: 0x0, symName: __ZSt28__throw_bad_array_new_lengthB8ue170006v, symObjAddr: 0x630C, symBinAddr: 0x10000AA04, symSize: 0x34 }
  - { offsetInCU: 0x25CC7, offset: 0x25CC7, size: 0x8, addend: 0x0, symName: __ZN2cvmiIdEENS_7Scalar_IT_EERKS3_S5_, symObjAddr: 0x2094, symBinAddr: 0x10000678C, symSize: 0xAC }
  - { offsetInCU: 0x25D0E, offset: 0x25D0E, size: 0x8, addend: 0x0, symName: __ZN2cvplIdEENS_7Scalar_IT_EERKS3_S5_, symObjAddr: 0x2174, symBinAddr: 0x10000686C, symSize: 0x88 }
  - { offsetInCU: 0x25D55, offset: 0x25D55, size: 0x8, addend: 0x0, symName: __ZN2cvmlIiEENS_6Point_IT_EERKS3_d, symObjAddr: 0x2390, symBinAddr: 0x100006A88, symSize: 0x78 }
  - { offsetInCU: 0x25D9C, offset: 0x25D9C, size: 0x8, addend: 0x0, symName: __ZN2cvplIiEENS_6Point_IT_EERKS3_S5_, symObjAddr: 0x2408, symBinAddr: 0x100006B00, symSize: 0x68 }
  - { offsetInCU: 0x25DE3, offset: 0x25DE3, size: 0x8, addend: 0x0, symName: __ZN2cvanIiEENS_5Rect_IT_EERKS3_S5_, symObjAddr: 0x2594, symBinAddr: 0x100006C8C, symSize: 0x48 }
  - { offsetInCU: 0x25E39, offset: 0x25E39, size: 0x8, addend: 0x0, symName: __ZN2cvoRIiEERNS_5Rect_IT_EES4_RKS3_, symObjAddr: 0x2648, symBinAddr: 0x100006D40, symSize: 0x148 }
  - { offsetInCU: 0x26032, offset: 0x26032, size: 0x8, addend: 0x0, symName: __ZN2cvmiIiEENS_6Point_IT_EERKS3_S5_, symObjAddr: 0x2CE8, symBinAddr: 0x1000073E0, symSize: 0x68 }
  - { offsetInCU: 0x26079, offset: 0x26079, size: 0x8, addend: 0x0, symName: __ZN2cvL13saturate_castIiEET_i, symObjAddr: 0x4360, symBinAddr: 0x100008A58, symSize: 0x14 }
  - { offsetInCU: 0x260AF, offset: 0x260AF, size: 0x8, addend: 0x0, symName: __ZN2cvL13saturate_castIdEET_d, symObjAddr: 0xBEC0, symBinAddr: 0x1000105B8, symSize: 0x14 }
  - { offsetInCU: 0x260E5, offset: 0x260E5, size: 0x8, addend: 0x0, symName: __ZN2cvL13saturate_castIiEET_d, symObjAddr: 0xCB2C, symBinAddr: 0x100011224, symSize: 0x24 }
  - { offsetInCU: 0x2611B, offset: 0x2611B, size: 0x8, addend: 0x0, symName: __ZN2cvaNIiEERNS_5Rect_IT_EES4_RKS3_, symObjAddr: 0xCBFC, symBinAddr: 0x1000112F4, symSize: 0x2E0 }
  - { offsetInCU: 0x26C1B, offset: 0x26C1B, size: 0x8, addend: 0x0, symName: _hsvColorMap, symObjAddr: 0xEB898, symBinAddr: 0x10001C018, symSize: 0x0 }
  - { offsetInCU: 0x28699, offset: 0x28699, size: 0x8, addend: 0x0, symName: __ZNSt3__16vectorINS_12basic_stringIcNS_11char_traitsIcEENS_9allocatorIcEEEENS4_IS6_EEE26__swap_out_circular_bufferERNS_14__split_bufferIS6_RS7_EE, symObjAddr: 0xD4A0, symBinAddr: 0x100011B98, symSize: 0x110 }
  - { offsetInCU: 0x28777, offset: 0x28777, size: 0x8, addend: 0x0, symName: __ZNSt3__16vectorI8ResistorNS_9allocatorIS1_EEE26__swap_out_circular_bufferERNS_14__split_bufferIS1_RS3_EE, symObjAddr: 0xFCFC, symBinAddr: 0x1000143F4, symSize: 0x110 }
  - { offsetInCU: 0x2B297, offset: 0x2B297, size: 0x8, addend: 0x0, symName: __Z3rgbiii, symObjAddr: 0x0, symBinAddr: 0x1000046F8, symSize: 0x70 }
  - { offsetInCU: 0x2B2E0, offset: 0x2B2E0, size: 0x8, addend: 0x0, symName: __ZN2cv7Scalar_IdEC1Edddd, symObjAddr: 0x70, symBinAddr: 0x100004768, symSize: 0x4C }
  - { offsetInCU: 0x2B35E, offset: 0x2B35E, size: 0x8, addend: 0x0, symName: __ZNSt3__14pairIKNS_12basic_stringIcNS_11char_traitsIcEENS_9allocatorIcEEEEN2cv7Scalar_IdEEEC1B8ue170006IRA6_KcSA_LPv0EEEOT_OT0_, symObjAddr: 0xBC, symBinAddr: 0x1000047B4, symSize: 0x3C }
  - { offsetInCU: 0x2B3D2, offset: 0x2B3D2, size: 0x8, addend: 0x0, symName: __ZNSt3__14pairIKNS_12basic_stringIcNS_11char_traitsIcEENS_9allocatorIcEEEEN2cv7Scalar_IdEEEC1B8ue170006IRA4_KcSA_LPv0EEEOT_OT0_, symObjAddr: 0xF8, symBinAddr: 0x1000047F0, symSize: 0x3C }
  - { offsetInCU: 0x2B446, offset: 0x2B446, size: 0x8, addend: 0x0, symName: __ZNSt3__14pairIKNS_12basic_stringIcNS_11char_traitsIcEENS_9allocatorIcEEEEN2cv7Scalar_IdEEEC1B8ue170006IRA7_KcSA_LPv0EEEOT_OT0_, symObjAddr: 0x134, symBinAddr: 0x10000482C, symSize: 0x3C }
  - { offsetInCU: 0x2B4BA, offset: 0x2B4BA, size: 0x8, addend: 0x0, symName: __ZNSt3__14pairIKNS_12basic_stringIcNS_11char_traitsIcEENS_9allocatorIcEEEEN2cv7Scalar_IdEEEC1B8ue170006IRA5_KcSA_LPv0EEEOT_OT0_, symObjAddr: 0x170, symBinAddr: 0x100004868, symSize: 0x3C }
  - { offsetInCU: 0x2B518, offset: 0x2B518, size: 0x8, addend: 0x0, symName: __ZNSt3__14pairIKNS_12basic_stringIcNS_11char_traitsIcEENS_9allocatorIcEEEEN2cv7Scalar_IdEEED1Ev, symObjAddr: 0x1AC, symBinAddr: 0x1000048A4, symSize: 0x2C }
  - { offsetInCU: 0x2B544, offset: 0x2B544, size: 0x8, addend: 0x0, symName: __ZNSt3__13mapINS_12basic_stringIcNS_11char_traitsIcEENS_9allocatorIcEEEEN2cv7Scalar_IdEENS_4lessIS6_EENS4_INS_4pairIKS6_S9_EEEEEC1B8ue170006ESt16initializer_listISE_ERKSB_, symObjAddr: 0x1D8, symBinAddr: 0x1000048D0, symSize: 0x44 }
  - { offsetInCU: 0x2B58C, offset: 0x2B58C, size: 0x8, addend: 0x0, symName: __ZNSt3__13mapINS_12basic_stringIcNS_11char_traitsIcEENS_9allocatorIcEEEEN2cv7Scalar_IdEENS_4lessIS6_EENS4_INS_4pairIKS6_S9_EEEEED1B8ue170006Ev, symObjAddr: 0x21C, symBinAddr: 0x100004914, symSize: 0x2C }
  - { offsetInCU: 0x2B5B5, offset: 0x2B5B5, size: 0x8, addend: 0x0, symName: __Z8rgbToHsviii, symObjAddr: 0x248, symBinAddr: 0x100004940, symSize: 0x208 }
  - { offsetInCU: 0x2B62B, offset: 0x2B62B, size: 0x8, addend: 0x0, symName: __ZN2cv11_InputArrayC1ERKNS_3MatE, symObjAddr: 0x450, symBinAddr: 0x100004B48, symSize: 0x34 }
  - { offsetInCU: 0x2B665, offset: 0x2B665, size: 0x8, addend: 0x0, symName: __ZN2cv12_OutputArrayC1ERNS_3MatE, symObjAddr: 0x484, symBinAddr: 0x100004B7C, symSize: 0x34 }
  - { offsetInCU: 0x2B69F, offset: 0x2B69F, size: 0x8, addend: 0x0, symName: __ZN2cv12_OutputArrayD1Ev, symObjAddr: 0x4B8, symBinAddr: 0x100004BB0, symSize: 0x2C }
  - { offsetInCU: 0x2B6CC, offset: 0x2B6CC, size: 0x8, addend: 0x0, symName: __ZN2cv11_InputArrayD1Ev, symObjAddr: 0x4E4, symBinAddr: 0x100004BDC, symSize: 0x2C }
  - { offsetInCU: 0x2B6F8, offset: 0x2B6F8, size: 0x8, addend: 0x0, symName: __ZN2cv3Mat2atINS_3VecIhLi3EEEEERT_ii, symObjAddr: 0x510, symBinAddr: 0x100004C08, symSize: 0x44 }
  - { offsetInCU: 0x2B745, offset: 0x2B745, size: 0x8, addend: 0x0, symName: __ZN2cv3VecIhLi3EEC1ERKS1_, symObjAddr: 0x554, symBinAddr: 0x100004C4C, symSize: 0x34 }
  - { offsetInCU: 0x2B780, offset: 0x2B780, size: 0x8, addend: 0x0, symName: __ZN2cv3VecIhLi3EEixEi, symObjAddr: 0x588, symBinAddr: 0x100004C80, symSize: 0x20 }
  - { offsetInCU: 0x2B7B7, offset: 0x2B7B7, size: 0x8, addend: 0x0, symName: __ZNSt3__13mapINS_12basic_stringIcNS_11char_traitsIcEENS_9allocatorIcEEEEN2cv7Scalar_IdEENS_4lessIS6_EENS4_INS_4pairIKS6_S9_EEEEEC1B8ue170006Ev, symObjAddr: 0x5A8, symBinAddr: 0x100004CA0, symSize: 0x2C }
  - { offsetInCU: 0x2B7E0, offset: 0x2B7E0, size: 0x8, addend: 0x0, symName: __Z21initializeHsvColorMapv, symObjAddr: 0x5D4, symBinAddr: 0x100004CCC, symSize: 0xFC }
  - { offsetInCU: 0x2B884, offset: 0x2B884, size: 0x8, addend: 0x0, symName: __ZNSt3__13mapINS_12basic_stringIcNS_11char_traitsIcEENS_9allocatorIcEEEEN2cv7Scalar_IdEENS_4lessIS6_EENS4_INS_4pairIKS6_S9_EEEEE5beginB8ue170006Ev, symObjAddr: 0x6D0, symBinAddr: 0x100004DC8, symSize: 0x38 }
  - { offsetInCU: 0x2B8AA, offset: 0x2B8AA, size: 0x8, addend: 0x0, symName: __ZNSt3__13mapINS_12basic_stringIcNS_11char_traitsIcEENS_9allocatorIcEEEEN2cv7Scalar_IdEENS_4lessIS6_EENS4_INS_4pairIKS6_S9_EEEEE3endB8ue170006Ev, symObjAddr: 0x708, symBinAddr: 0x100004E00, symSize: 0x38 }
  - { offsetInCU: 0x2B8D0, offset: 0x2B8D0, size: 0x8, addend: 0x0, symName: __ZNKSt3__114__map_iteratorINS_15__tree_iteratorINS_12__value_typeINS_12basic_stringIcNS_11char_traitsIcEENS_9allocatorIcEEEEN2cv7Scalar_IdEEEEPNS_11__tree_nodeISC_PvEElEEEdeB8ue170006Ev, symObjAddr: 0x770, symBinAddr: 0x100004E68, symSize: 0x28 }
  - { offsetInCU: 0x2B8F6, offset: 0x2B8F6, size: 0x8, addend: 0x0, symName: __ZNK2cv3VecIdLi4EEixEi, symObjAddr: 0x798, symBinAddr: 0x100004E90, symSize: 0x20 }
  - { offsetInCU: 0x2B92D, offset: 0x2B92D, size: 0x8, addend: 0x0, symName: __ZNSt3__13mapINS_12basic_stringIcNS_11char_traitsIcEENS_9allocatorIcEEEEN2cv7Scalar_IdEENS_4lessIS6_EENS4_INS_4pairIKS6_S9_EEEEEixERSD_, symObjAddr: 0x7B8, symBinAddr: 0x100004EB0, symSize: 0x80 }
  - { offsetInCU: 0x2B964, offset: 0x2B964, size: 0x8, addend: 0x0, symName: __ZN2cv7Scalar_IdEaSEOS1_, symObjAddr: 0x838, symBinAddr: 0x100004F30, symSize: 0x48 }
  - { offsetInCU: 0x2B99B, offset: 0x2B99B, size: 0x8, addend: 0x0, symName: __ZNSt3__114__map_iteratorINS_15__tree_iteratorINS_12__value_typeINS_12basic_stringIcNS_11char_traitsIcEENS_9allocatorIcEEEEN2cv7Scalar_IdEEEEPNS_11__tree_nodeISC_PvEElEEEppB8ue170006Ev, symObjAddr: 0x880, symBinAddr: 0x100004F78, symSize: 0x2C }
  - { offsetInCU: 0x2B9C0, offset: 0x2B9C0, size: 0x8, addend: 0x0, symName: __Z19decodeResistorValueRKNSt3__16vectorINS_12basic_stringIcNS_11char_traitsIcEENS_9allocatorIcEEEENS4_IS6_EEEE, symObjAddr: 0x8AC, symBinAddr: 0x100004FA4, symSize: 0x884 }
  - { offsetInCU: 0x2BA1B, offset: 0x2BA1B, size: 0x8, addend: 0x0, symName: __ZNKSt3__16vectorINS_12basic_stringIcNS_11char_traitsIcEENS_9allocatorIcEEEENS4_IS6_EEE4sizeB8ue170006Ev, symObjAddr: 0x1130, symBinAddr: 0x100005828, symSize: 0x28 }
  - { offsetInCU: 0x2BA46, offset: 0x2BA46, size: 0x8, addend: 0x0, symName: __ZNSt3__112basic_stringIcNS_11char_traitsIcEENS_9allocatorIcEEEC1B8ue170006ILi0EEEPKc, symObjAddr: 0x1158, symBinAddr: 0x100005850, symSize: 0x34 }
  - { offsetInCU: 0x2BA8A, offset: 0x2BA8A, size: 0x8, addend: 0x0, symName: __ZNSt3__14pairIKNS_12basic_stringIcNS_11char_traitsIcEENS_9allocatorIcEEEEiEC1B8ue170006IRA6_KciLPv0EEEOT_OT0_, symObjAddr: 0x118C, symBinAddr: 0x100005884, symSize: 0x3C }
  - { offsetInCU: 0x2BAE8, offset: 0x2BAE8, size: 0x8, addend: 0x0, symName: __ZNSt3__14pairIKNS_12basic_stringIcNS_11char_traitsIcEENS_9allocatorIcEEEEiEC1B8ue170006IRA4_KciLPv0EEEOT_OT0_, symObjAddr: 0x11C8, symBinAddr: 0x1000058C0, symSize: 0x3C }
  - { offsetInCU: 0x2BB46, offset: 0x2BB46, size: 0x8, addend: 0x0, symName: __ZNSt3__14pairIKNS_12basic_stringIcNS_11char_traitsIcEENS_9allocatorIcEEEEiEC1B8ue170006IRA7_KciLPv0EEEOT_OT0_, symObjAddr: 0x1204, symBinAddr: 0x1000058FC, symSize: 0x3C }
  - { offsetInCU: 0x2BBA4, offset: 0x2BBA4, size: 0x8, addend: 0x0, symName: __ZNSt3__14pairIKNS_12basic_stringIcNS_11char_traitsIcEENS_9allocatorIcEEEEiEC1B8ue170006IRA5_KciLPv0EEEOT_OT0_, symObjAddr: 0x1240, symBinAddr: 0x100005938, symSize: 0x3C }
  - { offsetInCU: 0x2BC02, offset: 0x2BC02, size: 0x8, addend: 0x0, symName: __ZNSt3__14pairIKNS_12basic_stringIcNS_11char_traitsIcEENS_9allocatorIcEEEEiED1Ev, symObjAddr: 0x127C, symBinAddr: 0x100005974, symSize: 0x2C }
  - { offsetInCU: 0x2BC2E, offset: 0x2BC2E, size: 0x8, addend: 0x0, symName: __ZNSt3__13mapINS_12basic_stringIcNS_11char_traitsIcEENS_9allocatorIcEEEEiNS_4lessIS6_EENS4_INS_4pairIKS6_iEEEEEC1B8ue170006ESt16initializer_listISB_ERKS8_, symObjAddr: 0x12A8, symBinAddr: 0x1000059A0, symSize: 0x44 }
  - { offsetInCU: 0x2BC76, offset: 0x2BC76, size: 0x8, addend: 0x0, symName: __ZNSt3__14pairIKNS_12basic_stringIcNS_11char_traitsIcEENS_9allocatorIcEEEEdEC1B8ue170006IRA6_KciLPv0EEEOT_OT0_, symObjAddr: 0x12EC, symBinAddr: 0x1000059E4, symSize: 0x3C }
  - { offsetInCU: 0x2BCD4, offset: 0x2BCD4, size: 0x8, addend: 0x0, symName: __ZNSt3__14pairIKNS_12basic_stringIcNS_11char_traitsIcEENS_9allocatorIcEEEEdEC1B8ue170006IRA4_KciLPv0EEEOT_OT0_, symObjAddr: 0x1328, symBinAddr: 0x100005A20, symSize: 0x3C }
  - { offsetInCU: 0x2BD32, offset: 0x2BD32, size: 0x8, addend: 0x0, symName: __ZNSt3__14pairIKNS_12basic_stringIcNS_11char_traitsIcEENS_9allocatorIcEEEEdEC1B8ue170006IRA7_KciLPv0EEEOT_OT0_, symObjAddr: 0x1364, symBinAddr: 0x100005A5C, symSize: 0x3C }
  - { offsetInCU: 0x2BD90, offset: 0x2BD90, size: 0x8, addend: 0x0, symName: __ZNSt3__14pairIKNS_12basic_stringIcNS_11char_traitsIcEENS_9allocatorIcEEEEdEC1B8ue170006IRA5_KciLPv0EEEOT_OT0_, symObjAddr: 0x13A0, symBinAddr: 0x100005A98, symSize: 0x3C }
  - { offsetInCU: 0x2BDF3, offset: 0x2BDF3, size: 0x8, addend: 0x0, symName: __ZNSt3__14pairIKNS_12basic_stringIcNS_11char_traitsIcEENS_9allocatorIcEEEEdEC1B8ue170006IRA5_KcdLPv0EEEOT_OT0_, symObjAddr: 0x13DC, symBinAddr: 0x100005AD4, symSize: 0x3C }
  - { offsetInCU: 0x2BE51, offset: 0x2BE51, size: 0x8, addend: 0x0, symName: __ZNSt3__14pairIKNS_12basic_stringIcNS_11char_traitsIcEENS_9allocatorIcEEEEdEC1B8ue170006IRA7_KcdLPv0EEEOT_OT0_, symObjAddr: 0x1418, symBinAddr: 0x100005B10, symSize: 0x3C }
  - { offsetInCU: 0x2BEAF, offset: 0x2BEAF, size: 0x8, addend: 0x0, symName: __ZNSt3__14pairIKNS_12basic_stringIcNS_11char_traitsIcEENS_9allocatorIcEEEEdED1Ev, symObjAddr: 0x1454, symBinAddr: 0x100005B4C, symSize: 0x2C }
  - { offsetInCU: 0x2BEDB, offset: 0x2BEDB, size: 0x8, addend: 0x0, symName: __ZNSt3__13mapINS_12basic_stringIcNS_11char_traitsIcEENS_9allocatorIcEEEEdNS_4lessIS6_EENS4_INS_4pairIKS6_dEEEEEC1B8ue170006ESt16initializer_listISB_ERKS8_, symObjAddr: 0x1480, symBinAddr: 0x100005B78, symSize: 0x44 }
  - { offsetInCU: 0x2BF23, offset: 0x2BF23, size: 0x8, addend: 0x0, symName: __ZNSt3__13mapINS_12basic_stringIcNS_11char_traitsIcEENS_9allocatorIcEEEEiNS_4lessIS6_EENS4_INS_4pairIKS6_iEEEEE4findB8ue170006ERSA_, symObjAddr: 0x14F4, symBinAddr: 0x100005BEC, symSize: 0x40 }
  - { offsetInCU: 0x2BF58, offset: 0x2BF58, size: 0x8, addend: 0x0, symName: __ZNKSt3__16vectorINS_12basic_stringIcNS_11char_traitsIcEENS_9allocatorIcEEEENS4_IS6_EEEixB8ue170006Em, symObjAddr: 0x1534, symBinAddr: 0x100005C2C, symSize: 0x2C }
  - { offsetInCU: 0x2BF8F, offset: 0x2BF8F, size: 0x8, addend: 0x0, symName: __ZNSt3__13mapINS_12basic_stringIcNS_11char_traitsIcEENS_9allocatorIcEEEEiNS_4lessIS6_EENS4_INS_4pairIKS6_iEEEEE3endB8ue170006Ev, symObjAddr: 0x1560, symBinAddr: 0x100005C58, symSize: 0x38 }
  - { offsetInCU: 0x2BFB5, offset: 0x2BFB5, size: 0x8, addend: 0x0, symName: __ZNSt3__13mapINS_12basic_stringIcNS_11char_traitsIcEENS_9allocatorIcEEEEdNS_4lessIS6_EENS4_INS_4pairIKS6_dEEEEE4findB8ue170006ERSA_, symObjAddr: 0x15C8, symBinAddr: 0x100005CC0, symSize: 0x40 }
  - { offsetInCU: 0x2BFEA, offset: 0x2BFEA, size: 0x8, addend: 0x0, symName: __ZNSt3__13mapINS_12basic_stringIcNS_11char_traitsIcEENS_9allocatorIcEEEEdNS_4lessIS6_EENS4_INS_4pairIKS6_dEEEEE3endB8ue170006Ev, symObjAddr: 0x1608, symBinAddr: 0x100005D00, symSize: 0x38 }
  - { offsetInCU: 0x2C010, offset: 0x2C010, size: 0x8, addend: 0x0, symName: __ZNSt3__13mapINS_12basic_stringIcNS_11char_traitsIcEENS_9allocatorIcEEEEiNS_4lessIS6_EENS4_INS_4pairIKS6_iEEEEEixERSA_, symObjAddr: 0x1640, symBinAddr: 0x100005D38, symSize: 0x80 }
  - { offsetInCU: 0x2C047, offset: 0x2C047, size: 0x8, addend: 0x0, symName: __ZNSt3__13mapINS_12basic_stringIcNS_11char_traitsIcEENS_9allocatorIcEEEEdNS_4lessIS6_EENS4_INS_4pairIKS6_dEEEEEixERSA_, symObjAddr: 0x16C0, symBinAddr: 0x100005DB8, symSize: 0x80 }
  - { offsetInCU: 0x2C07E, offset: 0x2C07E, size: 0x8, addend: 0x0, symName: __ZNSt3__13mapINS_12basic_stringIcNS_11char_traitsIcEENS_9allocatorIcEEEEdNS_4lessIS6_EENS4_INS_4pairIKS6_dEEEEED1B8ue170006Ev, symObjAddr: 0x1780, symBinAddr: 0x100005E78, symSize: 0x2C }
  - { offsetInCU: 0x2C0A8, offset: 0x2C0A8, size: 0x8, addend: 0x0, symName: __ZNSt3__13mapINS_12basic_stringIcNS_11char_traitsIcEENS_9allocatorIcEEEEiNS_4lessIS6_EENS4_INS_4pairIKS6_iEEEEED1B8ue170006Ev, symObjAddr: 0x17AC, symBinAddr: 0x100005EA4, symSize: 0x2C }
  - { offsetInCU: 0x2C0D1, offset: 0x2C0D1, size: 0x8, addend: 0x0, symName: __Z12processFrameRN2cv3MatERNSt3__16vectorI8ResistorNS2_9allocatorIS4_EEEE, symObjAddr: 0x17D8, symBinAddr: 0x100005ED0, symSize: 0x890 }
  - { offsetInCU: 0x2C2A3, offset: 0x2C2A3, size: 0x8, addend: 0x0, symName: __ZNKSt3__114__map_iteratorINS_15__tree_iteratorINS_12__value_typeINS_12basic_stringIcNS_11char_traitsIcEENS_9allocatorIcEEEEN2cv7Scalar_IdEEEEPNS_11__tree_nodeISC_PvEElEEEptB8ue170006Ev, symObjAddr: 0x2068, symBinAddr: 0x100006760, symSize: 0x2C }
  - { offsetInCU: 0x2C2C9, offset: 0x2C2C9, size: 0x8, addend: 0x0, symName: __ZN2cv11_InputArrayC1IdLi4ELi1EEERKNS_4MatxIT_XT0_EXT1_EEE, symObjAddr: 0x2140, symBinAddr: 0x100006838, symSize: 0x34 }
  - { offsetInCU: 0x2C31E, offset: 0x2C31E, size: 0x8, addend: 0x0, symName: __ZNSt3__16vectorINS0_IN2cv6Point_IiEENS_9allocatorIS3_EEEENS4_IS6_EEEC1B8ue170006Ev, symObjAddr: 0x21FC, symBinAddr: 0x1000068F4, symSize: 0x2C }
  - { offsetInCU: 0x2C348, offset: 0x2C348, size: 0x8, addend: 0x0, symName: __ZN2cv12_OutputArrayC1INS_6Point_IiEEEERNSt3__16vectorINS5_IT_NS4_9allocatorIS6_EEEENS7_IS9_EEEE, symObjAddr: 0x2228, symBinAddr: 0x100006920, symSize: 0x34 }
  - { offsetInCU: 0x2C389, offset: 0x2C389, size: 0x8, addend: 0x0, symName: __ZN2cv6Point_IiEC1Ev, symObjAddr: 0x225C, symBinAddr: 0x100006954, symSize: 0x2C }
  - { offsetInCU: 0x2C3B5, offset: 0x2C3B5, size: 0x8, addend: 0x0, symName: __ZNSt3__16vectorINS0_IN2cv6Point_IiEENS_9allocatorIS3_EEEENS4_IS6_EEE5beginB8ue170006Ev, symObjAddr: 0x2288, symBinAddr: 0x100006980, symSize: 0x30 }
  - { offsetInCU: 0x2C3DD, offset: 0x2C3DD, size: 0x8, addend: 0x0, symName: __ZNSt3__16vectorINS0_IN2cv6Point_IiEENS_9allocatorIS3_EEEENS4_IS6_EEE3endB8ue170006Ev, symObjAddr: 0x22B8, symBinAddr: 0x1000069B0, symSize: 0x30 }
  - { offsetInCU: 0x2C405, offset: 0x2C405, size: 0x8, addend: 0x0, symName: __ZNKSt3__111__wrap_iterIPNS_6vectorIN2cv6Point_IiEENS_9allocatorIS4_EEEEEdeB8ue170006Ev, symObjAddr: 0x231C, symBinAddr: 0x100006A14, symSize: 0x18 }
  - { offsetInCU: 0x2C42B, offset: 0x2C42B, size: 0x8, addend: 0x0, symName: __ZN2cv11_InputArrayC1INS_6Point_IiEEEERKNSt3__16vectorIT_NS4_9allocatorIS6_EEEE, symObjAddr: 0x2334, symBinAddr: 0x100006A2C, symSize: 0x34 }
  - { offsetInCU: 0x2C46C, offset: 0x2C46C, size: 0x8, addend: 0x0, symName: __ZNK2cv5Rect_IiE4areaEv, symObjAddr: 0x2368, symBinAddr: 0x100006A60, symSize: 0x28 }
  - { offsetInCU: 0x2C4A3, offset: 0x2C4A3, size: 0x8, addend: 0x0, symName: __ZNK2cv5Rect_IiE2brEv, symObjAddr: 0x2470, symBinAddr: 0x100006B68, symSize: 0x44 }
  - { offsetInCU: 0x2C4CB, offset: 0x2C4CB, size: 0x8, addend: 0x0, symName: __ZNK2cv5Rect_IiE2tlEv, symObjAddr: 0x24B4, symBinAddr: 0x100006BAC, symSize: 0x34 }
  - { offsetInCU: 0x2C4F3, offset: 0x2C4F3, size: 0x8, addend: 0x0, symName: __ZNSt3__16vectorI8ResistorNS_9allocatorIS1_EEE5beginB8ue170006Ev, symObjAddr: 0x24E8, symBinAddr: 0x100006BE0, symSize: 0x30 }
  - { offsetInCU: 0x2C51B, offset: 0x2C51B, size: 0x8, addend: 0x0, symName: __ZNSt3__16vectorI8ResistorNS_9allocatorIS1_EEE3endB8ue170006Ev, symObjAddr: 0x2518, symBinAddr: 0x100006C10, symSize: 0x30 }
  - { offsetInCU: 0x2C543, offset: 0x2C543, size: 0x8, addend: 0x0, symName: __ZNKSt3__111__wrap_iterIP8ResistorEdeB8ue170006Ev, symObjAddr: 0x257C, symBinAddr: 0x100006C74, symSize: 0x18 }
  - { offsetInCU: 0x2C569, offset: 0x2C569, size: 0x8, addend: 0x0, symName: __ZNSt3__16vectorINS_12basic_stringIcNS_11char_traitsIcEENS_9allocatorIcEEEENS4_IS6_EEE9push_backB8ue170006ERKS6_, symObjAddr: 0x25DC, symBinAddr: 0x100006CD4, symSize: 0x6C }
  - { offsetInCU: 0x2C5A0, offset: 0x2C5A0, size: 0x8, addend: 0x0, symName: __ZNSt3__111__wrap_iterIP8ResistorEppB8ue170006Ev, symObjAddr: 0x2790, symBinAddr: 0x100006E88, symSize: 0x20 }
  - { offsetInCU: 0x2C5C6, offset: 0x2C5C6, size: 0x8, addend: 0x0, symName: __ZNSt3__16vectorINS_12basic_stringIcNS_11char_traitsIcEENS_9allocatorIcEEEENS4_IS6_EEEC1B8ue170006ESt16initializer_listIS6_E, symObjAddr: 0x27B0, symBinAddr: 0x100006EA8, symSize: 0x3C }
  - { offsetInCU: 0x2C601, offset: 0x2C601, size: 0x8, addend: 0x0, symName: __ZNSt3__16vectorI8ResistorNS_9allocatorIS1_EEE9push_backB8ue170006EOS1_, symObjAddr: 0x27EC, symBinAddr: 0x100006EE4, symSize: 0x6C }
  - { offsetInCU: 0x2C638, offset: 0x2C638, size: 0x8, addend: 0x0, symName: __ZNSt3__16vectorINS_12basic_stringIcNS_11char_traitsIcEENS_9allocatorIcEEEENS4_IS6_EEEC1ERKS8_, symObjAddr: 0x2858, symBinAddr: 0x100006F50, symSize: 0x34 }
  - { offsetInCU: 0x2C673, offset: 0x2C673, size: 0x8, addend: 0x0, symName: __ZNSt3__16vectorINS_12basic_stringIcNS_11char_traitsIcEENS_9allocatorIcEEEENS4_IS6_EEED1B8ue170006Ev, symObjAddr: 0x288C, symBinAddr: 0x100006F84, symSize: 0x2C }
  - { offsetInCU: 0x2C6A2, offset: 0x2C6A2, size: 0x8, addend: 0x0, symName: __ZN8ResistorD1Ev, symObjAddr: 0x28B8, symBinAddr: 0x100006FB0, symSize: 0x2C }
  - { offsetInCU: 0x2C6CE, offset: 0x2C6CE, size: 0x8, addend: 0x0, symName: __ZNSt3__111__wrap_iterIPNS_6vectorIN2cv6Point_IiEENS_9allocatorIS4_EEEEEppB8ue170006Ev, symObjAddr: 0x28E4, symBinAddr: 0x100006FDC, symSize: 0x20 }
  - { offsetInCU: 0x2C6F4, offset: 0x2C6F4, size: 0x8, addend: 0x0, symName: __ZNSt3__16vectorINS0_IN2cv6Point_IiEENS_9allocatorIS3_EEEENS4_IS6_EEED1B8ue170006Ev, symObjAddr: 0x2904, symBinAddr: 0x100006FFC, symSize: 0x2C }
  - { offsetInCU: 0x2C71E, offset: 0x2C71E, size: 0x8, addend: 0x0, symName: __ZNSt3__112basic_stringIcNS_11char_traitsIcEENS_9allocatorIcEEEaSB8ue170006EOS5_, symObjAddr: 0x2930, symBinAddr: 0x100007028, symSize: 0x34 }
  - { offsetInCU: 0x2C753, offset: 0x2C753, size: 0x8, addend: 0x0, symName: __ZNSt3__112basic_stringIcNS_11char_traitsIcEENS_9allocatorIcEEEaSB8ue170006EPKc, symObjAddr: 0x2964, symBinAddr: 0x10000705C, symSize: 0x2C }
  - { offsetInCU: 0x2C787, offset: 0x2C787, size: 0x8, addend: 0x0, symName: __Z13drawResistorsRN2cv3MatERKNSt3__16vectorI8ResistorNS2_9allocatorIS4_EEEE, symObjAddr: 0x2990, symBinAddr: 0x100007088, symSize: 0x24C }
  - { offsetInCU: 0x2C7FF, offset: 0x2C7FF, size: 0x8, addend: 0x0, symName: __ZNKSt3__16vectorI8ResistorNS_9allocatorIS1_EEE5beginB8ue170006Ev, symObjAddr: 0x2BDC, symBinAddr: 0x1000072D4, symSize: 0x30 }
  - { offsetInCU: 0x2C827, offset: 0x2C827, size: 0x8, addend: 0x0, symName: __ZNKSt3__16vectorI8ResistorNS_9allocatorIS1_EEE3endB8ue170006Ev, symObjAddr: 0x2C0C, symBinAddr: 0x100007304, symSize: 0x30 }
  - { offsetInCU: 0x2C84F, offset: 0x2C84F, size: 0x8, addend: 0x0, symName: __ZNKSt3__111__wrap_iterIPK8ResistorEdeB8ue170006Ev, symObjAddr: 0x2C70, symBinAddr: 0x100007368, symSize: 0x18 }
  - { offsetInCU: 0x2C87A, offset: 0x2C87A, size: 0x8, addend: 0x0, symName: __ZN2cv17_InputOutputArrayC1ERNS_3MatE, symObjAddr: 0x2C88, symBinAddr: 0x100007380, symSize: 0x34 }
  - { offsetInCU: 0x2C8B6, offset: 0x2C8B6, size: 0x8, addend: 0x0, symName: __ZN2cv17_InputOutputArrayD1Ev, symObjAddr: 0x2CBC, symBinAddr: 0x1000073B4, symSize: 0x2C }
  - { offsetInCU: 0x2C8E3, offset: 0x2C8E3, size: 0x8, addend: 0x0, symName: __ZN2cv6Point_IiEC1Eii, symObjAddr: 0x2D50, symBinAddr: 0x100007448, symSize: 0x3C }
  - { offsetInCU: 0x2C92B, offset: 0x2C92B, size: 0x8, addend: 0x0, symName: __ZNSt3__111__wrap_iterIPK8ResistorEppB8ue170006Ev, symObjAddr: 0x2D8C, symBinAddr: 0x100007484, symSize: 0x20 }
  - { offsetInCU: 0x2C951, offset: 0x2C951, size: 0x8, addend: 0x0, symName: _main, symObjAddr: 0x2DAC, symBinAddr: 0x1000074A4, symSize: 0x304 }
  - { offsetInCU: 0x2C99F, offset: 0x2C99F, size: 0x8, addend: 0x0, symName: __ZNSt3__113basic_ostreamIcNS_11char_traitsIcEEElsB8ue170006EPFRS3_S4_E, symObjAddr: 0x30F8, symBinAddr: 0x1000077F0, symSize: 0x2C }
  - { offsetInCU: 0x2C9D3, offset: 0x2C9D3, size: 0x8, addend: 0x0, symName: __ZNSt3__16vectorI8ResistorNS_9allocatorIS1_EEEC1B8ue170006Ev, symObjAddr: 0x317C, symBinAddr: 0x100007874, symSize: 0x2C }
  - { offsetInCU: 0x2C9FD, offset: 0x2C9FD, size: 0x8, addend: 0x0, symName: __ZNSt3__16vectorI8ResistorNS_9allocatorIS1_EEED1B8ue170006Ev, symObjAddr: 0x31A8, symBinAddr: 0x1000078A0, symSize: 0x2C }
  - { offsetInCU: 0x2CA27, offset: 0x2CA27, size: 0x8, addend: 0x0, symName: __ZNSt3__14pairIKNS_12basic_stringIcNS_11char_traitsIcEENS_9allocatorIcEEEEN2cv7Scalar_IdEEED2Ev, symObjAddr: 0x31D4, symBinAddr: 0x1000078CC, symSize: 0x2C }
  - { offsetInCU: 0x2CA53, offset: 0x2CA53, size: 0x8, addend: 0x0, symName: __ZN2cv11_InputArrayC2ERKNS_3MatE, symObjAddr: 0x3200, symBinAddr: 0x1000078F8, symSize: 0x44 }
  - { offsetInCU: 0x2CA8D, offset: 0x2CA8D, size: 0x8, addend: 0x0, symName: __ZN2cv5Size_IiEC1Ev, symObjAddr: 0x3244, symBinAddr: 0x10000793C, symSize: 0x2C }
  - { offsetInCU: 0x2CAB9, offset: 0x2CAB9, size: 0x8, addend: 0x0, symName: __ZN2cv11_InputArray4initEiPKv, symObjAddr: 0x3270, symBinAddr: 0x100007968, symSize: 0x2C }
  - { offsetInCU: 0x2CAFD, offset: 0x2CAFD, size: 0x8, addend: 0x0, symName: __ZN2cv5Size_IiEC2Ev, symObjAddr: 0x329C, symBinAddr: 0x100007994, symSize: 0x1C }
  - { offsetInCU: 0x2CB29, offset: 0x2CB29, size: 0x8, addend: 0x0, symName: __ZN2cv12_OutputArrayC2ERNS_3MatE, symObjAddr: 0x32B8, symBinAddr: 0x1000079B0, symSize: 0x40 }
  - { offsetInCU: 0x2CB63, offset: 0x2CB63, size: 0x8, addend: 0x0, symName: __ZN2cv11_InputArrayC2Ev, symObjAddr: 0x32F8, symBinAddr: 0x1000079F0, symSize: 0x40 }
  - { offsetInCU: 0x2CB8F, offset: 0x2CB8F, size: 0x8, addend: 0x0, symName: __ZN2cv12_OutputArrayD2Ev, symObjAddr: 0x3338, symBinAddr: 0x100007A30, symSize: 0x2C }
  - { offsetInCU: 0x2CBBC, offset: 0x2CBBC, size: 0x8, addend: 0x0, symName: __ZN2cv11_InputArrayD2Ev, symObjAddr: 0x3364, symBinAddr: 0x100007A5C, symSize: 0x14 }
  - { offsetInCU: 0x2CBE8, offset: 0x2CBE8, size: 0x8, addend: 0x0, symName: __ZNSt3__14pairIKNS_12basic_stringIcNS_11char_traitsIcEENS_9allocatorIcEEEEiED2Ev, symObjAddr: 0x3378, symBinAddr: 0x100007A70, symSize: 0x2C }
  - { offsetInCU: 0x2CC14, offset: 0x2CC14, size: 0x8, addend: 0x0, symName: __ZNSt3__14pairIKNS_12basic_stringIcNS_11char_traitsIcEENS_9allocatorIcEEEEdED2Ev, symObjAddr: 0x33A4, symBinAddr: 0x100007A9C, symSize: 0x2C }
  - { offsetInCU: 0x2CC40, offset: 0x2CC40, size: 0x8, addend: 0x0, symName: __ZNKSt3__111__wrap_iterIPNS_6vectorIN2cv6Point_IiEENS_9allocatorIS4_EEEEE4baseB8ue170006Ev, symObjAddr: 0x3418, symBinAddr: 0x100007B10, symSize: 0x18 }
  - { offsetInCU: 0x2CC66, offset: 0x2CC66, size: 0x8, addend: 0x0, symName: __ZNKSt3__111__wrap_iterIP8ResistorE4baseB8ue170006Ev, symObjAddr: 0x3478, symBinAddr: 0x100007B70, symSize: 0x18 }
  - { offsetInCU: 0x2CC8C, offset: 0x2CC8C, size: 0x8, addend: 0x0, symName: __ZN8ResistorD2Ev, symObjAddr: 0x3490, symBinAddr: 0x100007B88, symSize: 0x3C }
  - { offsetInCU: 0x2CCB8, offset: 0x2CCB8, size: 0x8, addend: 0x0, symName: __ZNKSt3__111__wrap_iterIPK8ResistorE4baseB8ue170006Ev, symObjAddr: 0x3514, symBinAddr: 0x100007C0C, symSize: 0x18 }
  - { offsetInCU: 0x2CCDE, offset: 0x2CCDE, size: 0x8, addend: 0x0, symName: __ZN2cv17_InputOutputArrayC2ERNS_3MatE, symObjAddr: 0x352C, symBinAddr: 0x100007C24, symSize: 0x40 }
  - { offsetInCU: 0x2CD1A, offset: 0x2CD1A, size: 0x8, addend: 0x0, symName: __ZN2cv12_OutputArrayC2Ev, symObjAddr: 0x356C, symBinAddr: 0x100007C64, symSize: 0x3C }
  - { offsetInCU: 0x2CD46, offset: 0x2CD46, size: 0x8, addend: 0x0, symName: __ZN2cv17_InputOutputArrayD2Ev, symObjAddr: 0x35A8, symBinAddr: 0x100007CA0, symSize: 0x2C }
  - { offsetInCU: 0x2CD73, offset: 0x2CD73, size: 0x8, addend: 0x0, symName: __ZNSt3__112basic_stringIcNS_11char_traitsIcEENS_9allocatorIcEEEC2B8ue170006ILi0EEEPKc, symObjAddr: 0x35D4, symBinAddr: 0x100007CCC, symSize: 0x58 }
  - { offsetInCU: 0x2CDB7, offset: 0x2CDB7, size: 0x8, addend: 0x0, symName: __ZNSt3__117__compressed_pairINS_12basic_stringIcNS_11char_traitsIcEENS_9allocatorIcEEE5__repES5_EC1B8ue170006INS_18__default_init_tagESA_EEOT_OT0_, symObjAddr: 0x362C, symBinAddr: 0x100007D24, symSize: 0x3C }
  - { offsetInCU: 0x2CE0F, offset: 0x2CE0F, size: 0x8, addend: 0x0, symName: __ZNSt3__111char_traitsIcE6lengthB8ue170006EPKc, symObjAddr: 0x3668, symBinAddr: 0x100007D60, symSize: 0x34 }
  - { offsetInCU: 0x2CE32, offset: 0x2CE32, size: 0x8, addend: 0x0, symName: __ZNSt3__117__compressed_pairINS_12basic_stringIcNS_11char_traitsIcEENS_9allocatorIcEEE5__repES5_EC2B8ue170006INS_18__default_init_tagESA_EEOT_OT0_, symObjAddr: 0x369C, symBinAddr: 0x100007D94, symSize: 0x3C }
  - { offsetInCU: 0x2CE8A, offset: 0x2CE8A, size: 0x8, addend: 0x0, symName: __ZNSt3__122__compressed_pair_elemINS_12basic_stringIcNS_11char_traitsIcEENS_9allocatorIcEEE5__repELi0ELb0EEC2B8ue170006ENS_18__default_init_tagE, symObjAddr: 0x36D8, symBinAddr: 0x100007DD0, symSize: 0x14 }
  - { offsetInCU: 0x2CEBE, offset: 0x2CEBE, size: 0x8, addend: 0x0, symName: __ZNSt3__122__compressed_pair_elemINS_9allocatorIcEELi1ELb1EEC2B8ue170006ENS_18__default_init_tagE, symObjAddr: 0x36EC, symBinAddr: 0x100007DE4, symSize: 0x2C }
  - { offsetInCU: 0x2CEF2, offset: 0x2CEF2, size: 0x8, addend: 0x0, symName: __ZNSt3__19allocatorIcEC2B8ue170006Ev, symObjAddr: 0x3718, symBinAddr: 0x100007E10, symSize: 0x2C }
  - { offsetInCU: 0x2CF1C, offset: 0x2CF1C, size: 0x8, addend: 0x0, symName: __ZNSt3__116__non_trivial_ifILb1ENS_9allocatorIcEEEC2B8ue170006Ev, symObjAddr: 0x3744, symBinAddr: 0x100007E3C, symSize: 0x14 }
  - { offsetInCU: 0x2CF46, offset: 0x2CF46, size: 0x8, addend: 0x0, symName: __ZN2cv6Point_IiEC2Eii, symObjAddr: 0x3788, symBinAddr: 0x100007E80, symSize: 0x2C }
  - { offsetInCU: 0x2CF8E, offset: 0x2CF8E, size: 0x8, addend: 0x0, symName: __ZN2cv11_InputArrayC2IdLi4ELi1EEERKNS_4MatxIT_XT0_EXT1_EEE, symObjAddr: 0x37B4, symBinAddr: 0x100007EAC, symSize: 0x64 }
  - { offsetInCU: 0x2CFE3, offset: 0x2CFE3, size: 0x8, addend: 0x0, symName: __ZN2cv11_InputArray4initEiPKvNS_5Size_IiEE, symObjAddr: 0x3818, symBinAddr: 0x100007F10, symSize: 0x38 }
  - { offsetInCU: 0x2D035, offset: 0x2D035, size: 0x8, addend: 0x0, symName: __ZN2cv5Size_IiEC1Eii, symObjAddr: 0x3850, symBinAddr: 0x100007F48, symSize: 0x3C }
  - { offsetInCU: 0x2D07F, offset: 0x2D07F, size: 0x8, addend: 0x0, symName: __ZN2cv5Size_IiEC2Eii, symObjAddr: 0x388C, symBinAddr: 0x100007F84, symSize: 0x2C }
  - { offsetInCU: 0x2D0E7, offset: 0x2D0E7, size: 0x8, addend: 0x0, symName: __ZNKSt3__113basic_ostreamIcNS_11char_traitsIcEEE6sentrycvbB8ue170006Ev, symObjAddr: 0x3AA4, symBinAddr: 0x10000819C, symSize: 0x1C }
  - { offsetInCU: 0x2D10D, offset: 0x2D10D, size: 0x8, addend: 0x0, symName: __ZNSt3__119ostreambuf_iteratorIcNS_11char_traitsIcEEEC1B8ue170006ERNS_13basic_ostreamIcS2_EE, symObjAddr: 0x3D00, symBinAddr: 0x1000083F8, symSize: 0x34 }
  - { offsetInCU: 0x2D145, offset: 0x2D145, size: 0x8, addend: 0x0, symName: __ZNKSt3__18ios_base5flagsB8ue170006Ev, symObjAddr: 0x3D34, symBinAddr: 0x10000842C, symSize: 0x18 }
  - { offsetInCU: 0x2D16D, offset: 0x2D16D, size: 0x8, addend: 0x0, symName: __ZNKSt3__19basic_iosIcNS_11char_traitsIcEEE4fillB8ue170006Ev, symObjAddr: 0x3D4C, symBinAddr: 0x100008444, symSize: 0x64 }
  - { offsetInCU: 0x2D195, offset: 0x2D195, size: 0x8, addend: 0x0, symName: __ZNKSt3__119ostreambuf_iteratorIcNS_11char_traitsIcEEE6failedB8ue170006Ev, symObjAddr: 0x3DB0, symBinAddr: 0x1000084A8, symSize: 0x24 }
  - { offsetInCU: 0x2D1BB, offset: 0x2D1BB, size: 0x8, addend: 0x0, symName: __ZNSt3__19basic_iosIcNS_11char_traitsIcEEE8setstateB8ue170006Ej, symObjAddr: 0x3DD4, symBinAddr: 0x1000084CC, symSize: 0x2C }
  - { offsetInCU: 0x2D1F0, offset: 0x2D1F0, size: 0x8, addend: 0x0, symName: __ZNKSt3__18ios_base5widthB8ue170006Ev, symObjAddr: 0x3E00, symBinAddr: 0x1000084F8, symSize: 0x18 }
  - { offsetInCU: 0x2D218, offset: 0x2D218, size: 0x8, addend: 0x0, symName: __ZNSt3__115basic_streambufIcNS_11char_traitsIcEEE5sputnB8ue170006EPKcl, symObjAddr: 0x3E18, symBinAddr: 0x100008510, symSize: 0x3C }
  - { offsetInCU: 0x2D25A, offset: 0x2D25A, size: 0x8, addend: 0x0, symName: __ZNSt3__112basic_stringIcNS_11char_traitsIcEENS_9allocatorIcEEEC1B8ue170006Emc, symObjAddr: 0x3E54, symBinAddr: 0x10000854C, symSize: 0x3C }
  - { offsetInCU: 0x2D2A2, offset: 0x2D2A2, size: 0x8, addend: 0x0, symName: __ZNKSt3__112basic_stringIcNS_11char_traitsIcEENS_9allocatorIcEEE4dataB8ue170006Ev, symObjAddr: 0x3E90, symBinAddr: 0x100008588, symSize: 0x28 }
  - { offsetInCU: 0x2D2C8, offset: 0x2D2C8, size: 0x8, addend: 0x0, symName: __ZNSt3__18ios_base5widthB8ue170006El, symObjAddr: 0x3EB8, symBinAddr: 0x1000085B0, symSize: 0x2C }
  - { offsetInCU: 0x2D30E, offset: 0x2D30E, size: 0x8, addend: 0x0, symName: __ZNSt3__112basic_stringIcNS_11char_traitsIcEENS_9allocatorIcEEEC2B8ue170006Emc, symObjAddr: 0x3EE4, symBinAddr: 0x1000085DC, symSize: 0x4C }
  - { offsetInCU: 0x2D356, offset: 0x2D356, size: 0x8, addend: 0x0, symName: __ZNKSt3__112basic_stringIcNS_11char_traitsIcEENS_9allocatorIcEEE13__get_pointerB8ue170006Ev, symObjAddr: 0x3F44, symBinAddr: 0x10000863C, symSize: 0x54 }
  - { offsetInCU: 0x2D37C, offset: 0x2D37C, size: 0x8, addend: 0x0, symName: __ZNKSt3__112basic_stringIcNS_11char_traitsIcEENS_9allocatorIcEEE9__is_longB8ue170006Ev, symObjAddr: 0x3F98, symBinAddr: 0x100008690, symSize: 0x38 }
  - { offsetInCU: 0x2D3A2, offset: 0x2D3A2, size: 0x8, addend: 0x0, symName: __ZNKSt3__112basic_stringIcNS_11char_traitsIcEENS_9allocatorIcEEE18__get_long_pointerB8ue170006Ev, symObjAddr: 0x3FD0, symBinAddr: 0x1000086C8, symSize: 0x28 }
  - { offsetInCU: 0x2D3C8, offset: 0x2D3C8, size: 0x8, addend: 0x0, symName: __ZNKSt3__112basic_stringIcNS_11char_traitsIcEENS_9allocatorIcEEE19__get_short_pointerB8ue170006Ev, symObjAddr: 0x3FF8, symBinAddr: 0x1000086F0, symSize: 0x28 }
  - { offsetInCU: 0x2D3EE, offset: 0x2D3EE, size: 0x8, addend: 0x0, symName: __ZNKSt3__117__compressed_pairINS_12basic_stringIcNS_11char_traitsIcEENS_9allocatorIcEEE5__repES5_E5firstB8ue170006Ev, symObjAddr: 0x4020, symBinAddr: 0x100008718, symSize: 0x24 }
  - { offsetInCU: 0x2D414, offset: 0x2D414, size: 0x8, addend: 0x0, symName: __ZNKSt3__122__compressed_pair_elemINS_12basic_stringIcNS_11char_traitsIcEENS_9allocatorIcEEE5__repELi0ELb0EE5__getB8ue170006Ev, symObjAddr: 0x4044, symBinAddr: 0x10000873C, symSize: 0x14 }
  - { offsetInCU: 0x2D43A, offset: 0x2D43A, size: 0x8, addend: 0x0, symName: __ZNSt3__114pointer_traitsIPKcE10pointer_toB8ue170006ERS1_, symObjAddr: 0x4058, symBinAddr: 0x100008750, symSize: 0x14 }
  - { offsetInCU: 0x2D45D, offset: 0x2D45D, size: 0x8, addend: 0x0, symName: __ZNSt3__119ostreambuf_iteratorIcNS_11char_traitsIcEEEC2B8ue170006ERNS_13basic_ostreamIcS2_EE, symObjAddr: 0x406C, symBinAddr: 0x100008764, symSize: 0x54 }
  - { offsetInCU: 0x2D495, offset: 0x2D495, size: 0x8, addend: 0x0, symName: __ZNKSt3__19basic_iosIcNS_11char_traitsIcEEE5rdbufB8ue170006Ev, symObjAddr: 0x40C0, symBinAddr: 0x1000087B8, symSize: 0x24 }
  - { offsetInCU: 0x2D4BD, offset: 0x2D4BD, size: 0x8, addend: 0x0, symName: __ZNKSt3__18ios_base5rdbufB8ue170006Ev, symObjAddr: 0x40E4, symBinAddr: 0x1000087DC, symSize: 0x18 }
  - { offsetInCU: 0x2D4E3, offset: 0x2D4E3, size: 0x8, addend: 0x0, symName: __ZNSt3__111char_traitsIcE11eq_int_typeB8ue170006Eii, symObjAddr: 0x40FC, symBinAddr: 0x1000087F4, symSize: 0x28 }
  - { offsetInCU: 0x2D516, offset: 0x2D516, size: 0x8, addend: 0x0, symName: __ZNSt3__111char_traitsIcE3eofB8ue170006Ev, symObjAddr: 0x4124, symBinAddr: 0x10000881C, symSize: 0x8 }
  - { offsetInCU: 0x2D52A, offset: 0x2D52A, size: 0x8, addend: 0x0, symName: __ZNKSt3__19basic_iosIcNS_11char_traitsIcEEE5widenB8ue170006Ec, symObjAddr: 0x412C, symBinAddr: 0x100008824, symSize: 0x84 }
  - { offsetInCU: 0x2D593, offset: 0x2D593, size: 0x8, addend: 0x0, symName: __ZNKSt3__15ctypeIcE5widenB8ue170006Ec, symObjAddr: 0x41DC, symBinAddr: 0x1000088D4, symSize: 0x38 }
  - { offsetInCU: 0x2D5C8, offset: 0x2D5C8, size: 0x8, addend: 0x0, symName: __ZNSt3__18ios_base8setstateB8ue170006Ej, symObjAddr: 0x4214, symBinAddr: 0x10000890C, symSize: 0x34 }
  - { offsetInCU: 0x2D5FF, offset: 0x2D5FF, size: 0x8, addend: 0x0, symName: __ZNSt3__112basic_stringIcNS_11char_traitsIcEENS_9allocatorIcEEEC1B8ue170006EOS5_, symObjAddr: 0x4248, symBinAddr: 0x100008940, symSize: 0x34 }
  - { offsetInCU: 0x2D638, offset: 0x2D638, size: 0x8, addend: 0x0, symName: __ZNSt3__112basic_stringIcNS_11char_traitsIcEENS_9allocatorIcEEEC2B8ue170006EOS5_, symObjAddr: 0x427C, symBinAddr: 0x100008974, symSize: 0x50 }
  - { offsetInCU: 0x2D671, offset: 0x2D671, size: 0x8, addend: 0x0, symName: __ZNSt3__112basic_stringIcNS_11char_traitsIcEENS_9allocatorIcEEE14__default_initB8ue170006Ev, symObjAddr: 0x42CC, symBinAddr: 0x1000089C4, symSize: 0x40 }
  - { offsetInCU: 0x2D697, offset: 0x2D697, size: 0x8, addend: 0x0, symName: __ZNSt3__117__compressed_pairINS_12basic_stringIcNS_11char_traitsIcEENS_9allocatorIcEEE5__repES5_E5firstB8ue170006Ev, symObjAddr: 0x430C, symBinAddr: 0x100008A04, symSize: 0x24 }
  - { offsetInCU: 0x2D6BD, offset: 0x2D6BD, size: 0x8, addend: 0x0, symName: __ZNSt3__122__compressed_pair_elemINS_12basic_stringIcNS_11char_traitsIcEENS_9allocatorIcEEE5__repELi0ELb0EE5__getB8ue170006Ev, symObjAddr: 0x4330, symBinAddr: 0x100008A28, symSize: 0x14 }
  - { offsetInCU: 0x2D6E3, offset: 0x2D6E3, size: 0x8, addend: 0x0, symName: __ZN2cv6Point_IiEC2Ev, symObjAddr: 0x4344, symBinAddr: 0x100008A3C, symSize: 0x1C }
  - { offsetInCU: 0x2D70F, offset: 0x2D70F, size: 0x8, addend: 0x0, symName: __ZN2cv7Scalar_IdEC2Edddd, symObjAddr: 0x4374, symBinAddr: 0x100008A6C, symSize: 0x5C }
  - { offsetInCU: 0x2D777, offset: 0x2D777, size: 0x8, addend: 0x0, symName: __ZN2cv3VecIdLi4EEC2Ev, symObjAddr: 0x43D0, symBinAddr: 0x100008AC8, symSize: 0x2C }
  - { offsetInCU: 0x2D7A3, offset: 0x2D7A3, size: 0x8, addend: 0x0, symName: __ZN2cv4MatxIdLi4ELi1EEC2Ev, symObjAddr: 0x43FC, symBinAddr: 0x100008AF4, symSize: 0x60 }
  - { offsetInCU: 0x2D7EC, offset: 0x2D7EC, size: 0x8, addend: 0x0, symName: __ZNSt3__14pairIKNS_12basic_stringIcNS_11char_traitsIcEENS_9allocatorIcEEEEN2cv7Scalar_IdEEEC2B8ue170006IRA6_KcSA_LPv0EEEOT_OT0_, symObjAddr: 0x445C, symBinAddr: 0x100008B54, symSize: 0x48 }
  - { offsetInCU: 0x2D84A, offset: 0x2D84A, size: 0x8, addend: 0x0, symName: __ZN2cv7Scalar_IdEC1EOS1_, symObjAddr: 0x44A4, symBinAddr: 0x100008B9C, symSize: 0x34 }
  - { offsetInCU: 0x2D885, offset: 0x2D885, size: 0x8, addend: 0x0, symName: __ZN2cv7Scalar_IdEC2EOS1_, symObjAddr: 0x44D8, symBinAddr: 0x100008BD0, symSize: 0x68 }
  - { offsetInCU: 0x2D8C0, offset: 0x2D8C0, size: 0x8, addend: 0x0, symName: __ZNSt3__14pairIKNS_12basic_stringIcNS_11char_traitsIcEENS_9allocatorIcEEEEN2cv7Scalar_IdEEEC2B8ue170006IRA4_KcSA_LPv0EEEOT_OT0_, symObjAddr: 0x4540, symBinAddr: 0x100008C38, symSize: 0x48 }
  - { offsetInCU: 0x2D91E, offset: 0x2D91E, size: 0x8, addend: 0x0, symName: __ZNSt3__14pairIKNS_12basic_stringIcNS_11char_traitsIcEENS_9allocatorIcEEEEN2cv7Scalar_IdEEEC2B8ue170006IRA7_KcSA_LPv0EEEOT_OT0_, symObjAddr: 0x4588, symBinAddr: 0x100008C80, symSize: 0x48 }
  - { offsetInCU: 0x2D97C, offset: 0x2D97C, size: 0x8, addend: 0x0, symName: __ZNSt3__14pairIKNS_12basic_stringIcNS_11char_traitsIcEENS_9allocatorIcEEEEN2cv7Scalar_IdEEEC2B8ue170006IRA5_KcSA_LPv0EEEOT_OT0_, symObjAddr: 0x45D0, symBinAddr: 0x100008CC8, symSize: 0x48 }
  - { offsetInCU: 0x2D9DA, offset: 0x2D9DA, size: 0x8, addend: 0x0, symName: __ZNSt3__13mapINS_12basic_stringIcNS_11char_traitsIcEENS_9allocatorIcEEEEN2cv7Scalar_IdEENS_4lessIS6_EENS4_INS_4pairIKS6_S9_EEEEEC2B8ue170006ESt16initializer_listISE_ERKSB_, symObjAddr: 0x4618, symBinAddr: 0x100008D10, symSize: 0xA4 }
  - { offsetInCU: 0x2DA22, offset: 0x2DA22, size: 0x8, addend: 0x0, symName: __ZNSt3__119__map_value_compareINS_12basic_stringIcNS_11char_traitsIcEENS_9allocatorIcEEEENS_12__value_typeIS6_N2cv7Scalar_IdEEEENS_4lessIS6_EELb1EEC1B8ue170006ESD_, symObjAddr: 0x46BC, symBinAddr: 0x100008DB4, symSize: 0x2C }
  - { offsetInCU: 0x2DA5B, offset: 0x2DA5B, size: 0x8, addend: 0x0, symName: __ZNSt3__16__treeINS_12__value_typeINS_12basic_stringIcNS_11char_traitsIcEENS_9allocatorIcEEEEN2cv7Scalar_IdEEEENS_19__map_value_compareIS7_SB_NS_4lessIS7_EELb1EEENS5_ISB_EEEC1ERKSF_, symObjAddr: 0x46E8, symBinAddr: 0x100008DE0, symSize: 0x34 }
  - { offsetInCU: 0x2DA96, offset: 0x2DA96, size: 0x8, addend: 0x0, symName: __ZNSt3__13mapINS_12basic_stringIcNS_11char_traitsIcEENS_9allocatorIcEEEEN2cv7Scalar_IdEENS_4lessIS6_EENS4_INS_4pairIKS6_S9_EEEEE6insertB8ue170006IPKSE_EEvT_SK_, symObjAddr: 0x471C, symBinAddr: 0x100008E14, symSize: 0x8C }
  - { offsetInCU: 0x2DB00, offset: 0x2DB00, size: 0x8, addend: 0x0, symName: __ZNKSt16initializer_listINSt3__14pairIKNS0_12basic_stringIcNS0_11char_traitsIcEENS0_9allocatorIcEEEEN2cv7Scalar_IdEEEEE5beginB8ue170006Ev, symObjAddr: 0x47A8, symBinAddr: 0x100008EA0, symSize: 0x18 }
  - { offsetInCU: 0x2DB26, offset: 0x2DB26, size: 0x8, addend: 0x0, symName: __ZNKSt16initializer_listINSt3__14pairIKNS0_12basic_stringIcNS0_11char_traitsIcEENS0_9allocatorIcEEEEN2cv7Scalar_IdEEEEE3endB8ue170006Ev, symObjAddr: 0x47C0, symBinAddr: 0x100008EB8, symSize: 0x28 }
  - { offsetInCU: 0x2DB4C, offset: 0x2DB4C, size: 0x8, addend: 0x0, symName: __ZNSt3__16__treeINS_12__value_typeINS_12basic_stringIcNS_11char_traitsIcEENS_9allocatorIcEEEEN2cv7Scalar_IdEEEENS_19__map_value_compareIS7_SB_NS_4lessIS7_EELb1EEENS5_ISB_EEED1Ev, symObjAddr: 0x47E8, symBinAddr: 0x100008EE0, symSize: 0x2C }
  - { offsetInCU: 0x2DB78, offset: 0x2DB78, size: 0x8, addend: 0x0, symName: __ZNSt3__119__map_value_compareINS_12basic_stringIcNS_11char_traitsIcEENS_9allocatorIcEEEENS_12__value_typeIS6_N2cv7Scalar_IdEEEENS_4lessIS6_EELb1EEC2B8ue170006ESD_, symObjAddr: 0x4814, symBinAddr: 0x100008F0C, symSize: 0x14 }
  - { offsetInCU: 0x2DBB1, offset: 0x2DBB1, size: 0x8, addend: 0x0, symName: __ZNSt3__16__treeINS_12__value_typeINS_12basic_stringIcNS_11char_traitsIcEENS_9allocatorIcEEEEN2cv7Scalar_IdEEEENS_19__map_value_compareIS7_SB_NS_4lessIS7_EELb1EEENS5_ISB_EEEC2ERKSF_, symObjAddr: 0x4828, symBinAddr: 0x100008F20, symSize: 0x7C }
  - { offsetInCU: 0x2DBEC, offset: 0x2DBEC, size: 0x8, addend: 0x0, symName: __ZNSt3__117__compressed_pairINS_15__tree_end_nodeIPNS_16__tree_node_baseIPvEEEENS_9allocatorINS_11__tree_nodeINS_12__value_typeINS_12basic_stringIcNS_11char_traitsIcEENS7_IcEEEEN2cv7Scalar_IdEEEES3_EEEEEC1B8ue170006ILb1EvEEv, symObjAddr: 0x48A4, symBinAddr: 0x100008F9C, symSize: 0x2C }
  - { offsetInCU: 0x2DC21, offset: 0x2DC21, size: 0x8, addend: 0x0, symName: __ZNSt3__117__compressed_pairImNS_19__map_value_compareINS_12basic_stringIcNS_11char_traitsIcEENS_9allocatorIcEEEENS_12__value_typeIS7_N2cv7Scalar_IdEEEENS_4lessIS7_EELb1EEEEC1B8ue170006IiRKSF_EEOT_OT0_, symObjAddr: 0x48D0, symBinAddr: 0x100008FC8, symSize: 0x3C }
  - { offsetInCU: 0x2DC79, offset: 0x2DC79, size: 0x8, addend: 0x0, symName: __ZNSt3__16__treeINS_12__value_typeINS_12basic_stringIcNS_11char_traitsIcEENS_9allocatorIcEEEEN2cv7Scalar_IdEEEENS_19__map_value_compareIS7_SB_NS_4lessIS7_EELb1EEENS5_ISB_EEE10__end_nodeB8ue170006Ev, symObjAddr: 0x490C, symBinAddr: 0x100009004, symSize: 0x2C }
  - { offsetInCU: 0x2DC9F, offset: 0x2DC9F, size: 0x8, addend: 0x0, symName: __ZNSt3__16__treeINS_12__value_typeINS_12basic_stringIcNS_11char_traitsIcEENS_9allocatorIcEEEEN2cv7Scalar_IdEEEENS_19__map_value_compareIS7_SB_NS_4lessIS7_EELb1EEENS5_ISB_EEE12__begin_nodeB8ue170006Ev, symObjAddr: 0x4938, symBinAddr: 0x100009030, symSize: 0x14 }
  - { offsetInCU: 0x2DCC5, offset: 0x2DCC5, size: 0x8, addend: 0x0, symName: __ZNSt3__117__compressed_pairINS_15__tree_end_nodeIPNS_16__tree_node_baseIPvEEEENS_9allocatorINS_11__tree_nodeINS_12__value_typeINS_12basic_stringIcNS_11char_traitsIcEENS7_IcEEEEN2cv7Scalar_IdEEEES3_EEEEEC2B8ue170006ILb1EvEEv, symObjAddr: 0x494C, symBinAddr: 0x100009044, symSize: 0x34 }
  - { offsetInCU: 0x2DCFA, offset: 0x2DCFA, size: 0x8, addend: 0x0, symName: __ZNSt3__122__compressed_pair_elemINS_15__tree_end_nodeIPNS_16__tree_node_baseIPvEEEELi0ELb0EEC2B8ue170006ENS_16__value_init_tagE, symObjAddr: 0x4980, symBinAddr: 0x100009078, symSize: 0x2C }
  - { offsetInCU: 0x2DD2E, offset: 0x2DD2E, size: 0x8, addend: 0x0, symName: __ZNSt3__122__compressed_pair_elemINS_9allocatorINS_11__tree_nodeINS_12__value_typeINS_12basic_stringIcNS_11char_traitsIcEENS1_IcEEEEN2cv7Scalar_IdEEEEPvEEEELi1ELb1EEC2B8ue170006ENS_16__value_init_tagE, symObjAddr: 0x49AC, symBinAddr: 0x1000090A4, symSize: 0x2C }
  - { offsetInCU: 0x2DD62, offset: 0x2DD62, size: 0x8, addend: 0x0, symName: __ZNSt3__115__tree_end_nodeIPNS_16__tree_node_baseIPvEEEC1B8ue170006Ev, symObjAddr: 0x49D8, symBinAddr: 0x1000090D0, symSize: 0x2C }
  - { offsetInCU: 0x2DD8C, offset: 0x2DD8C, size: 0x8, addend: 0x0, symName: __ZNSt3__115__tree_end_nodeIPNS_16__tree_node_baseIPvEEEC2B8ue170006Ev, symObjAddr: 0x4A04, symBinAddr: 0x1000090FC, symSize: 0x18 }
  - { offsetInCU: 0x2DDB6, offset: 0x2DDB6, size: 0x8, addend: 0x0, symName: __ZNSt3__19allocatorINS_11__tree_nodeINS_12__value_typeINS_12basic_stringIcNS_11char_traitsIcEENS0_IcEEEEN2cv7Scalar_IdEEEEPvEEEC2B8ue170006Ev, symObjAddr: 0x4A1C, symBinAddr: 0x100009114, symSize: 0x2C }
  - { offsetInCU: 0x2DDE0, offset: 0x2DDE0, size: 0x8, addend: 0x0, symName: __ZNSt3__116__non_trivial_ifILb1ENS_9allocatorINS_11__tree_nodeINS_12__value_typeINS_12basic_stringIcNS_11char_traitsIcEENS1_IcEEEEN2cv7Scalar_IdEEEEPvEEEEEC2B8ue170006Ev, symObjAddr: 0x4A48, symBinAddr: 0x100009140, symSize: 0x14 }
  - { offsetInCU: 0x2DE0A, offset: 0x2DE0A, size: 0x8, addend: 0x0, symName: __ZNSt3__117__compressed_pairImNS_19__map_value_compareINS_12basic_stringIcNS_11char_traitsIcEENS_9allocatorIcEEEENS_12__value_typeIS7_N2cv7Scalar_IdEEEENS_4lessIS7_EELb1EEEEC2B8ue170006IiRKSF_EEOT_OT0_, symObjAddr: 0x4A5C, symBinAddr: 0x100009154, symSize: 0x44 }
  - { offsetInCU: 0x2DE62, offset: 0x2DE62, size: 0x8, addend: 0x0, symName: __ZNSt3__122__compressed_pair_elemImLi0ELb0EEC2B8ue170006IivEEOT_, symObjAddr: 0x4AA0, symBinAddr: 0x100009198, symSize: 0x24 }
  - { offsetInCU: 0x2DEA4, offset: 0x2DEA4, size: 0x8, addend: 0x0, symName: __ZNSt3__122__compressed_pair_elemINS_19__map_value_compareINS_12basic_stringIcNS_11char_traitsIcEENS_9allocatorIcEEEENS_12__value_typeIS7_N2cv7Scalar_IdEEEENS_4lessIS7_EELb1EEELi1ELb1EEC2B8ue170006IRKSF_vEEOT_, symObjAddr: 0x4AC4, symBinAddr: 0x1000091BC, symSize: 0x18 }
  - { offsetInCU: 0x2DEE6, offset: 0x2DEE6, size: 0x8, addend: 0x0, symName: __ZNSt3__114pointer_traitsIPNS_15__tree_end_nodeIPNS_16__tree_node_baseIPvEEEEE10pointer_toB8ue170006ERS6_, symObjAddr: 0x4ADC, symBinAddr: 0x1000091D4, symSize: 0x14 }
  - { offsetInCU: 0x2DF09, offset: 0x2DF09, size: 0x8, addend: 0x0, symName: __ZNSt3__117__compressed_pairINS_15__tree_end_nodeIPNS_16__tree_node_baseIPvEEEENS_9allocatorINS_11__tree_nodeINS_12__value_typeINS_12basic_stringIcNS_11char_traitsIcEENS7_IcEEEEN2cv7Scalar_IdEEEES3_EEEEE5firstB8ue170006Ev, symObjAddr: 0x4AF0, symBinAddr: 0x1000091E8, symSize: 0x24 }
  - { offsetInCU: 0x2DF2F, offset: 0x2DF2F, size: 0x8, addend: 0x0, symName: __ZNSt3__122__compressed_pair_elemINS_15__tree_end_nodeIPNS_16__tree_node_baseIPvEEEELi0ELb0EE5__getB8ue170006Ev, symObjAddr: 0x4B14, symBinAddr: 0x10000920C, symSize: 0x14 }
  - { offsetInCU: 0x2DF55, offset: 0x2DF55, size: 0x8, addend: 0x0, symName: __ZNKSt3__13mapINS_12basic_stringIcNS_11char_traitsIcEENS_9allocatorIcEEEEN2cv7Scalar_IdEENS_4lessIS6_EENS4_INS_4pairIKS6_S9_EEEEE4cendB8ue170006Ev, symObjAddr: 0x4B28, symBinAddr: 0x100009220, symSize: 0x2C }
  - { offsetInCU: 0x2DF7B, offset: 0x2DF7B, size: 0x8, addend: 0x0, symName: __ZNSt3__13mapINS_12basic_stringIcNS_11char_traitsIcEENS_9allocatorIcEEEEN2cv7Scalar_IdEENS_4lessIS6_EENS4_INS_4pairIKS6_S9_EEEEE6insertB8ue170006ENS_20__map_const_iteratorINS_21__tree_const_iteratorINS_12__value_typeIS6_S9_EEPNS_11__tree_nodeISK_PvEElEEEERKSE_, symObjAddr: 0x4B54, symBinAddr: 0x10000924C, symSize: 0x50 }
  - { offsetInCU: 0x2DFBF, offset: 0x2DFBF, size: 0x8, addend: 0x0, symName: __ZNSt3__120__map_const_iteratorINS_21__tree_const_iteratorINS_12__value_typeINS_12basic_stringIcNS_11char_traitsIcEENS_9allocatorIcEEEEN2cv7Scalar_IdEEEEPNS_11__tree_nodeISC_PvEElEEEC1B8ue170006ESH_, symObjAddr: 0x4BA4, symBinAddr: 0x10000929C, symSize: 0x34 }
  - { offsetInCU: 0x2DFF8, offset: 0x2DFF8, size: 0x8, addend: 0x0, symName: __ZNKSt3__13mapINS_12basic_stringIcNS_11char_traitsIcEENS_9allocatorIcEEEEN2cv7Scalar_IdEENS_4lessIS6_EENS4_INS_4pairIKS6_S9_EEEEE3endB8ue170006Ev, symObjAddr: 0x4BD8, symBinAddr: 0x1000092D0, symSize: 0x38 }
  - { offsetInCU: 0x2E01E, offset: 0x2E01E, size: 0x8, addend: 0x0, symName: __ZNKSt3__16__treeINS_12__value_typeINS_12basic_stringIcNS_11char_traitsIcEENS_9allocatorIcEEEEN2cv7Scalar_IdEEEENS_19__map_value_compareIS7_SB_NS_4lessIS7_EELb1EEENS5_ISB_EEE3endB8ue170006Ev, symObjAddr: 0x4C10, symBinAddr: 0x100009308, symSize: 0x34 }
  - { offsetInCU: 0x2E044, offset: 0x2E044, size: 0x8, addend: 0x0, symName: __ZNKSt3__16__treeINS_12__value_typeINS_12basic_stringIcNS_11char_traitsIcEENS_9allocatorIcEEEEN2cv7Scalar_IdEEEENS_19__map_value_compareIS7_SB_NS_4lessIS7_EELb1EEENS5_ISB_EEE10__end_nodeB8ue170006Ev, symObjAddr: 0x4C44, symBinAddr: 0x10000933C, symSize: 0x2C }
  - { offsetInCU: 0x2E06A, offset: 0x2E06A, size: 0x8, addend: 0x0, symName: __ZNSt3__121__tree_const_iteratorINS_12__value_typeINS_12basic_stringIcNS_11char_traitsIcEENS_9allocatorIcEEEEN2cv7Scalar_IdEEEEPNS_11__tree_nodeISB_PvEElEC1B8ue170006EPNS_15__tree_end_nodeIPNS_16__tree_node_baseISD_EEEE, symObjAddr: 0x4C70, symBinAddr: 0x100009368, symSize: 0x34 }
  - { offsetInCU: 0x2E0A3, offset: 0x2E0A3, size: 0x8, addend: 0x0, symName: __ZNKSt3__117__compressed_pairINS_15__tree_end_nodeIPNS_16__tree_node_baseIPvEEEENS_9allocatorINS_11__tree_nodeINS_12__value_typeINS_12basic_stringIcNS_11char_traitsIcEENS7_IcEEEEN2cv7Scalar_IdEEEES3_EEEEE5firstB8ue170006Ev, symObjAddr: 0x4CA4, symBinAddr: 0x10000939C, symSize: 0x24 }
  - { offsetInCU: 0x2E0C9, offset: 0x2E0C9, size: 0x8, addend: 0x0, symName: __ZNKSt3__122__compressed_pair_elemINS_15__tree_end_nodeIPNS_16__tree_node_baseIPvEEEELi0ELb0EE5__getB8ue170006Ev, symObjAddr: 0x4CC8, symBinAddr: 0x1000093C0, symSize: 0x14 }
  - { offsetInCU: 0x2E0EF, offset: 0x2E0EF, size: 0x8, addend: 0x0, symName: __ZNSt3__121__tree_const_iteratorINS_12__value_typeINS_12basic_stringIcNS_11char_traitsIcEENS_9allocatorIcEEEEN2cv7Scalar_IdEEEEPNS_11__tree_nodeISB_PvEElEC2B8ue170006EPNS_15__tree_end_nodeIPNS_16__tree_node_baseISD_EEEE, symObjAddr: 0x4CDC, symBinAddr: 0x1000093D4, symSize: 0x20 }
  - { offsetInCU: 0x2E128, offset: 0x2E128, size: 0x8, addend: 0x0, symName: __ZNSt3__16__treeINS_12__value_typeINS_12basic_stringIcNS_11char_traitsIcEENS_9allocatorIcEEEEN2cv7Scalar_IdEEEENS_19__map_value_compareIS7_SB_NS_4lessIS7_EELb1EEENS5_ISB_EEE15__insert_uniqueB8ue170006ENS_21__tree_const_iteratorISB_PNS_11__tree_nodeISB_PvEElEERKNS_4pairIKS7_SA_EE, symObjAddr: 0x4CFC, symBinAddr: 0x1000093F4, symSize: 0x64 }
  - { offsetInCU: 0x2E16C, offset: 0x2E16C, size: 0x8, addend: 0x0, symName: __ZNSt3__114__map_iteratorINS_15__tree_iteratorINS_12__value_typeINS_12basic_stringIcNS_11char_traitsIcEENS_9allocatorIcEEEEN2cv7Scalar_IdEEEEPNS_11__tree_nodeISC_PvEElEEEC1B8ue170006ESH_, symObjAddr: 0x4D60, symBinAddr: 0x100009458, symSize: 0x34 }
  - { offsetInCU: 0x2E1A5, offset: 0x2E1A5, size: 0x8, addend: 0x0, symName: __ZNSt3__16__treeINS_12__value_typeINS_12basic_stringIcNS_11char_traitsIcEENS_9allocatorIcEEEEN2cv7Scalar_IdEEEENS_19__map_value_compareIS7_SB_NS_4lessIS7_EELb1EEENS5_ISB_EEE30__emplace_hint_unique_key_argsIS7_JRKNS_4pairIKS7_SA_EEEEENSJ_INS_15__tree_iteratorISB_PNS_11__tree_nodeISB_PvEElEEbEENS_21__tree_const_iteratorISB_SS_lEERKT_DpOT0_, symObjAddr: 0x4D94, symBinAddr: 0x10000948C, symSize: 0x104 }
  - { offsetInCU: 0x2E271, offset: 0x2E271, size: 0x8, addend: 0x0, symName: __ZNSt3__122__tree_key_value_typesINS_12__value_typeINS_12basic_stringIcNS_11char_traitsIcEENS_9allocatorIcEEEEN2cv7Scalar_IdEEEEE9__get_keyB8ue170006IKNS_4pairIKS7_SA_EEEENS_9enable_ifIXsr17__is_same_uncvrefIT_SG_EE5valueERSF_E4typeERSJ_, symObjAddr: 0x4E98, symBinAddr: 0x100009590, symSize: 0x14 }
  - { offsetInCU: 0x2E29E, offset: 0x2E29E, size: 0x8, addend: 0x0, symName: __ZNSt3__16__treeINS_12__value_typeINS_12basic_stringIcNS_11char_traitsIcEENS_9allocatorIcEEEEN2cv7Scalar_IdEEEENS_19__map_value_compareIS7_SB_NS_4lessIS7_EELb1EEENS5_ISB_EEE12__find_equalIS7_EERPNS_16__tree_node_baseIPvEENS_21__tree_const_iteratorISB_PNS_11__tree_nodeISB_SK_EElEERPNS_15__tree_end_nodeISM_EESN_RKT_, symObjAddr: 0x4EAC, symBinAddr: 0x1000095A4, symSize: 0x304 }
  - { offsetInCU: 0x2E347, offset: 0x2E347, size: 0x8, addend: 0x0, symName: __ZNSt3__16__treeINS_12__value_typeINS_12basic_stringIcNS_11char_traitsIcEENS_9allocatorIcEEEEN2cv7Scalar_IdEEEENS_19__map_value_compareIS7_SB_NS_4lessIS7_EELb1EEENS5_ISB_EEE16__construct_nodeIJRKNS_4pairIKS7_SA_EEEEENS_10unique_ptrINS_11__tree_nodeISB_PvEENS_22__tree_node_destructorINS5_ISR_EEEEEEDpOT_, symObjAddr: 0x51B0, symBinAddr: 0x1000098A8, symSize: 0x110 }
  - { offsetInCU: 0x2E3A8, offset: 0x2E3A8, size: 0x8, addend: 0x0, symName: __ZNSt3__16__treeINS_12__value_typeINS_12basic_stringIcNS_11char_traitsIcEENS_9allocatorIcEEEEN2cv7Scalar_IdEEEENS_19__map_value_compareIS7_SB_NS_4lessIS7_EELb1EEENS5_ISB_EEE16__insert_node_atEPNS_15__tree_end_nodeIPNS_16__tree_node_baseIPvEEEERSM_SM_, symObjAddr: 0x52C0, symBinAddr: 0x1000099B8, symSize: 0xCC }
  - { offsetInCU: 0x2E3FD, offset: 0x2E3FD, size: 0x8, addend: 0x0, symName: __ZNKSt3__110unique_ptrINS_11__tree_nodeINS_12__value_typeINS_12basic_stringIcNS_11char_traitsIcEENS_9allocatorIcEEEEN2cv7Scalar_IdEEEEPvEENS_22__tree_node_destructorINS6_ISE_EEEEE3getB8ue170006Ev, symObjAddr: 0x538C, symBinAddr: 0x100009A84, symSize: 0x28 }
  - { offsetInCU: 0x2E423, offset: 0x2E423, size: 0x8, addend: 0x0, symName: __ZNSt3__110unique_ptrINS_11__tree_nodeINS_12__value_typeINS_12basic_stringIcNS_11char_traitsIcEENS_9allocatorIcEEEEN2cv7Scalar_IdEEEEPvEENS_22__tree_node_destructorINS6_ISE_EEEEE7releaseB8ue170006Ev, symObjAddr: 0x53B4, symBinAddr: 0x100009AAC, symSize: 0x44 }
  - { offsetInCU: 0x2E458, offset: 0x2E458, size: 0x8, addend: 0x0, symName: __ZNSt3__110unique_ptrINS_11__tree_nodeINS_12__value_typeINS_12basic_stringIcNS_11char_traitsIcEENS_9allocatorIcEEEEN2cv7Scalar_IdEEEEPvEENS_22__tree_node_destructorINS6_ISE_EEEEED1B8ue170006Ev, symObjAddr: 0x53F8, symBinAddr: 0x100009AF0, symSize: 0x2C }
  - { offsetInCU: 0x2E482, offset: 0x2E482, size: 0x8, addend: 0x0, symName: __ZNSt3__115__tree_iteratorINS_12__value_typeINS_12basic_stringIcNS_11char_traitsIcEENS_9allocatorIcEEEEN2cv7Scalar_IdEEEEPNS_11__tree_nodeISB_PvEElEC1B8ue170006ESF_, symObjAddr: 0x5424, symBinAddr: 0x100009B1C, symSize: 0x34 }
  - { offsetInCU: 0x2E4C0, offset: 0x2E4C0, size: 0x8, addend: 0x0, symName: __ZNSt3__14pairINS_15__tree_iteratorINS_12__value_typeINS_12basic_stringIcNS_11char_traitsIcEENS_9allocatorIcEEEEN2cv7Scalar_IdEEEEPNS_11__tree_nodeISC_PvEElEEbEC1B8ue170006ISH_RbLSE_0EEEOT_OT0_, symObjAddr: 0x5458, symBinAddr: 0x100009B50, symSize: 0x3C }
  - { offsetInCU: 0x2E51E, offset: 0x2E51E, size: 0x8, addend: 0x0, symName: __ZNSt3__16__treeINS_12__value_typeINS_12basic_stringIcNS_11char_traitsIcEENS_9allocatorIcEEEEN2cv7Scalar_IdEEEENS_19__map_value_compareIS7_SB_NS_4lessIS7_EELb1EEENS5_ISB_EEE3endB8ue170006Ev, symObjAddr: 0x54C4, symBinAddr: 0x100009BBC, symSize: 0x34 }
  - { offsetInCU: 0x2E544, offset: 0x2E544, size: 0x8, addend: 0x0, symName: __ZNSt3__121__tree_const_iteratorINS_12__value_typeINS_12basic_stringIcNS_11char_traitsIcEENS_9allocatorIcEEEEN2cv7Scalar_IdEEEEPNS_11__tree_nodeISB_PvEElEC1B8ue170006ENS_15__tree_iteratorISB_SF_lEE, symObjAddr: 0x54F8, symBinAddr: 0x100009BF0, symSize: 0x34 }
  - { offsetInCU: 0x2E57D, offset: 0x2E57D, size: 0x8, addend: 0x0, symName: __ZNSt3__16__treeINS_12__value_typeINS_12basic_stringIcNS_11char_traitsIcEENS_9allocatorIcEEEEN2cv7Scalar_IdEEEENS_19__map_value_compareIS7_SB_NS_4lessIS7_EELb1EEENS5_ISB_EEE10value_compB8ue170006Ev, symObjAddr: 0x552C, symBinAddr: 0x100009C24, symSize: 0x28 }
  - { offsetInCU: 0x2E5A3, offset: 0x2E5A3, size: 0x8, addend: 0x0, symName: __ZNKSt3__119__map_value_compareINS_12basic_stringIcNS_11char_traitsIcEENS_9allocatorIcEEEENS_12__value_typeIS6_N2cv7Scalar_IdEEEENS_4lessIS6_EELb1EEclB8ue170006ERKS6_RKSB_, symObjAddr: 0x5554, symBinAddr: 0x100009C4C, symSize: 0x50 }
  - { offsetInCU: 0x2E5E7, offset: 0x2E5E7, size: 0x8, addend: 0x0, symName: __ZNKSt3__121__tree_const_iteratorINS_12__value_typeINS_12basic_stringIcNS_11char_traitsIcEENS_9allocatorIcEEEEN2cv7Scalar_IdEEEEPNS_11__tree_nodeISB_PvEElEdeB8ue170006Ev, symObjAddr: 0x55A4, symBinAddr: 0x100009C9C, symSize: 0x28 }
  - { offsetInCU: 0x2E60D, offset: 0x2E60D, size: 0x8, addend: 0x0, symName: __ZNSt3__16__treeINS_12__value_typeINS_12basic_stringIcNS_11char_traitsIcEENS_9allocatorIcEEEEN2cv7Scalar_IdEEEENS_19__map_value_compareIS7_SB_NS_4lessIS7_EELb1EEENS5_ISB_EEE5beginB8ue170006Ev, symObjAddr: 0x55CC, symBinAddr: 0x100009CC4, symSize: 0x34 }
  - { offsetInCU: 0x2E633, offset: 0x2E633, size: 0x8, addend: 0x0, symName: __ZNKSt3__119__map_value_compareINS_12basic_stringIcNS_11char_traitsIcEENS_9allocatorIcEEEENS_12__value_typeIS6_N2cv7Scalar_IdEEEENS_4lessIS6_EELb1EEclB8ue170006ERKSB_RKS6_, symObjAddr: 0x5600, symBinAddr: 0x100009CF8, symSize: 0x48 }
  - { offsetInCU: 0x2E677, offset: 0x2E677, size: 0x8, addend: 0x0, symName: __ZNSt3__121__tree_const_iteratorINS_12__value_typeINS_12basic_stringIcNS_11char_traitsIcEENS_9allocatorIcEEEEN2cv7Scalar_IdEEEEPNS_11__tree_nodeISB_PvEElEmmB8ue170006Ev, symObjAddr: 0x5648, symBinAddr: 0x100009D40, symSize: 0x38 }
  - { offsetInCU: 0x2E69D, offset: 0x2E69D, size: 0x8, addend: 0x0, symName: __ZNSt3__16__treeINS_12__value_typeINS_12basic_stringIcNS_11char_traitsIcEENS_9allocatorIcEEEEN2cv7Scalar_IdEEEENS_19__map_value_compareIS7_SB_NS_4lessIS7_EELb1EEENS5_ISB_EEE12__find_equalIS7_EERPNS_16__tree_node_baseIPvEERPNS_15__tree_end_nodeISM_EERKT_, symObjAddr: 0x5680, symBinAddr: 0x100009D78, symSize: 0x184 }
  - { offsetInCU: 0x2E70A, offset: 0x2E70A, size: 0x8, addend: 0x0, symName: __ZNKSt3__121__tree_const_iteratorINS_12__value_typeINS_12basic_stringIcNS_11char_traitsIcEENS_9allocatorIcEEEEN2cv7Scalar_IdEEEEPNS_11__tree_nodeISB_PvEElE8__get_npB8ue170006Ev, symObjAddr: 0x5840, symBinAddr: 0x100009F38, symSize: 0x18 }
  - { offsetInCU: 0x2E730, offset: 0x2E730, size: 0x8, addend: 0x0, symName: __ZNSt3__115__tree_iteratorINS_12__value_typeINS_12basic_stringIcNS_11char_traitsIcEENS_9allocatorIcEEEEN2cv7Scalar_IdEEEEPNS_11__tree_nodeISB_PvEElEC1B8ue170006EPNS_15__tree_end_nodeIPNS_16__tree_node_baseISD_EEEE, symObjAddr: 0x5858, symBinAddr: 0x100009F50, symSize: 0x34 }
  - { offsetInCU: 0x2E769, offset: 0x2E769, size: 0x8, addend: 0x0, symName: __ZNSt3__115__tree_iteratorINS_12__value_typeINS_12basic_stringIcNS_11char_traitsIcEENS_9allocatorIcEEEEN2cv7Scalar_IdEEEEPNS_11__tree_nodeISB_PvEElEC2B8ue170006EPNS_15__tree_end_nodeIPNS_16__tree_node_baseISD_EEEE, symObjAddr: 0x588C, symBinAddr: 0x100009F84, symSize: 0x20 }
  - { offsetInCU: 0x2E7A2, offset: 0x2E7A2, size: 0x8, addend: 0x0, symName: __ZNSt3__121__tree_const_iteratorINS_12__value_typeINS_12basic_stringIcNS_11char_traitsIcEENS_9allocatorIcEEEEN2cv7Scalar_IdEEEEPNS_11__tree_nodeISB_PvEElEC2B8ue170006ENS_15__tree_iteratorISB_SF_lEE, symObjAddr: 0x58AC, symBinAddr: 0x100009FA4, symSize: 0x20 }
  - { offsetInCU: 0x2E7DB, offset: 0x2E7DB, size: 0x8, addend: 0x0, symName: __ZNSt3__117__compressed_pairImNS_19__map_value_compareINS_12basic_stringIcNS_11char_traitsIcEENS_9allocatorIcEEEENS_12__value_typeIS7_N2cv7Scalar_IdEEEENS_4lessIS7_EELb1EEEE6secondB8ue170006Ev, symObjAddr: 0x58CC, symBinAddr: 0x100009FC4, symSize: 0x24 }
  - { offsetInCU: 0x2E801, offset: 0x2E801, size: 0x8, addend: 0x0, symName: __ZNSt3__122__compressed_pair_elemINS_19__map_value_compareINS_12basic_stringIcNS_11char_traitsIcEENS_9allocatorIcEEEENS_12__value_typeIS7_N2cv7Scalar_IdEEEENS_4lessIS7_EELb1EEELi1ELb1EE5__getB8ue170006Ev, symObjAddr: 0x58F0, symBinAddr: 0x100009FE8, symSize: 0x14 }
  - { offsetInCU: 0x2E827, offset: 0x2E827, size: 0x8, addend: 0x0, symName: __ZNKSt3__14lessINS_12basic_stringIcNS_11char_traitsIcEENS_9allocatorIcEEEEEclB8ue170006ERKS6_S9_, symObjAddr: 0x5904, symBinAddr: 0x100009FFC, symSize: 0x34 }
  - { offsetInCU: 0x2E86B, offset: 0x2E86B, size: 0x8, addend: 0x0, symName: __ZNKSt3__112__value_typeINS_12basic_stringIcNS_11char_traitsIcEENS_9allocatorIcEEEEN2cv7Scalar_IdEEE11__get_valueB8ue170006Ev, symObjAddr: 0x5938, symBinAddr: 0x10000A030, symSize: 0x14 }
  - { offsetInCU: 0x2E891, offset: 0x2E891, size: 0x8, addend: 0x0, symName: __ZNKSt3__112basic_stringIcNS_11char_traitsIcEENS_9allocatorIcEEE7compareB8ue170006ERKS5_, symObjAddr: 0x5984, symBinAddr: 0x10000A07C, symSize: 0x4C }
  - { offsetInCU: 0x2E8C8, offset: 0x2E8C8, size: 0x8, addend: 0x0, symName: __ZNKSt3__112basic_stringIcNS_11char_traitsIcEENS_9allocatorIcEEE7compareINS_17basic_string_viewIcS2_EELi0EEEiRKT_, symObjAddr: 0x59D0, symBinAddr: 0x10000A0C8, symSize: 0x12C }
  - { offsetInCU: 0x2E94B, offset: 0x2E94B, size: 0x8, addend: 0x0, symName: __ZNKSt3__112basic_stringIcNS_11char_traitsIcEENS_9allocatorIcEEEcvNS_17basic_string_viewIcS2_EEB8ue170006Ev, symObjAddr: 0x5AFC, symBinAddr: 0x10000A1F4, symSize: 0x50 }
  - { offsetInCU: 0x2E971, offset: 0x2E971, size: 0x8, addend: 0x0, symName: __ZNKSt3__112basic_stringIcNS_11char_traitsIcEENS_9allocatorIcEEE4sizeB8ue170006Ev, symObjAddr: 0x5B4C, symBinAddr: 0x10000A244, symSize: 0x54 }
  - { offsetInCU: 0x2E997, offset: 0x2E997, size: 0x8, addend: 0x0, symName: __ZNKSt3__117basic_string_viewIcNS_11char_traitsIcEEE4sizeB8ue170006Ev, symObjAddr: 0x5BA0, symBinAddr: 0x10000A298, symSize: 0x18 }
  - { offsetInCU: 0x2E9BD, offset: 0x2E9BD, size: 0x8, addend: 0x0, symName: __ZNSt3__111char_traitsIcE7compareB8ue170006EPKcS3_m, symObjAddr: 0x5BB8, symBinAddr: 0x10000A2B0, symSize: 0x34 }
  - { offsetInCU: 0x2E9FC, offset: 0x2E9FC, size: 0x8, addend: 0x0, symName: __ZNKSt3__117basic_string_viewIcNS_11char_traitsIcEEE4dataB8ue170006Ev, symObjAddr: 0x5BEC, symBinAddr: 0x10000A2E4, symSize: 0x18 }
  - { offsetInCU: 0x2EA22, offset: 0x2EA22, size: 0x8, addend: 0x0, symName: __ZNKSt3__112basic_stringIcNS_11char_traitsIcEENS_9allocatorIcEEE15__get_long_sizeB8ue170006Ev, symObjAddr: 0x5C30, symBinAddr: 0x10000A328, symSize: 0x28 }
  - { offsetInCU: 0x2EA48, offset: 0x2EA48, size: 0x8, addend: 0x0, symName: __ZNKSt3__112basic_stringIcNS_11char_traitsIcEENS_9allocatorIcEEE16__get_short_sizeB8ue170006Ev, symObjAddr: 0x5C58, symBinAddr: 0x10000A350, symSize: 0x34 }
  - { offsetInCU: 0x2EA78, offset: 0x2EA78, size: 0x8, addend: 0x0, symName: __ZNKSt3__16__lessIvvEclB8ue170006ImmEEbRKT_RKT0_, symObjAddr: 0x5CE0, symBinAddr: 0x10000A3D8, symSize: 0x34 }
  - { offsetInCU: 0x2EACC, offset: 0x2EACC, size: 0x8, addend: 0x0, symName: __ZNSt3__117basic_string_viewIcNS_11char_traitsIcEEEC1B8ue170006EPKcm, symObjAddr: 0x5D14, symBinAddr: 0x10000A40C, symSize: 0x3C }
  - { offsetInCU: 0x2EB14, offset: 0x2EB14, size: 0x8, addend: 0x0, symName: __ZNSt3__117basic_string_viewIcNS_11char_traitsIcEEEC2B8ue170006EPKcm, symObjAddr: 0x5D50, symBinAddr: 0x10000A448, symSize: 0x2C }
  - { offsetInCU: 0x2EB5C, offset: 0x2EB5C, size: 0x8, addend: 0x0, symName: __ZNKSt3__116__tree_node_baseIPvE15__parent_unsafeB8ue170006Ev, symObjAddr: 0x5E8C, symBinAddr: 0x10000A584, symSize: 0x18 }
  - { offsetInCU: 0x2EB82, offset: 0x2EB82, size: 0x8, addend: 0x0, symName: __ZNKSt3__16__treeINS_12__value_typeINS_12basic_stringIcNS_11char_traitsIcEENS_9allocatorIcEEEEN2cv7Scalar_IdEEEENS_19__map_value_compareIS7_SB_NS_4lessIS7_EELb1EEENS5_ISB_EEE6__rootB8ue170006Ev, symObjAddr: 0x5EA4, symBinAddr: 0x10000A59C, symSize: 0x28 }
  - { offsetInCU: 0x2EBA8, offset: 0x2EBA8, size: 0x8, addend: 0x0, symName: __ZNKSt3__16__treeINS_12__value_typeINS_12basic_stringIcNS_11char_traitsIcEENS_9allocatorIcEEEEN2cv7Scalar_IdEEEENS_19__map_value_compareIS7_SB_NS_4lessIS7_EELb1EEENS5_ISB_EEE10__root_ptrB8ue170006Ev, symObjAddr: 0x5ECC, symBinAddr: 0x10000A5C4, symSize: 0x24 }
  - { offsetInCU: 0x2EBCE, offset: 0x2EBCE, size: 0x8, addend: 0x0, symName: __ZNSt3__121__tree_const_iteratorINS_12__value_typeINS_12basic_stringIcNS_11char_traitsIcEENS_9allocatorIcEEEEN2cv7Scalar_IdEEEEPNS_11__tree_nodeISB_PvEElEppB8ue170006Ev, symObjAddr: 0x5FE0, symBinAddr: 0x10000A6D8, symSize: 0x38 }
  - { offsetInCU: 0x2EBF4, offset: 0x2EBF4, size: 0x8, addend: 0x0, symName: __ZNSt3__16__treeINS_12__value_typeINS_12basic_stringIcNS_11char_traitsIcEENS_9allocatorIcEEEEN2cv7Scalar_IdEEEENS_19__map_value_compareIS7_SB_NS_4lessIS7_EELb1EEENS5_ISB_EEE12__node_allocB8ue170006Ev, symObjAddr: 0x60D8, symBinAddr: 0x10000A7D0, symSize: 0x28 }
  - { offsetInCU: 0x2EC1A, offset: 0x2EC1A, size: 0x8, addend: 0x0, symName: __ZNSt3__116allocator_traitsINS_9allocatorINS_11__tree_nodeINS_12__value_typeINS_12basic_stringIcNS_11char_traitsIcEENS1_IcEEEEN2cv7Scalar_IdEEEEPvEEEEE8allocateB8ue170006ERSF_m, symObjAddr: 0x6100, symBinAddr: 0x10000A7F8, symSize: 0x2C }
  - { offsetInCU: 0x2EC4D, offset: 0x2EC4D, size: 0x8, addend: 0x0, symName: __ZNSt3__122__tree_node_destructorINS_9allocatorINS_11__tree_nodeINS_12__value_typeINS_12basic_stringIcNS_11char_traitsIcEENS1_IcEEEEN2cv7Scalar_IdEEEEPvEEEEEC1B8ue170006ERSF_b, symObjAddr: 0x612C, symBinAddr: 0x10000A824, symSize: 0x48 }
  - { offsetInCU: 0x2EC9A, offset: 0x2EC9A, size: 0x8, addend: 0x0, symName: __ZNSt3__110unique_ptrINS_11__tree_nodeINS_12__value_typeINS_12basic_stringIcNS_11char_traitsIcEENS_9allocatorIcEEEEN2cv7Scalar_IdEEEEPvEENS_22__tree_node_destructorINS6_ISE_EEEEEC1B8ue170006ILb1EvEEPSE_NS_16__dependent_typeINS_27__unique_ptr_deleter_sfinaeISH_EEXT_EE20__good_rval_ref_typeE, symObjAddr: 0x6174, symBinAddr: 0x10000A86C, symSize: 0x3C }
  - { offsetInCU: 0x2ECEB, offset: 0x2ECEB, size: 0x8, addend: 0x0, symName: __ZNSt3__116allocator_traitsINS_9allocatorINS_11__tree_nodeINS_12__value_typeINS_12basic_stringIcNS_11char_traitsIcEENS1_IcEEEEN2cv7Scalar_IdEEEEPvEEEEE9constructB8ue170006INS_4pairIKS8_SB_EEJRKSK_EvEEvRSF_PT_DpOT0_, symObjAddr: 0x61B0, symBinAddr: 0x10000A8A8, symSize: 0x34 }
  - { offsetInCU: 0x2ED42, offset: 0x2ED42, size: 0x8, addend: 0x0, symName: __ZNSt3__122__tree_key_value_typesINS_12__value_typeINS_12basic_stringIcNS_11char_traitsIcEENS_9allocatorIcEEEEN2cv7Scalar_IdEEEEE9__get_ptrB8ue170006ERSB_, symObjAddr: 0x61E4, symBinAddr: 0x10000A8DC, symSize: 0x24 }
  - { offsetInCU: 0x2ED66, offset: 0x2ED66, size: 0x8, addend: 0x0, symName: __ZNKSt3__110unique_ptrINS_11__tree_nodeINS_12__value_typeINS_12basic_stringIcNS_11char_traitsIcEENS_9allocatorIcEEEEN2cv7Scalar_IdEEEEPvEENS_22__tree_node_destructorINS6_ISE_EEEEEptB8ue170006Ev, symObjAddr: 0x6208, symBinAddr: 0x10000A900, symSize: 0x28 }
  - { offsetInCU: 0x2ED8C, offset: 0x2ED8C, size: 0x8, addend: 0x0, symName: __ZNSt3__110unique_ptrINS_11__tree_nodeINS_12__value_typeINS_12basic_stringIcNS_11char_traitsIcEENS_9allocatorIcEEEEN2cv7Scalar_IdEEEEPvEENS_22__tree_node_destructorINS6_ISE_EEEEE11get_deleterB8ue170006Ev, symObjAddr: 0x6230, symBinAddr: 0x10000A928, symSize: 0x24 }
  - { offsetInCU: 0x2EDB2, offset: 0x2EDB2, size: 0x8, addend: 0x0, symName: __ZNSt3__117__compressed_pairINS_15__tree_end_nodeIPNS_16__tree_node_baseIPvEEEENS_9allocatorINS_11__tree_nodeINS_12__value_typeINS_12basic_stringIcNS_11char_traitsIcEENS7_IcEEEEN2cv7Scalar_IdEEEES3_EEEEE6secondB8ue170006Ev, symObjAddr: 0x6254, symBinAddr: 0x10000A94C, symSize: 0x24 }
  - { offsetInCU: 0x2EDD8, offset: 0x2EDD8, size: 0x8, addend: 0x0, symName: __ZNSt3__122__compressed_pair_elemINS_9allocatorINS_11__tree_nodeINS_12__value_typeINS_12basic_stringIcNS_11char_traitsIcEENS1_IcEEEEN2cv7Scalar_IdEEEEPvEEEELi1ELb1EE5__getB8ue170006Ev, symObjAddr: 0x6278, symBinAddr: 0x10000A970, symSize: 0x14 }
  - { offsetInCU: 0x2EDFE, offset: 0x2EDFE, size: 0x8, addend: 0x0, symName: __ZNSt3__19allocatorINS_11__tree_nodeINS_12__value_typeINS_12basic_stringIcNS_11char_traitsIcEENS0_IcEEEEN2cv7Scalar_IdEEEEPvEEE8allocateB8ue170006Em, symObjAddr: 0x628C, symBinAddr: 0x10000A984, symSize: 0x5C }
  - { offsetInCU: 0x2EE3C, offset: 0x2EE3C, size: 0x8, addend: 0x0, symName: __ZNSt3__116allocator_traitsINS_9allocatorINS_11__tree_nodeINS_12__value_typeINS_12basic_stringIcNS_11char_traitsIcEENS1_IcEEEEN2cv7Scalar_IdEEEEPvEEEEE8max_sizeB8ue170006ISF_vEEmRKSF_, symObjAddr: 0x62E8, symBinAddr: 0x10000A9E0, symSize: 0x24 }
  - { offsetInCU: 0x2EE6A, offset: 0x2EE6A, size: 0x8, addend: 0x0, symName: __ZNKSt3__19allocatorINS_11__tree_nodeINS_12__value_typeINS_12basic_stringIcNS_11char_traitsIcEENS0_IcEEEEN2cv7Scalar_IdEEEEPvEEE8max_sizeB8ue170006Ev, symObjAddr: 0x6368, symBinAddr: 0x10000AA60, symSize: 0x20 }
  - { offsetInCU: 0x2EE90, offset: 0x2EE90, size: 0x8, addend: 0x0, symName: __ZNSt3__122__tree_node_destructorINS_9allocatorINS_11__tree_nodeINS_12__value_typeINS_12basic_stringIcNS_11char_traitsIcEENS1_IcEEEEN2cv7Scalar_IdEEEEPvEEEEEC2B8ue170006ERSF_b, symObjAddr: 0x63AC, symBinAddr: 0x10000AAA4, symSize: 0x38 }
  - { offsetInCU: 0x2EED8, offset: 0x2EED8, size: 0x8, addend: 0x0, symName: __ZNSt3__110unique_ptrINS_11__tree_nodeINS_12__value_typeINS_12basic_stringIcNS_11char_traitsIcEENS_9allocatorIcEEEEN2cv7Scalar_IdEEEEPvEENS_22__tree_node_destructorINS6_ISE_EEEEEC2B8ue170006ILb1EvEEPSE_NS_16__dependent_typeINS_27__unique_ptr_deleter_sfinaeISH_EEXT_EE20__good_rval_ref_typeE, symObjAddr: 0x63E4, symBinAddr: 0x10000AADC, symSize: 0x48 }
  - { offsetInCU: 0x2EF29, offset: 0x2EF29, size: 0x8, addend: 0x0, symName: __ZNSt3__117__compressed_pairIPNS_11__tree_nodeINS_12__value_typeINS_12basic_stringIcNS_11char_traitsIcEENS_9allocatorIcEEEEN2cv7Scalar_IdEEEEPvEENS_22__tree_node_destructorINS6_ISE_EEEEEC1B8ue170006IRSF_SI_EEOT_OT0_, symObjAddr: 0x642C, symBinAddr: 0x10000AB24, symSize: 0x3C }
  - { offsetInCU: 0x2EF81, offset: 0x2EF81, size: 0x8, addend: 0x0, symName: __ZNSt3__117__compressed_pairIPNS_11__tree_nodeINS_12__value_typeINS_12basic_stringIcNS_11char_traitsIcEENS_9allocatorIcEEEEN2cv7Scalar_IdEEEEPvEENS_22__tree_node_destructorINS6_ISE_EEEEEC2B8ue170006IRSF_SI_EEOT_OT0_, symObjAddr: 0x6468, symBinAddr: 0x10000AB60, symSize: 0x48 }
  - { offsetInCU: 0x2EFD9, offset: 0x2EFD9, size: 0x8, addend: 0x0, symName: __ZNSt3__122__compressed_pair_elemIPNS_11__tree_nodeINS_12__value_typeINS_12basic_stringIcNS_11char_traitsIcEENS_9allocatorIcEEEEN2cv7Scalar_IdEEEEPvEELi0ELb0EEC2B8ue170006IRSF_vEEOT_, symObjAddr: 0x64B0, symBinAddr: 0x10000ABA8, symSize: 0x24 }
  - { offsetInCU: 0x2F01B, offset: 0x2F01B, size: 0x8, addend: 0x0, symName: __ZNSt3__122__compressed_pair_elemINS_22__tree_node_destructorINS_9allocatorINS_11__tree_nodeINS_12__value_typeINS_12basic_stringIcNS_11char_traitsIcEENS2_IcEEEEN2cv7Scalar_IdEEEEPvEEEEEELi1ELb0EEC2B8ue170006ISH_vEEOT_, symObjAddr: 0x64D4, symBinAddr: 0x10000ABCC, symSize: 0x24 }
  - { offsetInCU: 0x2F05D, offset: 0x2F05D, size: 0x8, addend: 0x0, symName: __ZNSt3__19allocatorINS_11__tree_nodeINS_12__value_typeINS_12basic_stringIcNS_11char_traitsIcEENS0_IcEEEEN2cv7Scalar_IdEEEEPvEEE9constructB8ue170006INS_4pairIKS7_SA_EEJRKSI_EEEvPT_DpOT0_, symObjAddr: 0x64F8, symBinAddr: 0x10000ABF0, symSize: 0x30 }
  - { offsetInCU: 0x2F0B3, offset: 0x2F0B3, size: 0x8, addend: 0x0, symName: __ZNSt3__14pairIKNS_12basic_stringIcNS_11char_traitsIcEENS_9allocatorIcEEEEN2cv7Scalar_IdEEEC1B8ue170006ERKSB_, symObjAddr: 0x6528, symBinAddr: 0x10000AC20, symSize: 0x34 }
  - { offsetInCU: 0x2F0E7, offset: 0x2F0E7, size: 0x8, addend: 0x0, symName: __ZNSt3__14pairIKNS_12basic_stringIcNS_11char_traitsIcEENS_9allocatorIcEEEEN2cv7Scalar_IdEEEC2B8ue170006ERKSB_, symObjAddr: 0x655C, symBinAddr: 0x10000AC54, symSize: 0x70 }
  - { offsetInCU: 0x2F11B, offset: 0x2F11B, size: 0x8, addend: 0x0, symName: __ZN2cv7Scalar_IdEC1ERKS1_, symObjAddr: 0x65CC, symBinAddr: 0x10000ACC4, symSize: 0x34 }
  - { offsetInCU: 0x2F156, offset: 0x2F156, size: 0x8, addend: 0x0, symName: __ZN2cv7Scalar_IdEC2ERKS1_, symObjAddr: 0x6600, symBinAddr: 0x10000ACF8, symSize: 0x34 }
  - { offsetInCU: 0x2F191, offset: 0x2F191, size: 0x8, addend: 0x0, symName: __ZN2cv3VecIdLi4EEC2ERKS1_, symObjAddr: 0x6634, symBinAddr: 0x10000AD2C, symSize: 0x34 }
  - { offsetInCU: 0x2F1CC, offset: 0x2F1CC, size: 0x8, addend: 0x0, symName: __ZN2cv4MatxIdLi4ELi1EEC2EPKd, symObjAddr: 0x6668, symBinAddr: 0x10000AD60, symSize: 0x6C }
  - { offsetInCU: 0x2F223, offset: 0x2F223, size: 0x8, addend: 0x0, symName: __ZNSt3__112__value_typeINS_12basic_stringIcNS_11char_traitsIcEENS_9allocatorIcEEEEN2cv7Scalar_IdEEE11__get_valueB8ue170006Ev, symObjAddr: 0x66D4, symBinAddr: 0x10000ADCC, symSize: 0x14 }
  - { offsetInCU: 0x2F249, offset: 0x2F249, size: 0x8, addend: 0x0, symName: __ZNKSt3__117__compressed_pairIPNS_11__tree_nodeINS_12__value_typeINS_12basic_stringIcNS_11char_traitsIcEENS_9allocatorIcEEEEN2cv7Scalar_IdEEEEPvEENS_22__tree_node_destructorINS6_ISE_EEEEE5firstB8ue170006Ev, symObjAddr: 0x66E8, symBinAddr: 0x10000ADE0, symSize: 0x24 }
  - { offsetInCU: 0x2F26F, offset: 0x2F26F, size: 0x8, addend: 0x0, symName: __ZNKSt3__122__compressed_pair_elemIPNS_11__tree_nodeINS_12__value_typeINS_12basic_stringIcNS_11char_traitsIcEENS_9allocatorIcEEEEN2cv7Scalar_IdEEEEPvEELi0ELb0EE5__getB8ue170006Ev, symObjAddr: 0x670C, symBinAddr: 0x10000AE04, symSize: 0x14 }
  - { offsetInCU: 0x2F295, offset: 0x2F295, size: 0x8, addend: 0x0, symName: __ZNSt3__117__compressed_pairIPNS_11__tree_nodeINS_12__value_typeINS_12basic_stringIcNS_11char_traitsIcEENS_9allocatorIcEEEEN2cv7Scalar_IdEEEEPvEENS_22__tree_node_destructorINS6_ISE_EEEEE6secondB8ue170006Ev, symObjAddr: 0x6720, symBinAddr: 0x10000AE18, symSize: 0x28 }
  - { offsetInCU: 0x2F2BB, offset: 0x2F2BB, size: 0x8, addend: 0x0, symName: __ZNSt3__122__compressed_pair_elemINS_22__tree_node_destructorINS_9allocatorINS_11__tree_nodeINS_12__value_typeINS_12basic_stringIcNS_11char_traitsIcEENS2_IcEEEEN2cv7Scalar_IdEEEEPvEEEEEELi1ELb0EE5__getB8ue170006Ev, symObjAddr: 0x6748, symBinAddr: 0x10000AE40, symSize: 0x14 }
  - { offsetInCU: 0x2F2E1, offset: 0x2F2E1, size: 0x8, addend: 0x0, symName: __ZNSt3__16__treeINS_12__value_typeINS_12basic_stringIcNS_11char_traitsIcEENS_9allocatorIcEEEEN2cv7Scalar_IdEEEENS_19__map_value_compareIS7_SB_NS_4lessIS7_EELb1EEENS5_ISB_EEE4sizeB8ue170006Ev, symObjAddr: 0x69D8, symBinAddr: 0x10000B0D0, symSize: 0x28 }
  - { offsetInCU: 0x2F307, offset: 0x2F307, size: 0x8, addend: 0x0, symName: __ZNSt3__116__tree_node_baseIPvE12__set_parentB8ue170006EPS2_, symObjAddr: 0x6BA4, symBinAddr: 0x10000B29C, symSize: 0x20 }
  - { offsetInCU: 0x2F33C, offset: 0x2F33C, size: 0x8, addend: 0x0, symName: __ZNSt3__117__compressed_pairImNS_19__map_value_compareINS_12basic_stringIcNS_11char_traitsIcEENS_9allocatorIcEEEENS_12__value_typeIS7_N2cv7Scalar_IdEEEENS_4lessIS7_EELb1EEEE5firstB8ue170006Ev, symObjAddr: 0x6BC4, symBinAddr: 0x10000B2BC, symSize: 0x24 }
  - { offsetInCU: 0x2F362, offset: 0x2F362, size: 0x8, addend: 0x0, symName: __ZNSt3__122__compressed_pair_elemImLi0ELb0EE5__getB8ue170006Ev, symObjAddr: 0x6BE8, symBinAddr: 0x10000B2E0, symSize: 0x14 }
  - { offsetInCU: 0x2F388, offset: 0x2F388, size: 0x8, addend: 0x0, symName: __ZNSt3__117__compressed_pairIPNS_11__tree_nodeINS_12__value_typeINS_12basic_stringIcNS_11char_traitsIcEENS_9allocatorIcEEEEN2cv7Scalar_IdEEEEPvEENS_22__tree_node_destructorINS6_ISE_EEEEE5firstB8ue170006Ev, symObjAddr: 0x6BFC, symBinAddr: 0x10000B2F4, symSize: 0x24 }
  - { offsetInCU: 0x2F3AE, offset: 0x2F3AE, size: 0x8, addend: 0x0, symName: __ZNSt3__122__compressed_pair_elemIPNS_11__tree_nodeINS_12__value_typeINS_12basic_stringIcNS_11char_traitsIcEENS_9allocatorIcEEEEN2cv7Scalar_IdEEEEPvEELi0ELb0EE5__getB8ue170006Ev, symObjAddr: 0x6C20, symBinAddr: 0x10000B318, symSize: 0x14 }
  - { offsetInCU: 0x2F3D4, offset: 0x2F3D4, size: 0x8, addend: 0x0, symName: __ZNSt3__110unique_ptrINS_11__tree_nodeINS_12__value_typeINS_12basic_stringIcNS_11char_traitsIcEENS_9allocatorIcEEEEN2cv7Scalar_IdEEEEPvEENS_22__tree_node_destructorINS6_ISE_EEEEED2B8ue170006Ev, symObjAddr: 0x6C34, symBinAddr: 0x10000B32C, symSize: 0x30 }
  - { offsetInCU: 0x2F3FE, offset: 0x2F3FE, size: 0x8, addend: 0x0, symName: __ZNSt3__110unique_ptrINS_11__tree_nodeINS_12__value_typeINS_12basic_stringIcNS_11char_traitsIcEENS_9allocatorIcEEEEN2cv7Scalar_IdEEEEPvEENS_22__tree_node_destructorINS6_ISE_EEEEE5resetB8ue170006EPSE_, symObjAddr: 0x6C64, symBinAddr: 0x10000B35C, symSize: 0x78 }
  - { offsetInCU: 0x2F442, offset: 0x2F442, size: 0x8, addend: 0x0, symName: __ZNSt3__122__tree_node_destructorINS_9allocatorINS_11__tree_nodeINS_12__value_typeINS_12basic_stringIcNS_11char_traitsIcEENS1_IcEEEEN2cv7Scalar_IdEEEEPvEEEEEclB8ue170006EPSE_, symObjAddr: 0x6CDC, symBinAddr: 0x10000B3D4, symSize: 0x98 }
  - { offsetInCU: 0x2F477, offset: 0x2F477, size: 0x8, addend: 0x0, symName: __ZNSt3__116allocator_traitsINS_9allocatorINS_11__tree_nodeINS_12__value_typeINS_12basic_stringIcNS_11char_traitsIcEENS1_IcEEEEN2cv7Scalar_IdEEEEPvEEEEE7destroyB8ue170006INS_4pairIKS8_SB_EEvvEEvRSF_PT_, symObjAddr: 0x6D74, symBinAddr: 0x10000B46C, symSize: 0x28 }
  - { offsetInCU: 0x2F4B2, offset: 0x2F4B2, size: 0x8, addend: 0x0, symName: __ZNSt3__116allocator_traitsINS_9allocatorINS_11__tree_nodeINS_12__value_typeINS_12basic_stringIcNS_11char_traitsIcEENS1_IcEEEEN2cv7Scalar_IdEEEEPvEEEEE10deallocateB8ue170006ERSF_PSE_m, symObjAddr: 0x6D9C, symBinAddr: 0x10000B494, symSize: 0x34 }
  - { offsetInCU: 0x2F4F4, offset: 0x2F4F4, size: 0x8, addend: 0x0, symName: __ZNSt3__19allocatorINS_11__tree_nodeINS_12__value_typeINS_12basic_stringIcNS_11char_traitsIcEENS0_IcEEEEN2cv7Scalar_IdEEEEPvEEE10deallocateB8ue170006EPSD_m, symObjAddr: 0x6DD0, symBinAddr: 0x10000B4C8, symSize: 0x44 }
  - { offsetInCU: 0x2F536, offset: 0x2F536, size: 0x8, addend: 0x0, symName: __ZNSt3__115__tree_iteratorINS_12__value_typeINS_12basic_stringIcNS_11char_traitsIcEENS_9allocatorIcEEEEN2cv7Scalar_IdEEEEPNS_11__tree_nodeISB_PvEElEC2B8ue170006ESF_, symObjAddr: 0x6E90, symBinAddr: 0x10000B588, symSize: 0x20 }
  - { offsetInCU: 0x2F56F, offset: 0x2F56F, size: 0x8, addend: 0x0, symName: __ZNSt3__14pairINS_15__tree_iteratorINS_12__value_typeINS_12basic_stringIcNS_11char_traitsIcEENS_9allocatorIcEEEEN2cv7Scalar_IdEEEEPNS_11__tree_nodeISC_PvEElEEbEC2B8ue170006ISH_RbLSE_0EEEOT_OT0_, symObjAddr: 0x6EB0, symBinAddr: 0x10000B5A8, symSize: 0x38 }
  - { offsetInCU: 0x2F5CD, offset: 0x2F5CD, size: 0x8, addend: 0x0, symName: __ZNSt3__114__map_iteratorINS_15__tree_iteratorINS_12__value_typeINS_12basic_stringIcNS_11char_traitsIcEENS_9allocatorIcEEEEN2cv7Scalar_IdEEEEPNS_11__tree_nodeISC_PvEElEEEC2B8ue170006ESH_, symObjAddr: 0x6EE8, symBinAddr: 0x10000B5E0, symSize: 0x20 }
  - { offsetInCU: 0x2F606, offset: 0x2F606, size: 0x8, addend: 0x0, symName: __ZNSt3__120__map_const_iteratorINS_21__tree_const_iteratorINS_12__value_typeINS_12basic_stringIcNS_11char_traitsIcEENS_9allocatorIcEEEEN2cv7Scalar_IdEEEEPNS_11__tree_nodeISC_PvEElEEEC2B8ue170006ESH_, symObjAddr: 0x6F08, symBinAddr: 0x10000B600, symSize: 0x20 }
  - { offsetInCU: 0x2F63F, offset: 0x2F63F, size: 0x8, addend: 0x0, symName: __ZNSt3__16__treeINS_12__value_typeINS_12basic_stringIcNS_11char_traitsIcEENS_9allocatorIcEEEEN2cv7Scalar_IdEEEENS_19__map_value_compareIS7_SB_NS_4lessIS7_EELb1EEENS5_ISB_EEED2Ev, symObjAddr: 0x6F28, symBinAddr: 0x10000B620, symSize: 0x38 }
  - { offsetInCU: 0x2F66B, offset: 0x2F66B, size: 0x8, addend: 0x0, symName: __ZNSt3__16__treeINS_12__value_typeINS_12basic_stringIcNS_11char_traitsIcEENS_9allocatorIcEEEEN2cv7Scalar_IdEEEENS_19__map_value_compareIS7_SB_NS_4lessIS7_EELb1EEENS5_ISB_EEE7destroyEPNS_11__tree_nodeISB_PvEE, symObjAddr: 0x6F60, symBinAddr: 0x10000B658, symSize: 0xA8 }
  - { offsetInCU: 0x2F6B7, offset: 0x2F6B7, size: 0x8, addend: 0x0, symName: __ZNSt3__13mapINS_12basic_stringIcNS_11char_traitsIcEENS_9allocatorIcEEEEN2cv7Scalar_IdEENS_4lessIS6_EENS4_INS_4pairIKS6_S9_EEEEED2B8ue170006Ev, symObjAddr: 0x7008, symBinAddr: 0x10000B700, symSize: 0x2C }
  - { offsetInCU: 0x2F6E1, offset: 0x2F6E1, size: 0x8, addend: 0x0, symName: __ZN2cv3VecIhLi3EEC2ERKS1_, symObjAddr: 0x7034, symBinAddr: 0x10000B72C, symSize: 0x34 }
  - { offsetInCU: 0x2F71C, offset: 0x2F71C, size: 0x8, addend: 0x0, symName: __ZN2cv4MatxIhLi3ELi1EEC2EPKh, symObjAddr: 0x7068, symBinAddr: 0x10000B760, symSize: 0x74 }
  - { offsetInCU: 0x2F773, offset: 0x2F773, size: 0x8, addend: 0x0, symName: __ZNSt3__13mapINS_12basic_stringIcNS_11char_traitsIcEENS_9allocatorIcEEEEN2cv7Scalar_IdEENS_4lessIS6_EENS4_INS_4pairIKS6_S9_EEEEEC2B8ue170006Ev, symObjAddr: 0x70DC, symBinAddr: 0x10000B7D4, symSize: 0x40 }
  - { offsetInCU: 0x2F79D, offset: 0x2F79D, size: 0x8, addend: 0x0, symName: __ZNSt3__115__tree_iteratorINS_12__value_typeINS_12basic_stringIcNS_11char_traitsIcEENS_9allocatorIcEEEEN2cv7Scalar_IdEEEEPNS_11__tree_nodeISB_PvEElEppB8ue170006Ev, symObjAddr: 0x7180, symBinAddr: 0x10000B878, symSize: 0x38 }
  - { offsetInCU: 0x2F7C3, offset: 0x2F7C3, size: 0x8, addend: 0x0, symName: __ZNKSt3__115__tree_iteratorINS_12__value_typeINS_12basic_stringIcNS_11char_traitsIcEENS_9allocatorIcEEEEN2cv7Scalar_IdEEEEPNS_11__tree_nodeISB_PvEElEptB8ue170006Ev, symObjAddr: 0x71B8, symBinAddr: 0x10000B8B0, symSize: 0x2C }
  - { offsetInCU: 0x2F7E9, offset: 0x2F7E9, size: 0x8, addend: 0x0, symName: __ZNSt3__114pointer_traitsIPNS_12__value_typeINS_12basic_stringIcNS_11char_traitsIcEENS_9allocatorIcEEEEN2cv7Scalar_IdEEEEE10pointer_toB8ue170006ERSB_, symObjAddr: 0x71E4, symBinAddr: 0x10000B8DC, symSize: 0x14 }
  - { offsetInCU: 0x2F80C, offset: 0x2F80C, size: 0x8, addend: 0x0, symName: __ZNKSt3__115__tree_iteratorINS_12__value_typeINS_12basic_stringIcNS_11char_traitsIcEENS_9allocatorIcEEEEN2cv7Scalar_IdEEEEPNS_11__tree_nodeISB_PvEElE8__get_npB8ue170006Ev, symObjAddr: 0x71F8, symBinAddr: 0x10000B8F0, symSize: 0x18 }
  - { offsetInCU: 0x2F846, offset: 0x2F846, size: 0x8, addend: 0x0, symName: __ZNSt3__16__treeINS_12__value_typeINS_12basic_stringIcNS_11char_traitsIcEENS_9allocatorIcEEEEN2cv7Scalar_IdEEEENS_19__map_value_compareIS7_SB_NS_4lessIS7_EELb1EEENS5_ISB_EEE25__emplace_unique_key_argsIS7_JRKNS_21piecewise_construct_tENS_5tupleIJRKS7_EEENSM_IJEEEEEENS_4pairINS_15__tree_iteratorISB_PNS_11__tree_nodeISB_PvEElEEbEERKT_DpOT0_, symObjAddr: 0x7210, symBinAddr: 0x10000B908, symSize: 0x100 }
  - { offsetInCU: 0x2F91C, offset: 0x2F91C, size: 0x8, addend: 0x0, symName: __ZNSt3__16__treeINS_12__value_typeINS_12basic_stringIcNS_11char_traitsIcEENS_9allocatorIcEEEEN2cv7Scalar_IdEEEENS_19__map_value_compareIS7_SB_NS_4lessIS7_EELb1EEENS5_ISB_EEE16__construct_nodeIJRKNS_21piecewise_construct_tENS_5tupleIJRKS7_EEENSM_IJEEEEEENS_10unique_ptrINS_11__tree_nodeISB_PvEENS_22__tree_node_destructorINS5_ISU_EEEEEEDpOT_, symObjAddr: 0x7340, symBinAddr: 0x10000BA38, symSize: 0x120 }
  - { offsetInCU: 0x2F9A5, offset: 0x2F9A5, size: 0x8, addend: 0x0, symName: __ZNSt3__116allocator_traitsINS_9allocatorINS_11__tree_nodeINS_12__value_typeINS_12basic_stringIcNS_11char_traitsIcEENS1_IcEEEEN2cv7Scalar_IdEEEEPvEEEEE9constructB8ue170006INS_4pairIKS8_SB_EEJRKNS_21piecewise_construct_tENS_5tupleIJRSJ_EEENSO_IJEEEEvEEvRSF_PT_DpOT0_, symObjAddr: 0x7460, symBinAddr: 0x10000BB58, symSize: 0x44 }
  - { offsetInCU: 0x2FA24, offset: 0x2FA24, size: 0x8, addend: 0x0, symName: __ZNSt3__19allocatorINS_11__tree_nodeINS_12__value_typeINS_12basic_stringIcNS_11char_traitsIcEENS0_IcEEEEN2cv7Scalar_IdEEEEPvEEE9constructB8ue170006INS_4pairIKS7_SA_EEJRKNS_21piecewise_construct_tENS_5tupleIJRSH_EEENSM_IJEEEEEEvPT_DpOT0_, symObjAddr: 0x74A4, symBinAddr: 0x10000BB9C, symSize: 0x44 }
  - { offsetInCU: 0x2FAA0, offset: 0x2FAA0, size: 0x8, addend: 0x0, symName: __ZNSt3__14pairIKNS_12basic_stringIcNS_11char_traitsIcEENS_9allocatorIcEEEEN2cv7Scalar_IdEEEC1B8ue170006IJRS7_EJEEENS_21piecewise_construct_tENS_5tupleIJDpT_EEENSF_IJDpT0_EEE, symObjAddr: 0x74E8, symBinAddr: 0x10000BBE0, symSize: 0x3C }
  - { offsetInCU: 0x2FB07, offset: 0x2FB07, size: 0x8, addend: 0x0, symName: __ZNSt3__14pairIKNS_12basic_stringIcNS_11char_traitsIcEENS_9allocatorIcEEEEN2cv7Scalar_IdEEEC1B8ue170006IJRS7_EJEJLm0EEJEEENS_21piecewise_construct_tERNS_5tupleIJDpT_EEERNSF_IJDpT0_EEENS_15__tuple_indicesIJXspT1_EEEENSO_IJXspT2_EEEE, symObjAddr: 0x7524, symBinAddr: 0x10000BC1C, symSize: 0x3C }
  - { offsetInCU: 0x2FB97, offset: 0x2FB97, size: 0x8, addend: 0x0, symName: __ZNSt3__14pairIKNS_12basic_stringIcNS_11char_traitsIcEENS_9allocatorIcEEEEN2cv7Scalar_IdEEEC2B8ue170006IJRS7_EJEJLm0EEJEEENS_21piecewise_construct_tERNS_5tupleIJDpT_EEERNSF_IJDpT0_EEENS_15__tuple_indicesIJXspT1_EEEENSO_IJXspT2_EEEE, symObjAddr: 0x7560, symBinAddr: 0x10000BC58, symSize: 0x78 }
  - { offsetInCU: 0x2FC27, offset: 0x2FC27, size: 0x8, addend: 0x0, symName: __ZN2cv7Scalar_IdEC1Ev, symObjAddr: 0x75FC, symBinAddr: 0x10000BCF4, symSize: 0x2C }
  - { offsetInCU: 0x2FC53, offset: 0x2FC53, size: 0x8, addend: 0x0, symName: __ZNSt3__112__tuple_leafILm0ERKNS_12basic_stringIcNS_11char_traitsIcEENS_9allocatorIcEEEELb0EE3getB8ue170006Ev, symObjAddr: 0x7628, symBinAddr: 0x10000BD20, symSize: 0x18 }
  - { offsetInCU: 0x2FC79, offset: 0x2FC79, size: 0x8, addend: 0x0, symName: __ZN2cv7Scalar_IdEC2Ev, symObjAddr: 0x7640, symBinAddr: 0x10000BD38, symSize: 0x40 }
  - { offsetInCU: 0x2FCA5, offset: 0x2FCA5, size: 0x8, addend: 0x0, symName: __ZNSt3__15tupleIJRKNS_12basic_stringIcNS_11char_traitsIcEENS_9allocatorIcEEEEEEC1B8ue170006INS_4_AndELi0EEES8_, symObjAddr: 0x7680, symBinAddr: 0x10000BD78, symSize: 0x34 }
  - { offsetInCU: 0x2FCED, offset: 0x2FCED, size: 0x8, addend: 0x0, symName: __ZNSt3__15tupleIJRKNS_12basic_stringIcNS_11char_traitsIcEENS_9allocatorIcEEEEEEC2B8ue170006INS_4_AndELi0EEES8_, symObjAddr: 0x76B4, symBinAddr: 0x10000BDAC, symSize: 0x34 }
  - { offsetInCU: 0x2FD35, offset: 0x2FD35, size: 0x8, addend: 0x0, symName: __ZNSt3__112__tuple_implINS_15__tuple_indicesIJLm0EEEEJRKNS_12basic_stringIcNS_11char_traitsIcEENS_9allocatorIcEEEEEEC1B8ue170006IJLm0EEJSA_EJEJEJSA_EEENS1_IJXspT_EEEENS_13__tuple_typesIJDpT0_EEENS1_IJXspT1_EEEENSE_IJDpT2_EEEDpOT3_, symObjAddr: 0x76E8, symBinAddr: 0x10000BDE0, symSize: 0x34 }
  - { offsetInCU: 0x2FDCA, offset: 0x2FDCA, size: 0x8, addend: 0x0, symName: __ZNSt3__112__tuple_implINS_15__tuple_indicesIJLm0EEEEJRKNS_12basic_stringIcNS_11char_traitsIcEENS_9allocatorIcEEEEEEC2B8ue170006IJLm0EEJSA_EJEJEJSA_EEENS1_IJXspT_EEEENS_13__tuple_typesIJDpT0_EEENS1_IJXspT1_EEEENSE_IJDpT2_EEEDpOT3_, symObjAddr: 0x771C, symBinAddr: 0x10000BE14, symSize: 0x34 }
  - { offsetInCU: 0x2FE5F, offset: 0x2FE5F, size: 0x8, addend: 0x0, symName: __ZNSt3__112__tuple_leafILm0ERKNS_12basic_stringIcNS_11char_traitsIcEENS_9allocatorIcEEEELb0EEC2B8ue170006IS8_vEEOT_, symObjAddr: 0x7750, symBinAddr: 0x10000BE48, symSize: 0x20 }
  - { offsetInCU: 0x2FEA2, offset: 0x2FEA2, size: 0x8, addend: 0x0, symName: __ZNSt3__14pairIKNS_12basic_stringIcNS_11char_traitsIcEENS_9allocatorIcEEEEiEC2B8ue170006IRA6_KciLPv0EEEOT_OT0_, symObjAddr: 0x7770, symBinAddr: 0x10000BE68, symSize: 0x44 }
  - { offsetInCU: 0x2FF00, offset: 0x2FF00, size: 0x8, addend: 0x0, symName: __ZNSt3__14pairIKNS_12basic_stringIcNS_11char_traitsIcEENS_9allocatorIcEEEEiEC2B8ue170006IRA4_KciLPv0EEEOT_OT0_, symObjAddr: 0x77B4, symBinAddr: 0x10000BEAC, symSize: 0x44 }
  - { offsetInCU: 0x2FF5E, offset: 0x2FF5E, size: 0x8, addend: 0x0, symName: __ZNSt3__14pairIKNS_12basic_stringIcNS_11char_traitsIcEENS_9allocatorIcEEEEiEC2B8ue170006IRA7_KciLPv0EEEOT_OT0_, symObjAddr: 0x77F8, symBinAddr: 0x10000BEF0, symSize: 0x44 }
  - { offsetInCU: 0x2FFBC, offset: 0x2FFBC, size: 0x8, addend: 0x0, symName: __ZNSt3__14pairIKNS_12basic_stringIcNS_11char_traitsIcEENS_9allocatorIcEEEEiEC2B8ue170006IRA5_KciLPv0EEEOT_OT0_, symObjAddr: 0x783C, symBinAddr: 0x10000BF34, symSize: 0x44 }
  - { offsetInCU: 0x3001A, offset: 0x3001A, size: 0x8, addend: 0x0, symName: __ZNSt3__13mapINS_12basic_stringIcNS_11char_traitsIcEENS_9allocatorIcEEEEiNS_4lessIS6_EENS4_INS_4pairIKS6_iEEEEEC2B8ue170006ESt16initializer_listISB_ERKS8_, symObjAddr: 0x7880, symBinAddr: 0x10000BF78, symSize: 0xA4 }
  - { offsetInCU: 0x30062, offset: 0x30062, size: 0x8, addend: 0x0, symName: __ZNSt3__119__map_value_compareINS_12basic_stringIcNS_11char_traitsIcEENS_9allocatorIcEEEENS_12__value_typeIS6_iEENS_4lessIS6_EELb1EEC1B8ue170006ESA_, symObjAddr: 0x7924, symBinAddr: 0x10000C01C, symSize: 0x2C }
  - { offsetInCU: 0x3009B, offset: 0x3009B, size: 0x8, addend: 0x0, symName: __ZNSt3__16__treeINS_12__value_typeINS_12basic_stringIcNS_11char_traitsIcEENS_9allocatorIcEEEEiEENS_19__map_value_compareIS7_S8_NS_4lessIS7_EELb1EEENS5_IS8_EEEC1ERKSC_, symObjAddr: 0x7950, symBinAddr: 0x10000C048, symSize: 0x34 }
  - { offsetInCU: 0x300D6, offset: 0x300D6, size: 0x8, addend: 0x0, symName: __ZNSt3__13mapINS_12basic_stringIcNS_11char_traitsIcEENS_9allocatorIcEEEEiNS_4lessIS6_EENS4_INS_4pairIKS6_iEEEEE6insertB8ue170006IPKSB_EEvT_SH_, symObjAddr: 0x7984, symBinAddr: 0x10000C07C, symSize: 0x8C }
  - { offsetInCU: 0x30140, offset: 0x30140, size: 0x8, addend: 0x0, symName: __ZNKSt16initializer_listINSt3__14pairIKNS0_12basic_stringIcNS0_11char_traitsIcEENS0_9allocatorIcEEEEiEEE5beginB8ue170006Ev, symObjAddr: 0x7A10, symBinAddr: 0x10000C108, symSize: 0x18 }
  - { offsetInCU: 0x30166, offset: 0x30166, size: 0x8, addend: 0x0, symName: __ZNKSt16initializer_listINSt3__14pairIKNS0_12basic_stringIcNS0_11char_traitsIcEENS0_9allocatorIcEEEEiEEE3endB8ue170006Ev, symObjAddr: 0x7A28, symBinAddr: 0x10000C120, symSize: 0x20 }
  - { offsetInCU: 0x3018C, offset: 0x3018C, size: 0x8, addend: 0x0, symName: __ZNSt3__16__treeINS_12__value_typeINS_12basic_stringIcNS_11char_traitsIcEENS_9allocatorIcEEEEiEENS_19__map_value_compareIS7_S8_NS_4lessIS7_EELb1EEENS5_IS8_EEED1Ev, symObjAddr: 0x7A48, symBinAddr: 0x10000C140, symSize: 0x2C }
  - { offsetInCU: 0x301B8, offset: 0x301B8, size: 0x8, addend: 0x0, symName: __ZNSt3__119__map_value_compareINS_12basic_stringIcNS_11char_traitsIcEENS_9allocatorIcEEEENS_12__value_typeIS6_iEENS_4lessIS6_EELb1EEC2B8ue170006ESA_, symObjAddr: 0x7A74, symBinAddr: 0x10000C16C, symSize: 0x14 }
  - { offsetInCU: 0x301F1, offset: 0x301F1, size: 0x8, addend: 0x0, symName: __ZNSt3__16__treeINS_12__value_typeINS_12basic_stringIcNS_11char_traitsIcEENS_9allocatorIcEEEEiEENS_19__map_value_compareIS7_S8_NS_4lessIS7_EELb1EEENS5_IS8_EEEC2ERKSC_, symObjAddr: 0x7A88, symBinAddr: 0x10000C180, symSize: 0x7C }
  - { offsetInCU: 0x3022C, offset: 0x3022C, size: 0x8, addend: 0x0, symName: __ZNSt3__117__compressed_pairINS_15__tree_end_nodeIPNS_16__tree_node_baseIPvEEEENS_9allocatorINS_11__tree_nodeINS_12__value_typeINS_12basic_stringIcNS_11char_traitsIcEENS7_IcEEEEiEES3_EEEEEC1B8ue170006ILb1EvEEv, symObjAddr: 0x7B04, symBinAddr: 0x10000C1FC, symSize: 0x2C }
  - { offsetInCU: 0x30261, offset: 0x30261, size: 0x8, addend: 0x0, symName: __ZNSt3__117__compressed_pairImNS_19__map_value_compareINS_12basic_stringIcNS_11char_traitsIcEENS_9allocatorIcEEEENS_12__value_typeIS7_iEENS_4lessIS7_EELb1EEEEC1B8ue170006IiRKSC_EEOT_OT0_, symObjAddr: 0x7B30, symBinAddr: 0x10000C228, symSize: 0x3C }
  - { offsetInCU: 0x302B9, offset: 0x302B9, size: 0x8, addend: 0x0, symName: __ZNSt3__16__treeINS_12__value_typeINS_12basic_stringIcNS_11char_traitsIcEENS_9allocatorIcEEEEiEENS_19__map_value_compareIS7_S8_NS_4lessIS7_EELb1EEENS5_IS8_EEE10__end_nodeB8ue170006Ev, symObjAddr: 0x7B6C, symBinAddr: 0x10000C264, symSize: 0x2C }
  - { offsetInCU: 0x302DF, offset: 0x302DF, size: 0x8, addend: 0x0, symName: __ZNSt3__16__treeINS_12__value_typeINS_12basic_stringIcNS_11char_traitsIcEENS_9allocatorIcEEEEiEENS_19__map_value_compareIS7_S8_NS_4lessIS7_EELb1EEENS5_IS8_EEE12__begin_nodeB8ue170006Ev, symObjAddr: 0x7B98, symBinAddr: 0x10000C290, symSize: 0x14 }
  - { offsetInCU: 0x30305, offset: 0x30305, size: 0x8, addend: 0x0, symName: __ZNSt3__117__compressed_pairINS_15__tree_end_nodeIPNS_16__tree_node_baseIPvEEEENS_9allocatorINS_11__tree_nodeINS_12__value_typeINS_12basic_stringIcNS_11char_traitsIcEENS7_IcEEEEiEES3_EEEEEC2B8ue170006ILb1EvEEv, symObjAddr: 0x7BAC, symBinAddr: 0x10000C2A4, symSize: 0x34 }
  - { offsetInCU: 0x3033A, offset: 0x3033A, size: 0x8, addend: 0x0, symName: __ZNSt3__122__compressed_pair_elemINS_9allocatorINS_11__tree_nodeINS_12__value_typeINS_12basic_stringIcNS_11char_traitsIcEENS1_IcEEEEiEEPvEEEELi1ELb1EEC2B8ue170006ENS_16__value_init_tagE, symObjAddr: 0x7BE0, symBinAddr: 0x10000C2D8, symSize: 0x2C }
  - { offsetInCU: 0x3036E, offset: 0x3036E, size: 0x8, addend: 0x0, symName: __ZNSt3__19allocatorINS_11__tree_nodeINS_12__value_typeINS_12basic_stringIcNS_11char_traitsIcEENS0_IcEEEEiEEPvEEEC2B8ue170006Ev, symObjAddr: 0x7C0C, symBinAddr: 0x10000C304, symSize: 0x2C }
  - { offsetInCU: 0x30398, offset: 0x30398, size: 0x8, addend: 0x0, symName: __ZNSt3__116__non_trivial_ifILb1ENS_9allocatorINS_11__tree_nodeINS_12__value_typeINS_12basic_stringIcNS_11char_traitsIcEENS1_IcEEEEiEEPvEEEEEC2B8ue170006Ev, symObjAddr: 0x7C38, symBinAddr: 0x10000C330, symSize: 0x14 }
  - { offsetInCU: 0x303C2, offset: 0x303C2, size: 0x8, addend: 0x0, symName: __ZNSt3__117__compressed_pairImNS_19__map_value_compareINS_12basic_stringIcNS_11char_traitsIcEENS_9allocatorIcEEEENS_12__value_typeIS7_iEENS_4lessIS7_EELb1EEEEC2B8ue170006IiRKSC_EEOT_OT0_, symObjAddr: 0x7C4C, symBinAddr: 0x10000C344, symSize: 0x44 }
  - { offsetInCU: 0x3041A, offset: 0x3041A, size: 0x8, addend: 0x0, symName: __ZNSt3__122__compressed_pair_elemINS_19__map_value_compareINS_12basic_stringIcNS_11char_traitsIcEENS_9allocatorIcEEEENS_12__value_typeIS7_iEENS_4lessIS7_EELb1EEELi1ELb1EEC2B8ue170006IRKSC_vEEOT_, symObjAddr: 0x7C90, symBinAddr: 0x10000C388, symSize: 0x18 }
  - { offsetInCU: 0x3045C, offset: 0x3045C, size: 0x8, addend: 0x0, symName: __ZNSt3__117__compressed_pairINS_15__tree_end_nodeIPNS_16__tree_node_baseIPvEEEENS_9allocatorINS_11__tree_nodeINS_12__value_typeINS_12basic_stringIcNS_11char_traitsIcEENS7_IcEEEEiEES3_EEEEE5firstB8ue170006Ev, symObjAddr: 0x7CA8, symBinAddr: 0x10000C3A0, symSize: 0x24 }
  - { offsetInCU: 0x30482, offset: 0x30482, size: 0x8, addend: 0x0, symName: __ZNKSt3__13mapINS_12basic_stringIcNS_11char_traitsIcEENS_9allocatorIcEEEEiNS_4lessIS6_EENS4_INS_4pairIKS6_iEEEEE4cendB8ue170006Ev, symObjAddr: 0x7CCC, symBinAddr: 0x10000C3C4, symSize: 0x2C }
  - { offsetInCU: 0x304A8, offset: 0x304A8, size: 0x8, addend: 0x0, symName: __ZNSt3__13mapINS_12basic_stringIcNS_11char_traitsIcEENS_9allocatorIcEEEEiNS_4lessIS6_EENS4_INS_4pairIKS6_iEEEEE6insertB8ue170006ENS_20__map_const_iteratorINS_21__tree_const_iteratorINS_12__value_typeIS6_iEEPNS_11__tree_nodeISH_PvEElEEEERKSB_, symObjAddr: 0x7CF8, symBinAddr: 0x10000C3F0, symSize: 0x50 }
  - { offsetInCU: 0x304EC, offset: 0x304EC, size: 0x8, addend: 0x0, symName: __ZNSt3__120__map_const_iteratorINS_21__tree_const_iteratorINS_12__value_typeINS_12basic_stringIcNS_11char_traitsIcEENS_9allocatorIcEEEEiEEPNS_11__tree_nodeIS9_PvEElEEEC1B8ue170006ESE_, symObjAddr: 0x7D48, symBinAddr: 0x10000C440, symSize: 0x34 }
  - { offsetInCU: 0x30525, offset: 0x30525, size: 0x8, addend: 0x0, symName: __ZNKSt3__13mapINS_12basic_stringIcNS_11char_traitsIcEENS_9allocatorIcEEEEiNS_4lessIS6_EENS4_INS_4pairIKS6_iEEEEE3endB8ue170006Ev, symObjAddr: 0x7D7C, symBinAddr: 0x10000C474, symSize: 0x38 }
  - { offsetInCU: 0x3054B, offset: 0x3054B, size: 0x8, addend: 0x0, symName: __ZNKSt3__16__treeINS_12__value_typeINS_12basic_stringIcNS_11char_traitsIcEENS_9allocatorIcEEEEiEENS_19__map_value_compareIS7_S8_NS_4lessIS7_EELb1EEENS5_IS8_EEE3endB8ue170006Ev, symObjAddr: 0x7DB4, symBinAddr: 0x10000C4AC, symSize: 0x34 }
  - { offsetInCU: 0x30571, offset: 0x30571, size: 0x8, addend: 0x0, symName: __ZNKSt3__16__treeINS_12__value_typeINS_12basic_stringIcNS_11char_traitsIcEENS_9allocatorIcEEEEiEENS_19__map_value_compareIS7_S8_NS_4lessIS7_EELb1EEENS5_IS8_EEE10__end_nodeB8ue170006Ev, symObjAddr: 0x7DE8, symBinAddr: 0x10000C4E0, symSize: 0x2C }
  - { offsetInCU: 0x30597, offset: 0x30597, size: 0x8, addend: 0x0, symName: __ZNSt3__121__tree_const_iteratorINS_12__value_typeINS_12basic_stringIcNS_11char_traitsIcEENS_9allocatorIcEEEEiEEPNS_11__tree_nodeIS8_PvEElEC1B8ue170006EPNS_15__tree_end_nodeIPNS_16__tree_node_baseISA_EEEE, symObjAddr: 0x7E14, symBinAddr: 0x10000C50C, symSize: 0x34 }
  - { offsetInCU: 0x305D0, offset: 0x305D0, size: 0x8, addend: 0x0, symName: __ZNKSt3__117__compressed_pairINS_15__tree_end_nodeIPNS_16__tree_node_baseIPvEEEENS_9allocatorINS_11__tree_nodeINS_12__value_typeINS_12basic_stringIcNS_11char_traitsIcEENS7_IcEEEEiEES3_EEEEE5firstB8ue170006Ev, symObjAddr: 0x7E48, symBinAddr: 0x10000C540, symSize: 0x24 }
  - { offsetInCU: 0x305F6, offset: 0x305F6, size: 0x8, addend: 0x0, symName: __ZNSt3__121__tree_const_iteratorINS_12__value_typeINS_12basic_stringIcNS_11char_traitsIcEENS_9allocatorIcEEEEiEEPNS_11__tree_nodeIS8_PvEElEC2B8ue170006EPNS_15__tree_end_nodeIPNS_16__tree_node_baseISA_EEEE, symObjAddr: 0x7E6C, symBinAddr: 0x10000C564, symSize: 0x20 }
  - { offsetInCU: 0x3062F, offset: 0x3062F, size: 0x8, addend: 0x0, symName: __ZNSt3__16__treeINS_12__value_typeINS_12basic_stringIcNS_11char_traitsIcEENS_9allocatorIcEEEEiEENS_19__map_value_compareIS7_S8_NS_4lessIS7_EELb1EEENS5_IS8_EEE15__insert_uniqueB8ue170006ENS_21__tree_const_iteratorIS8_PNS_11__tree_nodeIS8_PvEElEERKNS_4pairIKS7_iEE, symObjAddr: 0x7E8C, symBinAddr: 0x10000C584, symSize: 0x64 }
  - { offsetInCU: 0x30673, offset: 0x30673, size: 0x8, addend: 0x0, symName: __ZNSt3__114__map_iteratorINS_15__tree_iteratorINS_12__value_typeINS_12basic_stringIcNS_11char_traitsIcEENS_9allocatorIcEEEEiEEPNS_11__tree_nodeIS9_PvEElEEEC1B8ue170006ESE_, symObjAddr: 0x7EF0, symBinAddr: 0x10000C5E8, symSize: 0x34 }
  - { offsetInCU: 0x306AC, offset: 0x306AC, size: 0x8, addend: 0x0, symName: __ZNSt3__16__treeINS_12__value_typeINS_12basic_stringIcNS_11char_traitsIcEENS_9allocatorIcEEEEiEENS_19__map_value_compareIS7_S8_NS_4lessIS7_EELb1EEENS5_IS8_EEE30__emplace_hint_unique_key_argsIS7_JRKNS_4pairIKS7_iEEEEENSG_INS_15__tree_iteratorIS8_PNS_11__tree_nodeIS8_PvEElEEbEENS_21__tree_const_iteratorIS8_SP_lEERKT_DpOT0_, symObjAddr: 0x7F24, symBinAddr: 0x10000C61C, symSize: 0x104 }
  - { offsetInCU: 0x30778, offset: 0x30778, size: 0x8, addend: 0x0, symName: __ZNSt3__122__tree_key_value_typesINS_12__value_typeINS_12basic_stringIcNS_11char_traitsIcEENS_9allocatorIcEEEEiEEE9__get_keyB8ue170006IKNS_4pairIKS7_iEEEENS_9enable_ifIXsr17__is_same_uncvrefIT_SD_EE5valueERSC_E4typeERSG_, symObjAddr: 0x8028, symBinAddr: 0x10000C720, symSize: 0x14 }
  - { offsetInCU: 0x307A5, offset: 0x307A5, size: 0x8, addend: 0x0, symName: __ZNSt3__16__treeINS_12__value_typeINS_12basic_stringIcNS_11char_traitsIcEENS_9allocatorIcEEEEiEENS_19__map_value_compareIS7_S8_NS_4lessIS7_EELb1EEENS5_IS8_EEE12__find_equalIS7_EERPNS_16__tree_node_baseIPvEENS_21__tree_const_iteratorIS8_PNS_11__tree_nodeIS8_SH_EElEERPNS_15__tree_end_nodeISJ_EESK_RKT_, symObjAddr: 0x803C, symBinAddr: 0x10000C734, symSize: 0x304 }
  - { offsetInCU: 0x3084E, offset: 0x3084E, size: 0x8, addend: 0x0, symName: __ZNSt3__16__treeINS_12__value_typeINS_12basic_stringIcNS_11char_traitsIcEENS_9allocatorIcEEEEiEENS_19__map_value_compareIS7_S8_NS_4lessIS7_EELb1EEENS5_IS8_EEE16__construct_nodeIJRKNS_4pairIKS7_iEEEEENS_10unique_ptrINS_11__tree_nodeIS8_PvEENS_22__tree_node_destructorINS5_ISO_EEEEEEDpOT_, symObjAddr: 0x8340, symBinAddr: 0x10000CA38, symSize: 0x110 }
  - { offsetInCU: 0x308AF, offset: 0x308AF, size: 0x8, addend: 0x0, symName: __ZNSt3__16__treeINS_12__value_typeINS_12basic_stringIcNS_11char_traitsIcEENS_9allocatorIcEEEEiEENS_19__map_value_compareIS7_S8_NS_4lessIS7_EELb1EEENS5_IS8_EEE16__insert_node_atEPNS_15__tree_end_nodeIPNS_16__tree_node_baseIPvEEEERSJ_SJ_, symObjAddr: 0x8450, symBinAddr: 0x10000CB48, symSize: 0xCC }
  - { offsetInCU: 0x30904, offset: 0x30904, size: 0x8, addend: 0x0, symName: __ZNKSt3__110unique_ptrINS_11__tree_nodeINS_12__value_typeINS_12basic_stringIcNS_11char_traitsIcEENS_9allocatorIcEEEEiEEPvEENS_22__tree_node_destructorINS6_ISB_EEEEE3getB8ue170006Ev, symObjAddr: 0x851C, symBinAddr: 0x10000CC14, symSize: 0x28 }
  - { offsetInCU: 0x3092A, offset: 0x3092A, size: 0x8, addend: 0x0, symName: __ZNSt3__110unique_ptrINS_11__tree_nodeINS_12__value_typeINS_12basic_stringIcNS_11char_traitsIcEENS_9allocatorIcEEEEiEEPvEENS_22__tree_node_destructorINS6_ISB_EEEEE7releaseB8ue170006Ev, symObjAddr: 0x8544, symBinAddr: 0x10000CC3C, symSize: 0x44 }
  - { offsetInCU: 0x3095F, offset: 0x3095F, size: 0x8, addend: 0x0, symName: __ZNSt3__110unique_ptrINS_11__tree_nodeINS_12__value_typeINS_12basic_stringIcNS_11char_traitsIcEENS_9allocatorIcEEEEiEEPvEENS_22__tree_node_destructorINS6_ISB_EEEEED1B8ue170006Ev, symObjAddr: 0x8588, symBinAddr: 0x10000CC80, symSize: 0x2C }
  - { offsetInCU: 0x30989, offset: 0x30989, size: 0x8, addend: 0x0, symName: __ZNSt3__115__tree_iteratorINS_12__value_typeINS_12basic_stringIcNS_11char_traitsIcEENS_9allocatorIcEEEEiEEPNS_11__tree_nodeIS8_PvEElEC1B8ue170006ESC_, symObjAddr: 0x85B4, symBinAddr: 0x10000CCAC, symSize: 0x34 }
  - { offsetInCU: 0x309C7, offset: 0x309C7, size: 0x8, addend: 0x0, symName: __ZNSt3__14pairINS_15__tree_iteratorINS_12__value_typeINS_12basic_stringIcNS_11char_traitsIcEENS_9allocatorIcEEEEiEEPNS_11__tree_nodeIS9_PvEElEEbEC1B8ue170006ISE_RbLSB_0EEEOT_OT0_, symObjAddr: 0x85E8, symBinAddr: 0x10000CCE0, symSize: 0x3C }
  - { offsetInCU: 0x30A25, offset: 0x30A25, size: 0x8, addend: 0x0, symName: __ZNSt3__16__treeINS_12__value_typeINS_12basic_stringIcNS_11char_traitsIcEENS_9allocatorIcEEEEiEENS_19__map_value_compareIS7_S8_NS_4lessIS7_EELb1EEENS5_IS8_EEE3endB8ue170006Ev, symObjAddr: 0x8654, symBinAddr: 0x10000CD4C, symSize: 0x34 }
  - { offsetInCU: 0x30A4B, offset: 0x30A4B, size: 0x8, addend: 0x0, symName: __ZNSt3__121__tree_const_iteratorINS_12__value_typeINS_12basic_stringIcNS_11char_traitsIcEENS_9allocatorIcEEEEiEEPNS_11__tree_nodeIS8_PvEElEC1B8ue170006ENS_15__tree_iteratorIS8_SC_lEE, symObjAddr: 0x8688, symBinAddr: 0x10000CD80, symSize: 0x34 }
  - { offsetInCU: 0x30A84, offset: 0x30A84, size: 0x8, addend: 0x0, symName: __ZNSt3__16__treeINS_12__value_typeINS_12basic_stringIcNS_11char_traitsIcEENS_9allocatorIcEEEEiEENS_19__map_value_compareIS7_S8_NS_4lessIS7_EELb1EEENS5_IS8_EEE10value_compB8ue170006Ev, symObjAddr: 0x86BC, symBinAddr: 0x10000CDB4, symSize: 0x28 }
  - { offsetInCU: 0x30AAA, offset: 0x30AAA, size: 0x8, addend: 0x0, symName: __ZNKSt3__119__map_value_compareINS_12basic_stringIcNS_11char_traitsIcEENS_9allocatorIcEEEENS_12__value_typeIS6_iEENS_4lessIS6_EELb1EEclB8ue170006ERKS6_RKS8_, symObjAddr: 0x86E4, symBinAddr: 0x10000CDDC, symSize: 0x50 }
  - { offsetInCU: 0x30AEE, offset: 0x30AEE, size: 0x8, addend: 0x0, symName: __ZNKSt3__121__tree_const_iteratorINS_12__value_typeINS_12basic_stringIcNS_11char_traitsIcEENS_9allocatorIcEEEEiEEPNS_11__tree_nodeIS8_PvEElEdeB8ue170006Ev, symObjAddr: 0x8734, symBinAddr: 0x10000CE2C, symSize: 0x28 }
  - { offsetInCU: 0x30B14, offset: 0x30B14, size: 0x8, addend: 0x0, symName: __ZNSt3__16__treeINS_12__value_typeINS_12basic_stringIcNS_11char_traitsIcEENS_9allocatorIcEEEEiEENS_19__map_value_compareIS7_S8_NS_4lessIS7_EELb1EEENS5_IS8_EEE5beginB8ue170006Ev, symObjAddr: 0x875C, symBinAddr: 0x10000CE54, symSize: 0x34 }
  - { offsetInCU: 0x30B3A, offset: 0x30B3A, size: 0x8, addend: 0x0, symName: __ZNKSt3__119__map_value_compareINS_12basic_stringIcNS_11char_traitsIcEENS_9allocatorIcEEEENS_12__value_typeIS6_iEENS_4lessIS6_EELb1EEclB8ue170006ERKS8_RKS6_, symObjAddr: 0x8790, symBinAddr: 0x10000CE88, symSize: 0x48 }
  - { offsetInCU: 0x30B7E, offset: 0x30B7E, size: 0x8, addend: 0x0, symName: __ZNSt3__121__tree_const_iteratorINS_12__value_typeINS_12basic_stringIcNS_11char_traitsIcEENS_9allocatorIcEEEEiEEPNS_11__tree_nodeIS8_PvEElEmmB8ue170006Ev, symObjAddr: 0x87D8, symBinAddr: 0x10000CED0, symSize: 0x38 }
  - { offsetInCU: 0x30BA4, offset: 0x30BA4, size: 0x8, addend: 0x0, symName: __ZNSt3__16__treeINS_12__value_typeINS_12basic_stringIcNS_11char_traitsIcEENS_9allocatorIcEEEEiEENS_19__map_value_compareIS7_S8_NS_4lessIS7_EELb1EEENS5_IS8_EEE12__find_equalIS7_EERPNS_16__tree_node_baseIPvEERPNS_15__tree_end_nodeISJ_EERKT_, symObjAddr: 0x8810, symBinAddr: 0x10000CF08, symSize: 0x184 }
  - { offsetInCU: 0x30C11, offset: 0x30C11, size: 0x8, addend: 0x0, symName: __ZNKSt3__121__tree_const_iteratorINS_12__value_typeINS_12basic_stringIcNS_11char_traitsIcEENS_9allocatorIcEEEEiEEPNS_11__tree_nodeIS8_PvEElE8__get_npB8ue170006Ev, symObjAddr: 0x89D0, symBinAddr: 0x10000D0C8, symSize: 0x18 }
  - { offsetInCU: 0x30C37, offset: 0x30C37, size: 0x8, addend: 0x0, symName: __ZNSt3__115__tree_iteratorINS_12__value_typeINS_12basic_stringIcNS_11char_traitsIcEENS_9allocatorIcEEEEiEEPNS_11__tree_nodeIS8_PvEElEC1B8ue170006EPNS_15__tree_end_nodeIPNS_16__tree_node_baseISA_EEEE, symObjAddr: 0x89E8, symBinAddr: 0x10000D0E0, symSize: 0x34 }
  - { offsetInCU: 0x30C70, offset: 0x30C70, size: 0x8, addend: 0x0, symName: __ZNSt3__115__tree_iteratorINS_12__value_typeINS_12basic_stringIcNS_11char_traitsIcEENS_9allocatorIcEEEEiEEPNS_11__tree_nodeIS8_PvEElEC2B8ue170006EPNS_15__tree_end_nodeIPNS_16__tree_node_baseISA_EEEE, symObjAddr: 0x8A1C, symBinAddr: 0x10000D114, symSize: 0x20 }
  - { offsetInCU: 0x30CA9, offset: 0x30CA9, size: 0x8, addend: 0x0, symName: __ZNSt3__121__tree_const_iteratorINS_12__value_typeINS_12basic_stringIcNS_11char_traitsIcEENS_9allocatorIcEEEEiEEPNS_11__tree_nodeIS8_PvEElEC2B8ue170006ENS_15__tree_iteratorIS8_SC_lEE, symObjAddr: 0x8A3C, symBinAddr: 0x10000D134, symSize: 0x20 }
  - { offsetInCU: 0x30CE2, offset: 0x30CE2, size: 0x8, addend: 0x0, symName: __ZNSt3__117__compressed_pairImNS_19__map_value_compareINS_12basic_stringIcNS_11char_traitsIcEENS_9allocatorIcEEEENS_12__value_typeIS7_iEENS_4lessIS7_EELb1EEEE6secondB8ue170006Ev, symObjAddr: 0x8A5C, symBinAddr: 0x10000D154, symSize: 0x24 }
  - { offsetInCU: 0x30D08, offset: 0x30D08, size: 0x8, addend: 0x0, symName: __ZNSt3__122__compressed_pair_elemINS_19__map_value_compareINS_12basic_stringIcNS_11char_traitsIcEENS_9allocatorIcEEEENS_12__value_typeIS7_iEENS_4lessIS7_EELb1EEELi1ELb1EE5__getB8ue170006Ev, symObjAddr: 0x8A80, symBinAddr: 0x10000D178, symSize: 0x14 }
  - { offsetInCU: 0x30D2E, offset: 0x30D2E, size: 0x8, addend: 0x0, symName: __ZNKSt3__112__value_typeINS_12basic_stringIcNS_11char_traitsIcEENS_9allocatorIcEEEEiE11__get_valueB8ue170006Ev, symObjAddr: 0x8A94, symBinAddr: 0x10000D18C, symSize: 0x14 }
  - { offsetInCU: 0x30D54, offset: 0x30D54, size: 0x8, addend: 0x0, symName: __ZNKSt3__16__treeINS_12__value_typeINS_12basic_stringIcNS_11char_traitsIcEENS_9allocatorIcEEEEiEENS_19__map_value_compareIS7_S8_NS_4lessIS7_EELb1EEENS5_IS8_EEE6__rootB8ue170006Ev, symObjAddr: 0x8AA8, symBinAddr: 0x10000D1A0, symSize: 0x28 }
  - { offsetInCU: 0x30D7A, offset: 0x30D7A, size: 0x8, addend: 0x0, symName: __ZNKSt3__16__treeINS_12__value_typeINS_12basic_stringIcNS_11char_traitsIcEENS_9allocatorIcEEEEiEENS_19__map_value_compareIS7_S8_NS_4lessIS7_EELb1EEENS5_IS8_EEE10__root_ptrB8ue170006Ev, symObjAddr: 0x8AD0, symBinAddr: 0x10000D1C8, symSize: 0x24 }
  - { offsetInCU: 0x30DA0, offset: 0x30DA0, size: 0x8, addend: 0x0, symName: __ZNSt3__121__tree_const_iteratorINS_12__value_typeINS_12basic_stringIcNS_11char_traitsIcEENS_9allocatorIcEEEEiEEPNS_11__tree_nodeIS8_PvEElEppB8ue170006Ev, symObjAddr: 0x8BD0, symBinAddr: 0x10000D2C8, symSize: 0x38 }
  - { offsetInCU: 0x30DC6, offset: 0x30DC6, size: 0x8, addend: 0x0, symName: __ZNSt3__16__treeINS_12__value_typeINS_12basic_stringIcNS_11char_traitsIcEENS_9allocatorIcEEEEiEENS_19__map_value_compareIS7_S8_NS_4lessIS7_EELb1EEENS5_IS8_EEE12__node_allocB8ue170006Ev, symObjAddr: 0x8C08, symBinAddr: 0x10000D300, symSize: 0x28 }
  - { offsetInCU: 0x30DEC, offset: 0x30DEC, size: 0x8, addend: 0x0, symName: __ZNSt3__116allocator_traitsINS_9allocatorINS_11__tree_nodeINS_12__value_typeINS_12basic_stringIcNS_11char_traitsIcEENS1_IcEEEEiEEPvEEEEE8allocateB8ue170006ERSC_m, symObjAddr: 0x8C30, symBinAddr: 0x10000D328, symSize: 0x2C }
  - { offsetInCU: 0x30E1F, offset: 0x30E1F, size: 0x8, addend: 0x0, symName: __ZNSt3__122__tree_node_destructorINS_9allocatorINS_11__tree_nodeINS_12__value_typeINS_12basic_stringIcNS_11char_traitsIcEENS1_IcEEEEiEEPvEEEEEC1B8ue170006ERSC_b, symObjAddr: 0x8C5C, symBinAddr: 0x10000D354, symSize: 0x48 }
  - { offsetInCU: 0x30E6C, offset: 0x30E6C, size: 0x8, addend: 0x0, symName: __ZNSt3__110unique_ptrINS_11__tree_nodeINS_12__value_typeINS_12basic_stringIcNS_11char_traitsIcEENS_9allocatorIcEEEEiEEPvEENS_22__tree_node_destructorINS6_ISB_EEEEEC1B8ue170006ILb1EvEEPSB_NS_16__dependent_typeINS_27__unique_ptr_deleter_sfinaeISE_EEXT_EE20__good_rval_ref_typeE, symObjAddr: 0x8CA4, symBinAddr: 0x10000D39C, symSize: 0x3C }
  - { offsetInCU: 0x30EBD, offset: 0x30EBD, size: 0x8, addend: 0x0, symName: __ZNSt3__116allocator_traitsINS_9allocatorINS_11__tree_nodeINS_12__value_typeINS_12basic_stringIcNS_11char_traitsIcEENS1_IcEEEEiEEPvEEEEE9constructB8ue170006INS_4pairIKS8_iEEJRKSH_EvEEvRSC_PT_DpOT0_, symObjAddr: 0x8CE0, symBinAddr: 0x10000D3D8, symSize: 0x34 }
  - { offsetInCU: 0x30F14, offset: 0x30F14, size: 0x8, addend: 0x0, symName: __ZNSt3__122__tree_key_value_typesINS_12__value_typeINS_12basic_stringIcNS_11char_traitsIcEENS_9allocatorIcEEEEiEEE9__get_ptrB8ue170006ERS8_, symObjAddr: 0x8D14, symBinAddr: 0x10000D40C, symSize: 0x24 }
  - { offsetInCU: 0x30F38, offset: 0x30F38, size: 0x8, addend: 0x0, symName: __ZNKSt3__110unique_ptrINS_11__tree_nodeINS_12__value_typeINS_12basic_stringIcNS_11char_traitsIcEENS_9allocatorIcEEEEiEEPvEENS_22__tree_node_destructorINS6_ISB_EEEEEptB8ue170006Ev, symObjAddr: 0x8D38, symBinAddr: 0x10000D430, symSize: 0x28 }
  - { offsetInCU: 0x30F5E, offset: 0x30F5E, size: 0x8, addend: 0x0, symName: __ZNSt3__110unique_ptrINS_11__tree_nodeINS_12__value_typeINS_12basic_stringIcNS_11char_traitsIcEENS_9allocatorIcEEEEiEEPvEENS_22__tree_node_destructorINS6_ISB_EEEEE11get_deleterB8ue170006Ev, symObjAddr: 0x8D60, symBinAddr: 0x10000D458, symSize: 0x24 }
  - { offsetInCU: 0x30F84, offset: 0x30F84, size: 0x8, addend: 0x0, symName: __ZNSt3__117__compressed_pairINS_15__tree_end_nodeIPNS_16__tree_node_baseIPvEEEENS_9allocatorINS_11__tree_nodeINS_12__value_typeINS_12basic_stringIcNS_11char_traitsIcEENS7_IcEEEEiEES3_EEEEE6secondB8ue170006Ev, symObjAddr: 0x8D84, symBinAddr: 0x10000D47C, symSize: 0x24 }
  - { offsetInCU: 0x30FAA, offset: 0x30FAA, size: 0x8, addend: 0x0, symName: __ZNSt3__122__compressed_pair_elemINS_9allocatorINS_11__tree_nodeINS_12__value_typeINS_12basic_stringIcNS_11char_traitsIcEENS1_IcEEEEiEEPvEEEELi1ELb1EE5__getB8ue170006Ev, symObjAddr: 0x8DA8, symBinAddr: 0x10000D4A0, symSize: 0x14 }
  - { offsetInCU: 0x30FD0, offset: 0x30FD0, size: 0x8, addend: 0x0, symName: __ZNSt3__19allocatorINS_11__tree_nodeINS_12__value_typeINS_12basic_stringIcNS_11char_traitsIcEENS0_IcEEEEiEEPvEEE8allocateB8ue170006Em, symObjAddr: 0x8DBC, symBinAddr: 0x10000D4B4, symSize: 0x58 }
  - { offsetInCU: 0x3100E, offset: 0x3100E, size: 0x8, addend: 0x0, symName: __ZNSt3__116allocator_traitsINS_9allocatorINS_11__tree_nodeINS_12__value_typeINS_12basic_stringIcNS_11char_traitsIcEENS1_IcEEEEiEEPvEEEEE8max_sizeB8ue170006ISC_vEEmRKSC_, symObjAddr: 0x8E14, symBinAddr: 0x10000D50C, symSize: 0x24 }
  - { offsetInCU: 0x3103C, offset: 0x3103C, size: 0x8, addend: 0x0, symName: __ZNKSt3__19allocatorINS_11__tree_nodeINS_12__value_typeINS_12basic_stringIcNS_11char_traitsIcEENS0_IcEEEEiEEPvEEE8max_sizeB8ue170006Ev, symObjAddr: 0x8E38, symBinAddr: 0x10000D530, symSize: 0x14 }
  - { offsetInCU: 0x31062, offset: 0x31062, size: 0x8, addend: 0x0, symName: __ZNSt3__122__tree_node_destructorINS_9allocatorINS_11__tree_nodeINS_12__value_typeINS_12basic_stringIcNS_11char_traitsIcEENS1_IcEEEEiEEPvEEEEEC2B8ue170006ERSC_b, symObjAddr: 0x8E4C, symBinAddr: 0x10000D544, symSize: 0x38 }
  - { offsetInCU: 0x310AA, offset: 0x310AA, size: 0x8, addend: 0x0, symName: __ZNSt3__110unique_ptrINS_11__tree_nodeINS_12__value_typeINS_12basic_stringIcNS_11char_traitsIcEENS_9allocatorIcEEEEiEEPvEENS_22__tree_node_destructorINS6_ISB_EEEEEC2B8ue170006ILb1EvEEPSB_NS_16__dependent_typeINS_27__unique_ptr_deleter_sfinaeISE_EEXT_EE20__good_rval_ref_typeE, symObjAddr: 0x8E84, symBinAddr: 0x10000D57C, symSize: 0x48 }
  - { offsetInCU: 0x310FB, offset: 0x310FB, size: 0x8, addend: 0x0, symName: __ZNSt3__117__compressed_pairIPNS_11__tree_nodeINS_12__value_typeINS_12basic_stringIcNS_11char_traitsIcEENS_9allocatorIcEEEEiEEPvEENS_22__tree_node_destructorINS6_ISB_EEEEEC1B8ue170006IRSC_SF_EEOT_OT0_, symObjAddr: 0x8ECC, symBinAddr: 0x10000D5C4, symSize: 0x3C }
  - { offsetInCU: 0x31153, offset: 0x31153, size: 0x8, addend: 0x0, symName: __ZNSt3__117__compressed_pairIPNS_11__tree_nodeINS_12__value_typeINS_12basic_stringIcNS_11char_traitsIcEENS_9allocatorIcEEEEiEEPvEENS_22__tree_node_destructorINS6_ISB_EEEEEC2B8ue170006IRSC_SF_EEOT_OT0_, symObjAddr: 0x8F08, symBinAddr: 0x10000D600, symSize: 0x48 }
  - { offsetInCU: 0x311AB, offset: 0x311AB, size: 0x8, addend: 0x0, symName: __ZNSt3__122__compressed_pair_elemIPNS_11__tree_nodeINS_12__value_typeINS_12basic_stringIcNS_11char_traitsIcEENS_9allocatorIcEEEEiEEPvEELi0ELb0EEC2B8ue170006IRSC_vEEOT_, symObjAddr: 0x8F50, symBinAddr: 0x10000D648, symSize: 0x24 }
  - { offsetInCU: 0x311ED, offset: 0x311ED, size: 0x8, addend: 0x0, symName: __ZNSt3__122__compressed_pair_elemINS_22__tree_node_destructorINS_9allocatorINS_11__tree_nodeINS_12__value_typeINS_12basic_stringIcNS_11char_traitsIcEENS2_IcEEEEiEEPvEEEEEELi1ELb0EEC2B8ue170006ISE_vEEOT_, symObjAddr: 0x8F74, symBinAddr: 0x10000D66C, symSize: 0x24 }
  - { offsetInCU: 0x3122F, offset: 0x3122F, size: 0x8, addend: 0x0, symName: __ZNSt3__19allocatorINS_11__tree_nodeINS_12__value_typeINS_12basic_stringIcNS_11char_traitsIcEENS0_IcEEEEiEEPvEEE9constructB8ue170006INS_4pairIKS7_iEEJRKSF_EEEvPT_DpOT0_, symObjAddr: 0x8F98, symBinAddr: 0x10000D690, symSize: 0x30 }
  - { offsetInCU: 0x31285, offset: 0x31285, size: 0x8, addend: 0x0, symName: __ZNSt3__14pairIKNS_12basic_stringIcNS_11char_traitsIcEENS_9allocatorIcEEEEiEC1B8ue170006ERKS8_, symObjAddr: 0x8FC8, symBinAddr: 0x10000D6C0, symSize: 0x34 }
  - { offsetInCU: 0x312B9, offset: 0x312B9, size: 0x8, addend: 0x0, symName: __ZNSt3__14pairIKNS_12basic_stringIcNS_11char_traitsIcEENS_9allocatorIcEEEEiEC2B8ue170006ERKS8_, symObjAddr: 0x8FFC, symBinAddr: 0x10000D6F4, symSize: 0x40 }
  - { offsetInCU: 0x312ED, offset: 0x312ED, size: 0x8, addend: 0x0, symName: __ZNSt3__112__value_typeINS_12basic_stringIcNS_11char_traitsIcEENS_9allocatorIcEEEEiE11__get_valueB8ue170006Ev, symObjAddr: 0x903C, symBinAddr: 0x10000D734, symSize: 0x14 }
  - { offsetInCU: 0x31313, offset: 0x31313, size: 0x8, addend: 0x0, symName: __ZNKSt3__117__compressed_pairIPNS_11__tree_nodeINS_12__value_typeINS_12basic_stringIcNS_11char_traitsIcEENS_9allocatorIcEEEEiEEPvEENS_22__tree_node_destructorINS6_ISB_EEEEE5firstB8ue170006Ev, symObjAddr: 0x9050, symBinAddr: 0x10000D748, symSize: 0x24 }
  - { offsetInCU: 0x31339, offset: 0x31339, size: 0x8, addend: 0x0, symName: __ZNKSt3__122__compressed_pair_elemIPNS_11__tree_nodeINS_12__value_typeINS_12basic_stringIcNS_11char_traitsIcEENS_9allocatorIcEEEEiEEPvEELi0ELb0EE5__getB8ue170006Ev, symObjAddr: 0x9074, symBinAddr: 0x10000D76C, symSize: 0x14 }
  - { offsetInCU: 0x3135F, offset: 0x3135F, size: 0x8, addend: 0x0, symName: __ZNSt3__117__compressed_pairIPNS_11__tree_nodeINS_12__value_typeINS_12basic_stringIcNS_11char_traitsIcEENS_9allocatorIcEEEEiEEPvEENS_22__tree_node_destructorINS6_ISB_EEEEE6secondB8ue170006Ev, symObjAddr: 0x9088, symBinAddr: 0x10000D780, symSize: 0x28 }
  - { offsetInCU: 0x31385, offset: 0x31385, size: 0x8, addend: 0x0, symName: __ZNSt3__122__compressed_pair_elemINS_22__tree_node_destructorINS_9allocatorINS_11__tree_nodeINS_12__value_typeINS_12basic_stringIcNS_11char_traitsIcEENS2_IcEEEEiEEPvEEEEEELi1ELb0EE5__getB8ue170006Ev, symObjAddr: 0x90B0, symBinAddr: 0x10000D7A8, symSize: 0x14 }
  - { offsetInCU: 0x313AB, offset: 0x313AB, size: 0x8, addend: 0x0, symName: __ZNSt3__16__treeINS_12__value_typeINS_12basic_stringIcNS_11char_traitsIcEENS_9allocatorIcEEEEiEENS_19__map_value_compareIS7_S8_NS_4lessIS7_EELb1EEENS5_IS8_EEE4sizeB8ue170006Ev, symObjAddr: 0x90C4, symBinAddr: 0x10000D7BC, symSize: 0x28 }
  - { offsetInCU: 0x313D1, offset: 0x313D1, size: 0x8, addend: 0x0, symName: __ZNSt3__117__compressed_pairImNS_19__map_value_compareINS_12basic_stringIcNS_11char_traitsIcEENS_9allocatorIcEEEENS_12__value_typeIS7_iEENS_4lessIS7_EELb1EEEE5firstB8ue170006Ev, symObjAddr: 0x90EC, symBinAddr: 0x10000D7E4, symSize: 0x24 }
  - { offsetInCU: 0x313F7, offset: 0x313F7, size: 0x8, addend: 0x0, symName: __ZNSt3__117__compressed_pairIPNS_11__tree_nodeINS_12__value_typeINS_12basic_stringIcNS_11char_traitsIcEENS_9allocatorIcEEEEiEEPvEENS_22__tree_node_destructorINS6_ISB_EEEEE5firstB8ue170006Ev, symObjAddr: 0x9110, symBinAddr: 0x10000D808, symSize: 0x24 }
  - { offsetInCU: 0x3141D, offset: 0x3141D, size: 0x8, addend: 0x0, symName: __ZNSt3__122__compressed_pair_elemIPNS_11__tree_nodeINS_12__value_typeINS_12basic_stringIcNS_11char_traitsIcEENS_9allocatorIcEEEEiEEPvEELi0ELb0EE5__getB8ue170006Ev, symObjAddr: 0x9134, symBinAddr: 0x10000D82C, symSize: 0x14 }
  - { offsetInCU: 0x31443, offset: 0x31443, size: 0x8, addend: 0x0, symName: __ZNSt3__110unique_ptrINS_11__tree_nodeINS_12__value_typeINS_12basic_stringIcNS_11char_traitsIcEENS_9allocatorIcEEEEiEEPvEENS_22__tree_node_destructorINS6_ISB_EEEEED2B8ue170006Ev, symObjAddr: 0x9148, symBinAddr: 0x10000D840, symSize: 0x30 }
  - { offsetInCU: 0x3146D, offset: 0x3146D, size: 0x8, addend: 0x0, symName: __ZNSt3__110unique_ptrINS_11__tree_nodeINS_12__value_typeINS_12basic_stringIcNS_11char_traitsIcEENS_9allocatorIcEEEEiEEPvEENS_22__tree_node_destructorINS6_ISB_EEEEE5resetB8ue170006EPSB_, symObjAddr: 0x9178, symBinAddr: 0x10000D870, symSize: 0x78 }
  - { offsetInCU: 0x314B1, offset: 0x314B1, size: 0x8, addend: 0x0, symName: __ZNSt3__122__tree_node_destructorINS_9allocatorINS_11__tree_nodeINS_12__value_typeINS_12basic_stringIcNS_11char_traitsIcEENS1_IcEEEEiEEPvEEEEEclB8ue170006EPSB_, symObjAddr: 0x91F0, symBinAddr: 0x10000D8E8, symSize: 0x98 }
  - { offsetInCU: 0x314E6, offset: 0x314E6, size: 0x8, addend: 0x0, symName: __ZNSt3__116allocator_traitsINS_9allocatorINS_11__tree_nodeINS_12__value_typeINS_12basic_stringIcNS_11char_traitsIcEENS1_IcEEEEiEEPvEEEEE7destroyB8ue170006INS_4pairIKS8_iEEvvEEvRSC_PT_, symObjAddr: 0x9288, symBinAddr: 0x10000D980, symSize: 0x28 }
  - { offsetInCU: 0x31521, offset: 0x31521, size: 0x8, addend: 0x0, symName: __ZNSt3__116allocator_traitsINS_9allocatorINS_11__tree_nodeINS_12__value_typeINS_12basic_stringIcNS_11char_traitsIcEENS1_IcEEEEiEEPvEEEEE10deallocateB8ue170006ERSC_PSB_m, symObjAddr: 0x92B0, symBinAddr: 0x10000D9A8, symSize: 0x34 }
  - { offsetInCU: 0x31563, offset: 0x31563, size: 0x8, addend: 0x0, symName: __ZNSt3__19allocatorINS_11__tree_nodeINS_12__value_typeINS_12basic_stringIcNS_11char_traitsIcEENS0_IcEEEEiEEPvEEE10deallocateB8ue170006EPSA_m, symObjAddr: 0x92E4, symBinAddr: 0x10000D9DC, symSize: 0x40 }
  - { offsetInCU: 0x315A5, offset: 0x315A5, size: 0x8, addend: 0x0, symName: __ZNSt3__115__tree_iteratorINS_12__value_typeINS_12basic_stringIcNS_11char_traitsIcEENS_9allocatorIcEEEEiEEPNS_11__tree_nodeIS8_PvEElEC2B8ue170006ESC_, symObjAddr: 0x9324, symBinAddr: 0x10000DA1C, symSize: 0x20 }
  - { offsetInCU: 0x315DE, offset: 0x315DE, size: 0x8, addend: 0x0, symName: __ZNSt3__14pairINS_15__tree_iteratorINS_12__value_typeINS_12basic_stringIcNS_11char_traitsIcEENS_9allocatorIcEEEEiEEPNS_11__tree_nodeIS9_PvEElEEbEC2B8ue170006ISE_RbLSB_0EEEOT_OT0_, symObjAddr: 0x9344, symBinAddr: 0x10000DA3C, symSize: 0x38 }
  - { offsetInCU: 0x3163C, offset: 0x3163C, size: 0x8, addend: 0x0, symName: __ZNSt3__114__map_iteratorINS_15__tree_iteratorINS_12__value_typeINS_12basic_stringIcNS_11char_traitsIcEENS_9allocatorIcEEEEiEEPNS_11__tree_nodeIS9_PvEElEEEC2B8ue170006ESE_, symObjAddr: 0x937C, symBinAddr: 0x10000DA74, symSize: 0x20 }
  - { offsetInCU: 0x31675, offset: 0x31675, size: 0x8, addend: 0x0, symName: __ZNSt3__120__map_const_iteratorINS_21__tree_const_iteratorINS_12__value_typeINS_12basic_stringIcNS_11char_traitsIcEENS_9allocatorIcEEEEiEEPNS_11__tree_nodeIS9_PvEElEEEC2B8ue170006ESE_, symObjAddr: 0x939C, symBinAddr: 0x10000DA94, symSize: 0x20 }
  - { offsetInCU: 0x316AE, offset: 0x316AE, size: 0x8, addend: 0x0, symName: __ZNSt3__16__treeINS_12__value_typeINS_12basic_stringIcNS_11char_traitsIcEENS_9allocatorIcEEEEiEENS_19__map_value_compareIS7_S8_NS_4lessIS7_EELb1EEENS5_IS8_EEED2Ev, symObjAddr: 0x93BC, symBinAddr: 0x10000DAB4, symSize: 0x38 }
  - { offsetInCU: 0x316DA, offset: 0x316DA, size: 0x8, addend: 0x0, symName: __ZNSt3__16__treeINS_12__value_typeINS_12basic_stringIcNS_11char_traitsIcEENS_9allocatorIcEEEEiEENS_19__map_value_compareIS7_S8_NS_4lessIS7_EELb1EEENS5_IS8_EEE7destroyEPNS_11__tree_nodeIS8_PvEE, symObjAddr: 0x93F4, symBinAddr: 0x10000DAEC, symSize: 0xA8 }
  - { offsetInCU: 0x31726, offset: 0x31726, size: 0x8, addend: 0x0, symName: __ZNSt3__13mapINS_12basic_stringIcNS_11char_traitsIcEENS_9allocatorIcEEEEiNS_4lessIS6_EENS4_INS_4pairIKS6_iEEEEED2B8ue170006Ev, symObjAddr: 0x949C, symBinAddr: 0x10000DB94, symSize: 0x2C }
  - { offsetInCU: 0x31750, offset: 0x31750, size: 0x8, addend: 0x0, symName: __ZNSt3__14pairIKNS_12basic_stringIcNS_11char_traitsIcEENS_9allocatorIcEEEEdEC2B8ue170006IRA6_KciLPv0EEEOT_OT0_, symObjAddr: 0x94C8, symBinAddr: 0x10000DBC0, symSize: 0x50 }
  - { offsetInCU: 0x317AE, offset: 0x317AE, size: 0x8, addend: 0x0, symName: __ZNSt3__14pairIKNS_12basic_stringIcNS_11char_traitsIcEENS_9allocatorIcEEEEdEC2B8ue170006IRA4_KciLPv0EEEOT_OT0_, symObjAddr: 0x9518, symBinAddr: 0x10000DC10, symSize: 0x50 }
  - { offsetInCU: 0x3180C, offset: 0x3180C, size: 0x8, addend: 0x0, symName: __ZNSt3__14pairIKNS_12basic_stringIcNS_11char_traitsIcEENS_9allocatorIcEEEEdEC2B8ue170006IRA7_KciLPv0EEEOT_OT0_, symObjAddr: 0x9568, symBinAddr: 0x10000DC60, symSize: 0x50 }
  - { offsetInCU: 0x3186A, offset: 0x3186A, size: 0x8, addend: 0x0, symName: __ZNSt3__14pairIKNS_12basic_stringIcNS_11char_traitsIcEENS_9allocatorIcEEEEdEC2B8ue170006IRA5_KciLPv0EEEOT_OT0_, symObjAddr: 0x95B8, symBinAddr: 0x10000DCB0, symSize: 0x50 }
  - { offsetInCU: 0x318C8, offset: 0x318C8, size: 0x8, addend: 0x0, symName: __ZNSt3__14pairIKNS_12basic_stringIcNS_11char_traitsIcEENS_9allocatorIcEEEEdEC2B8ue170006IRA5_KcdLPv0EEEOT_OT0_, symObjAddr: 0x9608, symBinAddr: 0x10000DD00, symSize: 0x44 }
  - { offsetInCU: 0x31926, offset: 0x31926, size: 0x8, addend: 0x0, symName: __ZNSt3__14pairIKNS_12basic_stringIcNS_11char_traitsIcEENS_9allocatorIcEEEEdEC2B8ue170006IRA7_KcdLPv0EEEOT_OT0_, symObjAddr: 0x964C, symBinAddr: 0x10000DD44, symSize: 0x44 }
  - { offsetInCU: 0x31984, offset: 0x31984, size: 0x8, addend: 0x0, symName: __ZNSt3__13mapINS_12basic_stringIcNS_11char_traitsIcEENS_9allocatorIcEEEEdNS_4lessIS6_EENS4_INS_4pairIKS6_dEEEEEC2B8ue170006ESt16initializer_listISB_ERKS8_, symObjAddr: 0x9690, symBinAddr: 0x10000DD88, symSize: 0xA4 }
  - { offsetInCU: 0x319CC, offset: 0x319CC, size: 0x8, addend: 0x0, symName: __ZNSt3__119__map_value_compareINS_12basic_stringIcNS_11char_traitsIcEENS_9allocatorIcEEEENS_12__value_typeIS6_dEENS_4lessIS6_EELb1EEC1B8ue170006ESA_, symObjAddr: 0x9734, symBinAddr: 0x10000DE2C, symSize: 0x2C }
  - { offsetInCU: 0x31A05, offset: 0x31A05, size: 0x8, addend: 0x0, symName: __ZNSt3__16__treeINS_12__value_typeINS_12basic_stringIcNS_11char_traitsIcEENS_9allocatorIcEEEEdEENS_19__map_value_compareIS7_S8_NS_4lessIS7_EELb1EEENS5_IS8_EEEC1ERKSC_, symObjAddr: 0x9760, symBinAddr: 0x10000DE58, symSize: 0x34 }
  - { offsetInCU: 0x31A40, offset: 0x31A40, size: 0x8, addend: 0x0, symName: __ZNSt3__13mapINS_12basic_stringIcNS_11char_traitsIcEENS_9allocatorIcEEEEdNS_4lessIS6_EENS4_INS_4pairIKS6_dEEEEE6insertB8ue170006IPKSB_EEvT_SH_, symObjAddr: 0x9794, symBinAddr: 0x10000DE8C, symSize: 0x8C }
  - { offsetInCU: 0x31AAA, offset: 0x31AAA, size: 0x8, addend: 0x0, symName: __ZNKSt16initializer_listINSt3__14pairIKNS0_12basic_stringIcNS0_11char_traitsIcEENS0_9allocatorIcEEEEdEEE5beginB8ue170006Ev, symObjAddr: 0x9820, symBinAddr: 0x10000DF18, symSize: 0x18 }
  - { offsetInCU: 0x31AD0, offset: 0x31AD0, size: 0x8, addend: 0x0, symName: __ZNKSt16initializer_listINSt3__14pairIKNS0_12basic_stringIcNS0_11char_traitsIcEENS0_9allocatorIcEEEEdEEE3endB8ue170006Ev, symObjAddr: 0x9838, symBinAddr: 0x10000DF30, symSize: 0x20 }
  - { offsetInCU: 0x31AF6, offset: 0x31AF6, size: 0x8, addend: 0x0, symName: __ZNSt3__16__treeINS_12__value_typeINS_12basic_stringIcNS_11char_traitsIcEENS_9allocatorIcEEEEdEENS_19__map_value_compareIS7_S8_NS_4lessIS7_EELb1EEENS5_IS8_EEED1Ev, symObjAddr: 0x9858, symBinAddr: 0x10000DF50, symSize: 0x2C }
  - { offsetInCU: 0x31B22, offset: 0x31B22, size: 0x8, addend: 0x0, symName: __ZNSt3__119__map_value_compareINS_12basic_stringIcNS_11char_traitsIcEENS_9allocatorIcEEEENS_12__value_typeIS6_dEENS_4lessIS6_EELb1EEC2B8ue170006ESA_, symObjAddr: 0x9884, symBinAddr: 0x10000DF7C, symSize: 0x14 }
  - { offsetInCU: 0x31B5B, offset: 0x31B5B, size: 0x8, addend: 0x0, symName: __ZNSt3__16__treeINS_12__value_typeINS_12basic_stringIcNS_11char_traitsIcEENS_9allocatorIcEEEEdEENS_19__map_value_compareIS7_S8_NS_4lessIS7_EELb1EEENS5_IS8_EEEC2ERKSC_, symObjAddr: 0x9898, symBinAddr: 0x10000DF90, symSize: 0x7C }
  - { offsetInCU: 0x31B96, offset: 0x31B96, size: 0x8, addend: 0x0, symName: __ZNSt3__117__compressed_pairINS_15__tree_end_nodeIPNS_16__tree_node_baseIPvEEEENS_9allocatorINS_11__tree_nodeINS_12__value_typeINS_12basic_stringIcNS_11char_traitsIcEENS7_IcEEEEdEES3_EEEEEC1B8ue170006ILb1EvEEv, symObjAddr: 0x9914, symBinAddr: 0x10000E00C, symSize: 0x2C }
  - { offsetInCU: 0x31BCB, offset: 0x31BCB, size: 0x8, addend: 0x0, symName: __ZNSt3__117__compressed_pairImNS_19__map_value_compareINS_12basic_stringIcNS_11char_traitsIcEENS_9allocatorIcEEEENS_12__value_typeIS7_dEENS_4lessIS7_EELb1EEEEC1B8ue170006IiRKSC_EEOT_OT0_, symObjAddr: 0x9940, symBinAddr: 0x10000E038, symSize: 0x3C }
  - { offsetInCU: 0x31C23, offset: 0x31C23, size: 0x8, addend: 0x0, symName: __ZNSt3__16__treeINS_12__value_typeINS_12basic_stringIcNS_11char_traitsIcEENS_9allocatorIcEEEEdEENS_19__map_value_compareIS7_S8_NS_4lessIS7_EELb1EEENS5_IS8_EEE10__end_nodeB8ue170006Ev, symObjAddr: 0x997C, symBinAddr: 0x10000E074, symSize: 0x2C }
  - { offsetInCU: 0x31C49, offset: 0x31C49, size: 0x8, addend: 0x0, symName: __ZNSt3__16__treeINS_12__value_typeINS_12basic_stringIcNS_11char_traitsIcEENS_9allocatorIcEEEEdEENS_19__map_value_compareIS7_S8_NS_4lessIS7_EELb1EEENS5_IS8_EEE12__begin_nodeB8ue170006Ev, symObjAddr: 0x99A8, symBinAddr: 0x10000E0A0, symSize: 0x14 }
  - { offsetInCU: 0x31C6F, offset: 0x31C6F, size: 0x8, addend: 0x0, symName: __ZNSt3__117__compressed_pairINS_15__tree_end_nodeIPNS_16__tree_node_baseIPvEEEENS_9allocatorINS_11__tree_nodeINS_12__value_typeINS_12basic_stringIcNS_11char_traitsIcEENS7_IcEEEEdEES3_EEEEEC2B8ue170006ILb1EvEEv, symObjAddr: 0x99BC, symBinAddr: 0x10000E0B4, symSize: 0x34 }
  - { offsetInCU: 0x31CA4, offset: 0x31CA4, size: 0x8, addend: 0x0, symName: __ZNSt3__122__compressed_pair_elemINS_9allocatorINS_11__tree_nodeINS_12__value_typeINS_12basic_stringIcNS_11char_traitsIcEENS1_IcEEEEdEEPvEEEELi1ELb1EEC2B8ue170006ENS_16__value_init_tagE, symObjAddr: 0x99F0, symBinAddr: 0x10000E0E8, symSize: 0x2C }
  - { offsetInCU: 0x31CD8, offset: 0x31CD8, size: 0x8, addend: 0x0, symName: __ZNSt3__19allocatorINS_11__tree_nodeINS_12__value_typeINS_12basic_stringIcNS_11char_traitsIcEENS0_IcEEEEdEEPvEEEC2B8ue170006Ev, symObjAddr: 0x9A1C, symBinAddr: 0x10000E114, symSize: 0x2C }
  - { offsetInCU: 0x31D02, offset: 0x31D02, size: 0x8, addend: 0x0, symName: __ZNSt3__116__non_trivial_ifILb1ENS_9allocatorINS_11__tree_nodeINS_12__value_typeINS_12basic_stringIcNS_11char_traitsIcEENS1_IcEEEEdEEPvEEEEEC2B8ue170006Ev, symObjAddr: 0x9A48, symBinAddr: 0x10000E140, symSize: 0x14 }
  - { offsetInCU: 0x31D2C, offset: 0x31D2C, size: 0x8, addend: 0x0, symName: __ZNSt3__117__compressed_pairImNS_19__map_value_compareINS_12basic_stringIcNS_11char_traitsIcEENS_9allocatorIcEEEENS_12__value_typeIS7_dEENS_4lessIS7_EELb1EEEEC2B8ue170006IiRKSC_EEOT_OT0_, symObjAddr: 0x9A5C, symBinAddr: 0x10000E154, symSize: 0x44 }
  - { offsetInCU: 0x31D84, offset: 0x31D84, size: 0x8, addend: 0x0, symName: __ZNSt3__122__compressed_pair_elemINS_19__map_value_compareINS_12basic_stringIcNS_11char_traitsIcEENS_9allocatorIcEEEENS_12__value_typeIS7_dEENS_4lessIS7_EELb1EEELi1ELb1EEC2B8ue170006IRKSC_vEEOT_, symObjAddr: 0x9AA0, symBinAddr: 0x10000E198, symSize: 0x18 }
  - { offsetInCU: 0x31DC6, offset: 0x31DC6, size: 0x8, addend: 0x0, symName: __ZNSt3__117__compressed_pairINS_15__tree_end_nodeIPNS_16__tree_node_baseIPvEEEENS_9allocatorINS_11__tree_nodeINS_12__value_typeINS_12basic_stringIcNS_11char_traitsIcEENS7_IcEEEEdEES3_EEEEE5firstB8ue170006Ev, symObjAddr: 0x9AB8, symBinAddr: 0x10000E1B0, symSize: 0x24 }
  - { offsetInCU: 0x31DEC, offset: 0x31DEC, size: 0x8, addend: 0x0, symName: __ZNKSt3__13mapINS_12basic_stringIcNS_11char_traitsIcEENS_9allocatorIcEEEEdNS_4lessIS6_EENS4_INS_4pairIKS6_dEEEEE4cendB8ue170006Ev, symObjAddr: 0x9ADC, symBinAddr: 0x10000E1D4, symSize: 0x2C }
  - { offsetInCU: 0x31E12, offset: 0x31E12, size: 0x8, addend: 0x0, symName: __ZNSt3__13mapINS_12basic_stringIcNS_11char_traitsIcEENS_9allocatorIcEEEEdNS_4lessIS6_EENS4_INS_4pairIKS6_dEEEEE6insertB8ue170006ENS_20__map_const_iteratorINS_21__tree_const_iteratorINS_12__value_typeIS6_dEEPNS_11__tree_nodeISH_PvEElEEEERKSB_, symObjAddr: 0x9B08, symBinAddr: 0x10000E200, symSize: 0x50 }
  - { offsetInCU: 0x31E56, offset: 0x31E56, size: 0x8, addend: 0x0, symName: __ZNSt3__120__map_const_iteratorINS_21__tree_const_iteratorINS_12__value_typeINS_12basic_stringIcNS_11char_traitsIcEENS_9allocatorIcEEEEdEEPNS_11__tree_nodeIS9_PvEElEEEC1B8ue170006ESE_, symObjAddr: 0x9B58, symBinAddr: 0x10000E250, symSize: 0x34 }
  - { offsetInCU: 0x31E8F, offset: 0x31E8F, size: 0x8, addend: 0x0, symName: __ZNKSt3__13mapINS_12basic_stringIcNS_11char_traitsIcEENS_9allocatorIcEEEEdNS_4lessIS6_EENS4_INS_4pairIKS6_dEEEEE3endB8ue170006Ev, symObjAddr: 0x9B8C, symBinAddr: 0x10000E284, symSize: 0x38 }
  - { offsetInCU: 0x31EB5, offset: 0x31EB5, size: 0x8, addend: 0x0, symName: __ZNKSt3__16__treeINS_12__value_typeINS_12basic_stringIcNS_11char_traitsIcEENS_9allocatorIcEEEEdEENS_19__map_value_compareIS7_S8_NS_4lessIS7_EELb1EEENS5_IS8_EEE3endB8ue170006Ev, symObjAddr: 0x9BC4, symBinAddr: 0x10000E2BC, symSize: 0x34 }
  - { offsetInCU: 0x31EDB, offset: 0x31EDB, size: 0x8, addend: 0x0, symName: __ZNKSt3__16__treeINS_12__value_typeINS_12basic_stringIcNS_11char_traitsIcEENS_9allocatorIcEEEEdEENS_19__map_value_compareIS7_S8_NS_4lessIS7_EELb1EEENS5_IS8_EEE10__end_nodeB8ue170006Ev, symObjAddr: 0x9BF8, symBinAddr: 0x10000E2F0, symSize: 0x2C }
  - { offsetInCU: 0x31F01, offset: 0x31F01, size: 0x8, addend: 0x0, symName: __ZNSt3__121__tree_const_iteratorINS_12__value_typeINS_12basic_stringIcNS_11char_traitsIcEENS_9allocatorIcEEEEdEEPNS_11__tree_nodeIS8_PvEElEC1B8ue170006EPNS_15__tree_end_nodeIPNS_16__tree_node_baseISA_EEEE, symObjAddr: 0x9C24, symBinAddr: 0x10000E31C, symSize: 0x34 }
  - { offsetInCU: 0x31F3A, offset: 0x31F3A, size: 0x8, addend: 0x0, symName: __ZNKSt3__117__compressed_pairINS_15__tree_end_nodeIPNS_16__tree_node_baseIPvEEEENS_9allocatorINS_11__tree_nodeINS_12__value_typeINS_12basic_stringIcNS_11char_traitsIcEENS7_IcEEEEdEES3_EEEEE5firstB8ue170006Ev, symObjAddr: 0x9C58, symBinAddr: 0x10000E350, symSize: 0x24 }
  - { offsetInCU: 0x31F60, offset: 0x31F60, size: 0x8, addend: 0x0, symName: __ZNSt3__121__tree_const_iteratorINS_12__value_typeINS_12basic_stringIcNS_11char_traitsIcEENS_9allocatorIcEEEEdEEPNS_11__tree_nodeIS8_PvEElEC2B8ue170006EPNS_15__tree_end_nodeIPNS_16__tree_node_baseISA_EEEE, symObjAddr: 0x9C7C, symBinAddr: 0x10000E374, symSize: 0x20 }
  - { offsetInCU: 0x31F99, offset: 0x31F99, size: 0x8, addend: 0x0, symName: __ZNSt3__16__treeINS_12__value_typeINS_12basic_stringIcNS_11char_traitsIcEENS_9allocatorIcEEEEdEENS_19__map_value_compareIS7_S8_NS_4lessIS7_EELb1EEENS5_IS8_EEE15__insert_uniqueB8ue170006ENS_21__tree_const_iteratorIS8_PNS_11__tree_nodeIS8_PvEElEERKNS_4pairIKS7_dEE, symObjAddr: 0x9C9C, symBinAddr: 0x10000E394, symSize: 0x64 }
  - { offsetInCU: 0x31FDD, offset: 0x31FDD, size: 0x8, addend: 0x0, symName: __ZNSt3__114__map_iteratorINS_15__tree_iteratorINS_12__value_typeINS_12basic_stringIcNS_11char_traitsIcEENS_9allocatorIcEEEEdEEPNS_11__tree_nodeIS9_PvEElEEEC1B8ue170006ESE_, symObjAddr: 0x9D00, symBinAddr: 0x10000E3F8, symSize: 0x34 }
  - { offsetInCU: 0x32016, offset: 0x32016, size: 0x8, addend: 0x0, symName: __ZNSt3__16__treeINS_12__value_typeINS_12basic_stringIcNS_11char_traitsIcEENS_9allocatorIcEEEEdEENS_19__map_value_compareIS7_S8_NS_4lessIS7_EELb1EEENS5_IS8_EEE30__emplace_hint_unique_key_argsIS7_JRKNS_4pairIKS7_dEEEEENSG_INS_15__tree_iteratorIS8_PNS_11__tree_nodeIS8_PvEElEEbEENS_21__tree_const_iteratorIS8_SP_lEERKT_DpOT0_, symObjAddr: 0x9D34, symBinAddr: 0x10000E42C, symSize: 0x104 }
  - { offsetInCU: 0x320E2, offset: 0x320E2, size: 0x8, addend: 0x0, symName: __ZNSt3__122__tree_key_value_typesINS_12__value_typeINS_12basic_stringIcNS_11char_traitsIcEENS_9allocatorIcEEEEdEEE9__get_keyB8ue170006IKNS_4pairIKS7_dEEEENS_9enable_ifIXsr17__is_same_uncvrefIT_SD_EE5valueERSC_E4typeERSG_, symObjAddr: 0x9E38, symBinAddr: 0x10000E530, symSize: 0x14 }
  - { offsetInCU: 0x3210F, offset: 0x3210F, size: 0x8, addend: 0x0, symName: __ZNSt3__16__treeINS_12__value_typeINS_12basic_stringIcNS_11char_traitsIcEENS_9allocatorIcEEEEdEENS_19__map_value_compareIS7_S8_NS_4lessIS7_EELb1EEENS5_IS8_EEE12__find_equalIS7_EERPNS_16__tree_node_baseIPvEENS_21__tree_const_iteratorIS8_PNS_11__tree_nodeIS8_SH_EElEERPNS_15__tree_end_nodeISJ_EESK_RKT_, symObjAddr: 0x9E4C, symBinAddr: 0x10000E544, symSize: 0x304 }
  - { offsetInCU: 0x321B8, offset: 0x321B8, size: 0x8, addend: 0x0, symName: __ZNSt3__16__treeINS_12__value_typeINS_12basic_stringIcNS_11char_traitsIcEENS_9allocatorIcEEEEdEENS_19__map_value_compareIS7_S8_NS_4lessIS7_EELb1EEENS5_IS8_EEE16__construct_nodeIJRKNS_4pairIKS7_dEEEEENS_10unique_ptrINS_11__tree_nodeIS8_PvEENS_22__tree_node_destructorINS5_ISO_EEEEEEDpOT_, symObjAddr: 0xA150, symBinAddr: 0x10000E848, symSize: 0x110 }
  - { offsetInCU: 0x32219, offset: 0x32219, size: 0x8, addend: 0x0, symName: __ZNSt3__16__treeINS_12__value_typeINS_12basic_stringIcNS_11char_traitsIcEENS_9allocatorIcEEEEdEENS_19__map_value_compareIS7_S8_NS_4lessIS7_EELb1EEENS5_IS8_EEE16__insert_node_atEPNS_15__tree_end_nodeIPNS_16__tree_node_baseIPvEEEERSJ_SJ_, symObjAddr: 0xA260, symBinAddr: 0x10000E958, symSize: 0xCC }
  - { offsetInCU: 0x3226E, offset: 0x3226E, size: 0x8, addend: 0x0, symName: __ZNKSt3__110unique_ptrINS_11__tree_nodeINS_12__value_typeINS_12basic_stringIcNS_11char_traitsIcEENS_9allocatorIcEEEEdEEPvEENS_22__tree_node_destructorINS6_ISB_EEEEE3getB8ue170006Ev, symObjAddr: 0xA32C, symBinAddr: 0x10000EA24, symSize: 0x28 }
  - { offsetInCU: 0x32294, offset: 0x32294, size: 0x8, addend: 0x0, symName: __ZNSt3__110unique_ptrINS_11__tree_nodeINS_12__value_typeINS_12basic_stringIcNS_11char_traitsIcEENS_9allocatorIcEEEEdEEPvEENS_22__tree_node_destructorINS6_ISB_EEEEE7releaseB8ue170006Ev, symObjAddr: 0xA354, symBinAddr: 0x10000EA4C, symSize: 0x44 }
  - { offsetInCU: 0x322C9, offset: 0x322C9, size: 0x8, addend: 0x0, symName: __ZNSt3__110unique_ptrINS_11__tree_nodeINS_12__value_typeINS_12basic_stringIcNS_11char_traitsIcEENS_9allocatorIcEEEEdEEPvEENS_22__tree_node_destructorINS6_ISB_EEEEED1B8ue170006Ev, symObjAddr: 0xA398, symBinAddr: 0x10000EA90, symSize: 0x2C }
  - { offsetInCU: 0x322F3, offset: 0x322F3, size: 0x8, addend: 0x0, symName: __ZNSt3__115__tree_iteratorINS_12__value_typeINS_12basic_stringIcNS_11char_traitsIcEENS_9allocatorIcEEEEdEEPNS_11__tree_nodeIS8_PvEElEC1B8ue170006ESC_, symObjAddr: 0xA3C4, symBinAddr: 0x10000EABC, symSize: 0x34 }
  - { offsetInCU: 0x32331, offset: 0x32331, size: 0x8, addend: 0x0, symName: __ZNSt3__14pairINS_15__tree_iteratorINS_12__value_typeINS_12basic_stringIcNS_11char_traitsIcEENS_9allocatorIcEEEEdEEPNS_11__tree_nodeIS9_PvEElEEbEC1B8ue170006ISE_RbLSB_0EEEOT_OT0_, symObjAddr: 0xA3F8, symBinAddr: 0x10000EAF0, symSize: 0x3C }
  - { offsetInCU: 0x3238F, offset: 0x3238F, size: 0x8, addend: 0x0, symName: __ZNSt3__16__treeINS_12__value_typeINS_12basic_stringIcNS_11char_traitsIcEENS_9allocatorIcEEEEdEENS_19__map_value_compareIS7_S8_NS_4lessIS7_EELb1EEENS5_IS8_EEE3endB8ue170006Ev, symObjAddr: 0xA464, symBinAddr: 0x10000EB5C, symSize: 0x34 }
  - { offsetInCU: 0x323B5, offset: 0x323B5, size: 0x8, addend: 0x0, symName: __ZNSt3__121__tree_const_iteratorINS_12__value_typeINS_12basic_stringIcNS_11char_traitsIcEENS_9allocatorIcEEEEdEEPNS_11__tree_nodeIS8_PvEElEC1B8ue170006ENS_15__tree_iteratorIS8_SC_lEE, symObjAddr: 0xA498, symBinAddr: 0x10000EB90, symSize: 0x34 }
  - { offsetInCU: 0x323EE, offset: 0x323EE, size: 0x8, addend: 0x0, symName: __ZNSt3__16__treeINS_12__value_typeINS_12basic_stringIcNS_11char_traitsIcEENS_9allocatorIcEEEEdEENS_19__map_value_compareIS7_S8_NS_4lessIS7_EELb1EEENS5_IS8_EEE10value_compB8ue170006Ev, symObjAddr: 0xA4CC, symBinAddr: 0x10000EBC4, symSize: 0x28 }
  - { offsetInCU: 0x32414, offset: 0x32414, size: 0x8, addend: 0x0, symName: __ZNKSt3__119__map_value_compareINS_12basic_stringIcNS_11char_traitsIcEENS_9allocatorIcEEEENS_12__value_typeIS6_dEENS_4lessIS6_EELb1EEclB8ue170006ERKS6_RKS8_, symObjAddr: 0xA4F4, symBinAddr: 0x10000EBEC, symSize: 0x50 }
  - { offsetInCU: 0x32458, offset: 0x32458, size: 0x8, addend: 0x0, symName: __ZNKSt3__121__tree_const_iteratorINS_12__value_typeINS_12basic_stringIcNS_11char_traitsIcEENS_9allocatorIcEEEEdEEPNS_11__tree_nodeIS8_PvEElEdeB8ue170006Ev, symObjAddr: 0xA544, symBinAddr: 0x10000EC3C, symSize: 0x28 }
  - { offsetInCU: 0x3247E, offset: 0x3247E, size: 0x8, addend: 0x0, symName: __ZNSt3__16__treeINS_12__value_typeINS_12basic_stringIcNS_11char_traitsIcEENS_9allocatorIcEEEEdEENS_19__map_value_compareIS7_S8_NS_4lessIS7_EELb1EEENS5_IS8_EEE5beginB8ue170006Ev, symObjAddr: 0xA56C, symBinAddr: 0x10000EC64, symSize: 0x34 }
  - { offsetInCU: 0x324A4, offset: 0x324A4, size: 0x8, addend: 0x0, symName: __ZNKSt3__119__map_value_compareINS_12basic_stringIcNS_11char_traitsIcEENS_9allocatorIcEEEENS_12__value_typeIS6_dEENS_4lessIS6_EELb1EEclB8ue170006ERKS8_RKS6_, symObjAddr: 0xA5A0, symBinAddr: 0x10000EC98, symSize: 0x48 }
  - { offsetInCU: 0x324E8, offset: 0x324E8, size: 0x8, addend: 0x0, symName: __ZNSt3__121__tree_const_iteratorINS_12__value_typeINS_12basic_stringIcNS_11char_traitsIcEENS_9allocatorIcEEEEdEEPNS_11__tree_nodeIS8_PvEElEmmB8ue170006Ev, symObjAddr: 0xA5E8, symBinAddr: 0x10000ECE0, symSize: 0x38 }
  - { offsetInCU: 0x3250E, offset: 0x3250E, size: 0x8, addend: 0x0, symName: __ZNSt3__16__treeINS_12__value_typeINS_12basic_stringIcNS_11char_traitsIcEENS_9allocatorIcEEEEdEENS_19__map_value_compareIS7_S8_NS_4lessIS7_EELb1EEENS5_IS8_EEE12__find_equalIS7_EERPNS_16__tree_node_baseIPvEERPNS_15__tree_end_nodeISJ_EERKT_, symObjAddr: 0xA620, symBinAddr: 0x10000ED18, symSize: 0x184 }
  - { offsetInCU: 0x3257B, offset: 0x3257B, size: 0x8, addend: 0x0, symName: __ZNKSt3__121__tree_const_iteratorINS_12__value_typeINS_12basic_stringIcNS_11char_traitsIcEENS_9allocatorIcEEEEdEEPNS_11__tree_nodeIS8_PvEElE8__get_npB8ue170006Ev, symObjAddr: 0xA7E0, symBinAddr: 0x10000EED8, symSize: 0x18 }
  - { offsetInCU: 0x325A1, offset: 0x325A1, size: 0x8, addend: 0x0, symName: __ZNSt3__115__tree_iteratorINS_12__value_typeINS_12basic_stringIcNS_11char_traitsIcEENS_9allocatorIcEEEEdEEPNS_11__tree_nodeIS8_PvEElEC1B8ue170006EPNS_15__tree_end_nodeIPNS_16__tree_node_baseISA_EEEE, symObjAddr: 0xA7F8, symBinAddr: 0x10000EEF0, symSize: 0x34 }
  - { offsetInCU: 0x325DA, offset: 0x325DA, size: 0x8, addend: 0x0, symName: __ZNSt3__115__tree_iteratorINS_12__value_typeINS_12basic_stringIcNS_11char_traitsIcEENS_9allocatorIcEEEEdEEPNS_11__tree_nodeIS8_PvEElEC2B8ue170006EPNS_15__tree_end_nodeIPNS_16__tree_node_baseISA_EEEE, symObjAddr: 0xA82C, symBinAddr: 0x10000EF24, symSize: 0x20 }
  - { offsetInCU: 0x32613, offset: 0x32613, size: 0x8, addend: 0x0, symName: __ZNSt3__121__tree_const_iteratorINS_12__value_typeINS_12basic_stringIcNS_11char_traitsIcEENS_9allocatorIcEEEEdEEPNS_11__tree_nodeIS8_PvEElEC2B8ue170006ENS_15__tree_iteratorIS8_SC_lEE, symObjAddr: 0xA84C, symBinAddr: 0x10000EF44, symSize: 0x20 }
  - { offsetInCU: 0x3264C, offset: 0x3264C, size: 0x8, addend: 0x0, symName: __ZNSt3__117__compressed_pairImNS_19__map_value_compareINS_12basic_stringIcNS_11char_traitsIcEENS_9allocatorIcEEEENS_12__value_typeIS7_dEENS_4lessIS7_EELb1EEEE6secondB8ue170006Ev, symObjAddr: 0xA86C, symBinAddr: 0x10000EF64, symSize: 0x24 }
  - { offsetInCU: 0x32672, offset: 0x32672, size: 0x8, addend: 0x0, symName: __ZNSt3__122__compressed_pair_elemINS_19__map_value_compareINS_12basic_stringIcNS_11char_traitsIcEENS_9allocatorIcEEEENS_12__value_typeIS7_dEENS_4lessIS7_EELb1EEELi1ELb1EE5__getB8ue170006Ev, symObjAddr: 0xA890, symBinAddr: 0x10000EF88, symSize: 0x14 }
  - { offsetInCU: 0x32698, offset: 0x32698, size: 0x8, addend: 0x0, symName: __ZNKSt3__112__value_typeINS_12basic_stringIcNS_11char_traitsIcEENS_9allocatorIcEEEEdE11__get_valueB8ue170006Ev, symObjAddr: 0xA8A4, symBinAddr: 0x10000EF9C, symSize: 0x14 }
  - { offsetInCU: 0x326BE, offset: 0x326BE, size: 0x8, addend: 0x0, symName: __ZNKSt3__16__treeINS_12__value_typeINS_12basic_stringIcNS_11char_traitsIcEENS_9allocatorIcEEEEdEENS_19__map_value_compareIS7_S8_NS_4lessIS7_EELb1EEENS5_IS8_EEE6__rootB8ue170006Ev, symObjAddr: 0xA8B8, symBinAddr: 0x10000EFB0, symSize: 0x28 }
  - { offsetInCU: 0x326E4, offset: 0x326E4, size: 0x8, addend: 0x0, symName: __ZNKSt3__16__treeINS_12__value_typeINS_12basic_stringIcNS_11char_traitsIcEENS_9allocatorIcEEEEdEENS_19__map_value_compareIS7_S8_NS_4lessIS7_EELb1EEENS5_IS8_EEE10__root_ptrB8ue170006Ev, symObjAddr: 0xA8E0, symBinAddr: 0x10000EFD8, symSize: 0x24 }
  - { offsetInCU: 0x3270A, offset: 0x3270A, size: 0x8, addend: 0x0, symName: __ZNSt3__121__tree_const_iteratorINS_12__value_typeINS_12basic_stringIcNS_11char_traitsIcEENS_9allocatorIcEEEEdEEPNS_11__tree_nodeIS8_PvEElEppB8ue170006Ev, symObjAddr: 0xA9E0, symBinAddr: 0x10000F0D8, symSize: 0x38 }
  - { offsetInCU: 0x32730, offset: 0x32730, size: 0x8, addend: 0x0, symName: __ZNSt3__16__treeINS_12__value_typeINS_12basic_stringIcNS_11char_traitsIcEENS_9allocatorIcEEEEdEENS_19__map_value_compareIS7_S8_NS_4lessIS7_EELb1EEENS5_IS8_EEE12__node_allocB8ue170006Ev, symObjAddr: 0xAA18, symBinAddr: 0x10000F110, symSize: 0x28 }
  - { offsetInCU: 0x32756, offset: 0x32756, size: 0x8, addend: 0x0, symName: __ZNSt3__116allocator_traitsINS_9allocatorINS_11__tree_nodeINS_12__value_typeINS_12basic_stringIcNS_11char_traitsIcEENS1_IcEEEEdEEPvEEEEE8allocateB8ue170006ERSC_m, symObjAddr: 0xAA40, symBinAddr: 0x10000F138, symSize: 0x2C }
  - { offsetInCU: 0x32789, offset: 0x32789, size: 0x8, addend: 0x0, symName: __ZNSt3__122__tree_node_destructorINS_9allocatorINS_11__tree_nodeINS_12__value_typeINS_12basic_stringIcNS_11char_traitsIcEENS1_IcEEEEdEEPvEEEEEC1B8ue170006ERSC_b, symObjAddr: 0xAA6C, symBinAddr: 0x10000F164, symSize: 0x48 }
  - { offsetInCU: 0x327D6, offset: 0x327D6, size: 0x8, addend: 0x0, symName: __ZNSt3__110unique_ptrINS_11__tree_nodeINS_12__value_typeINS_12basic_stringIcNS_11char_traitsIcEENS_9allocatorIcEEEEdEEPvEENS_22__tree_node_destructorINS6_ISB_EEEEEC1B8ue170006ILb1EvEEPSB_NS_16__dependent_typeINS_27__unique_ptr_deleter_sfinaeISE_EEXT_EE20__good_rval_ref_typeE, symObjAddr: 0xAAB4, symBinAddr: 0x10000F1AC, symSize: 0x3C }
  - { offsetInCU: 0x32827, offset: 0x32827, size: 0x8, addend: 0x0, symName: __ZNSt3__116allocator_traitsINS_9allocatorINS_11__tree_nodeINS_12__value_typeINS_12basic_stringIcNS_11char_traitsIcEENS1_IcEEEEdEEPvEEEEE9constructB8ue170006INS_4pairIKS8_dEEJRKSH_EvEEvRSC_PT_DpOT0_, symObjAddr: 0xAAF0, symBinAddr: 0x10000F1E8, symSize: 0x34 }
  - { offsetInCU: 0x3287E, offset: 0x3287E, size: 0x8, addend: 0x0, symName: __ZNSt3__122__tree_key_value_typesINS_12__value_typeINS_12basic_stringIcNS_11char_traitsIcEENS_9allocatorIcEEEEdEEE9__get_ptrB8ue170006ERS8_, symObjAddr: 0xAB24, symBinAddr: 0x10000F21C, symSize: 0x24 }
  - { offsetInCU: 0x328A2, offset: 0x328A2, size: 0x8, addend: 0x0, symName: __ZNKSt3__110unique_ptrINS_11__tree_nodeINS_12__value_typeINS_12basic_stringIcNS_11char_traitsIcEENS_9allocatorIcEEEEdEEPvEENS_22__tree_node_destructorINS6_ISB_EEEEEptB8ue170006Ev, symObjAddr: 0xAB48, symBinAddr: 0x10000F240, symSize: 0x28 }
  - { offsetInCU: 0x328C8, offset: 0x328C8, size: 0x8, addend: 0x0, symName: __ZNSt3__110unique_ptrINS_11__tree_nodeINS_12__value_typeINS_12basic_stringIcNS_11char_traitsIcEENS_9allocatorIcEEEEdEEPvEENS_22__tree_node_destructorINS6_ISB_EEEEE11get_deleterB8ue170006Ev, symObjAddr: 0xAB70, symBinAddr: 0x10000F268, symSize: 0x24 }
  - { offsetInCU: 0x328EE, offset: 0x328EE, size: 0x8, addend: 0x0, symName: __ZNSt3__117__compressed_pairINS_15__tree_end_nodeIPNS_16__tree_node_baseIPvEEEENS_9allocatorINS_11__tree_nodeINS_12__value_typeINS_12basic_stringIcNS_11char_traitsIcEENS7_IcEEEEdEES3_EEEEE6secondB8ue170006Ev, symObjAddr: 0xAB94, symBinAddr: 0x10000F28C, symSize: 0x24 }
  - { offsetInCU: 0x32914, offset: 0x32914, size: 0x8, addend: 0x0, symName: __ZNSt3__122__compressed_pair_elemINS_9allocatorINS_11__tree_nodeINS_12__value_typeINS_12basic_stringIcNS_11char_traitsIcEENS1_IcEEEEdEEPvEEEELi1ELb1EE5__getB8ue170006Ev, symObjAddr: 0xABB8, symBinAddr: 0x10000F2B0, symSize: 0x14 }
  - { offsetInCU: 0x3293A, offset: 0x3293A, size: 0x8, addend: 0x0, symName: __ZNSt3__19allocatorINS_11__tree_nodeINS_12__value_typeINS_12basic_stringIcNS_11char_traitsIcEENS0_IcEEEEdEEPvEEE8allocateB8ue170006Em, symObjAddr: 0xABCC, symBinAddr: 0x10000F2C4, symSize: 0x58 }
  - { offsetInCU: 0x32978, offset: 0x32978, size: 0x8, addend: 0x0, symName: __ZNSt3__116allocator_traitsINS_9allocatorINS_11__tree_nodeINS_12__value_typeINS_12basic_stringIcNS_11char_traitsIcEENS1_IcEEEEdEEPvEEEEE8max_sizeB8ue170006ISC_vEEmRKSC_, symObjAddr: 0xAC24, symBinAddr: 0x10000F31C, symSize: 0x24 }
  - { offsetInCU: 0x329A6, offset: 0x329A6, size: 0x8, addend: 0x0, symName: __ZNKSt3__19allocatorINS_11__tree_nodeINS_12__value_typeINS_12basic_stringIcNS_11char_traitsIcEENS0_IcEEEEdEEPvEEE8max_sizeB8ue170006Ev, symObjAddr: 0xAC48, symBinAddr: 0x10000F340, symSize: 0x14 }
  - { offsetInCU: 0x329CC, offset: 0x329CC, size: 0x8, addend: 0x0, symName: __ZNSt3__122__tree_node_destructorINS_9allocatorINS_11__tree_nodeINS_12__value_typeINS_12basic_stringIcNS_11char_traitsIcEENS1_IcEEEEdEEPvEEEEEC2B8ue170006ERSC_b, symObjAddr: 0xAC5C, symBinAddr: 0x10000F354, symSize: 0x38 }
  - { offsetInCU: 0x32A14, offset: 0x32A14, size: 0x8, addend: 0x0, symName: __ZNSt3__110unique_ptrINS_11__tree_nodeINS_12__value_typeINS_12basic_stringIcNS_11char_traitsIcEENS_9allocatorIcEEEEdEEPvEENS_22__tree_node_destructorINS6_ISB_EEEEEC2B8ue170006ILb1EvEEPSB_NS_16__dependent_typeINS_27__unique_ptr_deleter_sfinaeISE_EEXT_EE20__good_rval_ref_typeE, symObjAddr: 0xAC94, symBinAddr: 0x10000F38C, symSize: 0x48 }
  - { offsetInCU: 0x32A65, offset: 0x32A65, size: 0x8, addend: 0x0, symName: __ZNSt3__117__compressed_pairIPNS_11__tree_nodeINS_12__value_typeINS_12basic_stringIcNS_11char_traitsIcEENS_9allocatorIcEEEEdEEPvEENS_22__tree_node_destructorINS6_ISB_EEEEEC1B8ue170006IRSC_SF_EEOT_OT0_, symObjAddr: 0xACDC, symBinAddr: 0x10000F3D4, symSize: 0x3C }
  - { offsetInCU: 0x32ABD, offset: 0x32ABD, size: 0x8, addend: 0x0, symName: __ZNSt3__117__compressed_pairIPNS_11__tree_nodeINS_12__value_typeINS_12basic_stringIcNS_11char_traitsIcEENS_9allocatorIcEEEEdEEPvEENS_22__tree_node_destructorINS6_ISB_EEEEEC2B8ue170006IRSC_SF_EEOT_OT0_, symObjAddr: 0xAD18, symBinAddr: 0x10000F410, symSize: 0x48 }
  - { offsetInCU: 0x32B15, offset: 0x32B15, size: 0x8, addend: 0x0, symName: __ZNSt3__122__compressed_pair_elemIPNS_11__tree_nodeINS_12__value_typeINS_12basic_stringIcNS_11char_traitsIcEENS_9allocatorIcEEEEdEEPvEELi0ELb0EEC2B8ue170006IRSC_vEEOT_, symObjAddr: 0xAD60, symBinAddr: 0x10000F458, symSize: 0x24 }
  - { offsetInCU: 0x32B57, offset: 0x32B57, size: 0x8, addend: 0x0, symName: __ZNSt3__122__compressed_pair_elemINS_22__tree_node_destructorINS_9allocatorINS_11__tree_nodeINS_12__value_typeINS_12basic_stringIcNS_11char_traitsIcEENS2_IcEEEEdEEPvEEEEEELi1ELb0EEC2B8ue170006ISE_vEEOT_, symObjAddr: 0xAD84, symBinAddr: 0x10000F47C, symSize: 0x24 }
  - { offsetInCU: 0x32B99, offset: 0x32B99, size: 0x8, addend: 0x0, symName: __ZNSt3__19allocatorINS_11__tree_nodeINS_12__value_typeINS_12basic_stringIcNS_11char_traitsIcEENS0_IcEEEEdEEPvEEE9constructB8ue170006INS_4pairIKS7_dEEJRKSF_EEEvPT_DpOT0_, symObjAddr: 0xADA8, symBinAddr: 0x10000F4A0, symSize: 0x30 }
  - { offsetInCU: 0x32BEF, offset: 0x32BEF, size: 0x8, addend: 0x0, symName: __ZNSt3__14pairIKNS_12basic_stringIcNS_11char_traitsIcEENS_9allocatorIcEEEEdEC1B8ue170006ERKS8_, symObjAddr: 0xADD8, symBinAddr: 0x10000F4D0, symSize: 0x34 }
  - { offsetInCU: 0x32C23, offset: 0x32C23, size: 0x8, addend: 0x0, symName: __ZNSt3__14pairIKNS_12basic_stringIcNS_11char_traitsIcEENS_9allocatorIcEEEEdEC2B8ue170006ERKS8_, symObjAddr: 0xAE0C, symBinAddr: 0x10000F504, symSize: 0x40 }
  - { offsetInCU: 0x32C57, offset: 0x32C57, size: 0x8, addend: 0x0, symName: __ZNSt3__112__value_typeINS_12basic_stringIcNS_11char_traitsIcEENS_9allocatorIcEEEEdE11__get_valueB8ue170006Ev, symObjAddr: 0xAE4C, symBinAddr: 0x10000F544, symSize: 0x14 }
  - { offsetInCU: 0x32C7D, offset: 0x32C7D, size: 0x8, addend: 0x0, symName: __ZNKSt3__117__compressed_pairIPNS_11__tree_nodeINS_12__value_typeINS_12basic_stringIcNS_11char_traitsIcEENS_9allocatorIcEEEEdEEPvEENS_22__tree_node_destructorINS6_ISB_EEEEE5firstB8ue170006Ev, symObjAddr: 0xAE60, symBinAddr: 0x10000F558, symSize: 0x24 }
  - { offsetInCU: 0x32CA3, offset: 0x32CA3, size: 0x8, addend: 0x0, symName: __ZNKSt3__122__compressed_pair_elemIPNS_11__tree_nodeINS_12__value_typeINS_12basic_stringIcNS_11char_traitsIcEENS_9allocatorIcEEEEdEEPvEELi0ELb0EE5__getB8ue170006Ev, symObjAddr: 0xAE84, symBinAddr: 0x10000F57C, symSize: 0x14 }
  - { offsetInCU: 0x32CC9, offset: 0x32CC9, size: 0x8, addend: 0x0, symName: __ZNSt3__117__compressed_pairIPNS_11__tree_nodeINS_12__value_typeINS_12basic_stringIcNS_11char_traitsIcEENS_9allocatorIcEEEEdEEPvEENS_22__tree_node_destructorINS6_ISB_EEEEE6secondB8ue170006Ev, symObjAddr: 0xAE98, symBinAddr: 0x10000F590, symSize: 0x28 }
  - { offsetInCU: 0x32CEF, offset: 0x32CEF, size: 0x8, addend: 0x0, symName: __ZNSt3__122__compressed_pair_elemINS_22__tree_node_destructorINS_9allocatorINS_11__tree_nodeINS_12__value_typeINS_12basic_stringIcNS_11char_traitsIcEENS2_IcEEEEdEEPvEEEEEELi1ELb0EE5__getB8ue170006Ev, symObjAddr: 0xAEC0, symBinAddr: 0x10000F5B8, symSize: 0x14 }
  - { offsetInCU: 0x32D15, offset: 0x32D15, size: 0x8, addend: 0x0, symName: __ZNSt3__16__treeINS_12__value_typeINS_12basic_stringIcNS_11char_traitsIcEENS_9allocatorIcEEEEdEENS_19__map_value_compareIS7_S8_NS_4lessIS7_EELb1EEENS5_IS8_EEE4sizeB8ue170006Ev, symObjAddr: 0xAED4, symBinAddr: 0x10000F5CC, symSize: 0x28 }
  - { offsetInCU: 0x32D3B, offset: 0x32D3B, size: 0x8, addend: 0x0, symName: __ZNSt3__117__compressed_pairImNS_19__map_value_compareINS_12basic_stringIcNS_11char_traitsIcEENS_9allocatorIcEEEENS_12__value_typeIS7_dEENS_4lessIS7_EELb1EEEE5firstB8ue170006Ev, symObjAddr: 0xAEFC, symBinAddr: 0x10000F5F4, symSize: 0x24 }
  - { offsetInCU: 0x32D61, offset: 0x32D61, size: 0x8, addend: 0x0, symName: __ZNSt3__117__compressed_pairIPNS_11__tree_nodeINS_12__value_typeINS_12basic_stringIcNS_11char_traitsIcEENS_9allocatorIcEEEEdEEPvEENS_22__tree_node_destructorINS6_ISB_EEEEE5firstB8ue170006Ev, symObjAddr: 0xAF20, symBinAddr: 0x10000F618, symSize: 0x24 }
  - { offsetInCU: 0x32D87, offset: 0x32D87, size: 0x8, addend: 0x0, symName: __ZNSt3__122__compressed_pair_elemIPNS_11__tree_nodeINS_12__value_typeINS_12basic_stringIcNS_11char_traitsIcEENS_9allocatorIcEEEEdEEPvEELi0ELb0EE5__getB8ue170006Ev, symObjAddr: 0xAF44, symBinAddr: 0x10000F63C, symSize: 0x14 }
  - { offsetInCU: 0x32DAD, offset: 0x32DAD, size: 0x8, addend: 0x0, symName: __ZNSt3__110unique_ptrINS_11__tree_nodeINS_12__value_typeINS_12basic_stringIcNS_11char_traitsIcEENS_9allocatorIcEEEEdEEPvEENS_22__tree_node_destructorINS6_ISB_EEEEED2B8ue170006Ev, symObjAddr: 0xAF58, symBinAddr: 0x10000F650, symSize: 0x30 }
  - { offsetInCU: 0x32DD7, offset: 0x32DD7, size: 0x8, addend: 0x0, symName: __ZNSt3__110unique_ptrINS_11__tree_nodeINS_12__value_typeINS_12basic_stringIcNS_11char_traitsIcEENS_9allocatorIcEEEEdEEPvEENS_22__tree_node_destructorINS6_ISB_EEEEE5resetB8ue170006EPSB_, symObjAddr: 0xAF88, symBinAddr: 0x10000F680, symSize: 0x78 }
  - { offsetInCU: 0x32E1B, offset: 0x32E1B, size: 0x8, addend: 0x0, symName: __ZNSt3__122__tree_node_destructorINS_9allocatorINS_11__tree_nodeINS_12__value_typeINS_12basic_stringIcNS_11char_traitsIcEENS1_IcEEEEdEEPvEEEEEclB8ue170006EPSB_, symObjAddr: 0xB000, symBinAddr: 0x10000F6F8, symSize: 0x98 }
  - { offsetInCU: 0x32E50, offset: 0x32E50, size: 0x8, addend: 0x0, symName: __ZNSt3__116allocator_traitsINS_9allocatorINS_11__tree_nodeINS_12__value_typeINS_12basic_stringIcNS_11char_traitsIcEENS1_IcEEEEdEEPvEEEEE7destroyB8ue170006INS_4pairIKS8_dEEvvEEvRSC_PT_, symObjAddr: 0xB098, symBinAddr: 0x10000F790, symSize: 0x28 }
  - { offsetInCU: 0x32E8B, offset: 0x32E8B, size: 0x8, addend: 0x0, symName: __ZNSt3__116allocator_traitsINS_9allocatorINS_11__tree_nodeINS_12__value_typeINS_12basic_stringIcNS_11char_traitsIcEENS1_IcEEEEdEEPvEEEEE10deallocateB8ue170006ERSC_PSB_m, symObjAddr: 0xB0C0, symBinAddr: 0x10000F7B8, symSize: 0x34 }
  - { offsetInCU: 0x32ECD, offset: 0x32ECD, size: 0x8, addend: 0x0, symName: __ZNSt3__19allocatorINS_11__tree_nodeINS_12__value_typeINS_12basic_stringIcNS_11char_traitsIcEENS0_IcEEEEdEEPvEEE10deallocateB8ue170006EPSA_m, symObjAddr: 0xB0F4, symBinAddr: 0x10000F7EC, symSize: 0x40 }
  - { offsetInCU: 0x32F0F, offset: 0x32F0F, size: 0x8, addend: 0x0, symName: __ZNSt3__115__tree_iteratorINS_12__value_typeINS_12basic_stringIcNS_11char_traitsIcEENS_9allocatorIcEEEEdEEPNS_11__tree_nodeIS8_PvEElEC2B8ue170006ESC_, symObjAddr: 0xB134, symBinAddr: 0x10000F82C, symSize: 0x20 }
  - { offsetInCU: 0x32F48, offset: 0x32F48, size: 0x8, addend: 0x0, symName: __ZNSt3__14pairINS_15__tree_iteratorINS_12__value_typeINS_12basic_stringIcNS_11char_traitsIcEENS_9allocatorIcEEEEdEEPNS_11__tree_nodeIS9_PvEElEEbEC2B8ue170006ISE_RbLSB_0EEEOT_OT0_, symObjAddr: 0xB154, symBinAddr: 0x10000F84C, symSize: 0x38 }
  - { offsetInCU: 0x32FA6, offset: 0x32FA6, size: 0x8, addend: 0x0, symName: __ZNSt3__114__map_iteratorINS_15__tree_iteratorINS_12__value_typeINS_12basic_stringIcNS_11char_traitsIcEENS_9allocatorIcEEEEdEEPNS_11__tree_nodeIS9_PvEElEEEC2B8ue170006ESE_, symObjAddr: 0xB18C, symBinAddr: 0x10000F884, symSize: 0x20 }
  - { offsetInCU: 0x32FDF, offset: 0x32FDF, size: 0x8, addend: 0x0, symName: __ZNSt3__120__map_const_iteratorINS_21__tree_const_iteratorINS_12__value_typeINS_12basic_stringIcNS_11char_traitsIcEENS_9allocatorIcEEEEdEEPNS_11__tree_nodeIS9_PvEElEEEC2B8ue170006ESE_, symObjAddr: 0xB1AC, symBinAddr: 0x10000F8A4, symSize: 0x20 }
  - { offsetInCU: 0x33018, offset: 0x33018, size: 0x8, addend: 0x0, symName: __ZNSt3__16__treeINS_12__value_typeINS_12basic_stringIcNS_11char_traitsIcEENS_9allocatorIcEEEEdEENS_19__map_value_compareIS7_S8_NS_4lessIS7_EELb1EEENS5_IS8_EEED2Ev, symObjAddr: 0xB1CC, symBinAddr: 0x10000F8C4, symSize: 0x38 }
  - { offsetInCU: 0x33044, offset: 0x33044, size: 0x8, addend: 0x0, symName: __ZNSt3__16__treeINS_12__value_typeINS_12basic_stringIcNS_11char_traitsIcEENS_9allocatorIcEEEEdEENS_19__map_value_compareIS7_S8_NS_4lessIS7_EELb1EEENS5_IS8_EEE7destroyEPNS_11__tree_nodeIS8_PvEE, symObjAddr: 0xB204, symBinAddr: 0x10000F8FC, symSize: 0xA8 }
  - { offsetInCU: 0x33090, offset: 0x33090, size: 0x8, addend: 0x0, symName: __ZNSt3__13mapINS_12basic_stringIcNS_11char_traitsIcEENS_9allocatorIcEEEEdNS_4lessIS6_EENS4_INS_4pairIKS6_dEEEEED2B8ue170006Ev, symObjAddr: 0xB2AC, symBinAddr: 0x10000F9A4, symSize: 0x2C }
  - { offsetInCU: 0x330BA, offset: 0x330BA, size: 0x8, addend: 0x0, symName: __ZNSt3__16__treeINS_12__value_typeINS_12basic_stringIcNS_11char_traitsIcEENS_9allocatorIcEEEEiEENS_19__map_value_compareIS7_S8_NS_4lessIS7_EELb1EEENS5_IS8_EEE4findIS7_EENS_15__tree_iteratorIS8_PNS_11__tree_nodeIS8_PvEElEERKT_, symObjAddr: 0xB2D8, symBinAddr: 0x10000F9D0, symSize: 0xF8 }
  - { offsetInCU: 0x33109, offset: 0x33109, size: 0x8, addend: 0x0, symName: __ZNSt3__16__treeINS_12__value_typeINS_12basic_stringIcNS_11char_traitsIcEENS_9allocatorIcEEEEiEENS_19__map_value_compareIS7_S8_NS_4lessIS7_EELb1EEENS5_IS8_EEE13__lower_boundIS7_EENS_15__tree_iteratorIS8_PNS_11__tree_nodeIS8_PvEElEERKT_SK_PNS_15__tree_end_nodeIPNS_16__tree_node_baseISI_EEEE, symObjAddr: 0xB3D0, symBinAddr: 0x10000FAC8, symSize: 0xA4 }
  - { offsetInCU: 0x33167, offset: 0x33167, size: 0x8, addend: 0x0, symName: __ZNKSt3__115__tree_iteratorINS_12__value_typeINS_12basic_stringIcNS_11char_traitsIcEENS_9allocatorIcEEEEiEEPNS_11__tree_nodeIS8_PvEElEdeB8ue170006Ev, symObjAddr: 0xB4A8, symBinAddr: 0x10000FBA0, symSize: 0x28 }
  - { offsetInCU: 0x3318D, offset: 0x3318D, size: 0x8, addend: 0x0, symName: __ZNKSt3__115__tree_iteratorINS_12__value_typeINS_12basic_stringIcNS_11char_traitsIcEENS_9allocatorIcEEEEiEEPNS_11__tree_nodeIS8_PvEElE8__get_npB8ue170006Ev, symObjAddr: 0xB500, symBinAddr: 0x10000FBF8, symSize: 0x18 }
  - { offsetInCU: 0x331B3, offset: 0x331B3, size: 0x8, addend: 0x0, symName: __ZNSt3__16__treeINS_12__value_typeINS_12basic_stringIcNS_11char_traitsIcEENS_9allocatorIcEEEEdEENS_19__map_value_compareIS7_S8_NS_4lessIS7_EELb1EEENS5_IS8_EEE4findIS7_EENS_15__tree_iteratorIS8_PNS_11__tree_nodeIS8_PvEElEERKT_, symObjAddr: 0xB518, symBinAddr: 0x10000FC10, symSize: 0xF8 }
  - { offsetInCU: 0x33202, offset: 0x33202, size: 0x8, addend: 0x0, symName: __ZNSt3__16__treeINS_12__value_typeINS_12basic_stringIcNS_11char_traitsIcEENS_9allocatorIcEEEEdEENS_19__map_value_compareIS7_S8_NS_4lessIS7_EELb1EEENS5_IS8_EEE13__lower_boundIS7_EENS_15__tree_iteratorIS8_PNS_11__tree_nodeIS8_PvEElEERKT_SK_PNS_15__tree_end_nodeIPNS_16__tree_node_baseISI_EEEE, symObjAddr: 0xB610, symBinAddr: 0x10000FD08, symSize: 0xA4 }
  - { offsetInCU: 0x33260, offset: 0x33260, size: 0x8, addend: 0x0, symName: __ZNKSt3__115__tree_iteratorINS_12__value_typeINS_12basic_stringIcNS_11char_traitsIcEENS_9allocatorIcEEEEdEEPNS_11__tree_nodeIS8_PvEElEdeB8ue170006Ev, symObjAddr: 0xB6E8, symBinAddr: 0x10000FDE0, symSize: 0x28 }
  - { offsetInCU: 0x33286, offset: 0x33286, size: 0x8, addend: 0x0, symName: __ZNKSt3__115__tree_iteratorINS_12__value_typeINS_12basic_stringIcNS_11char_traitsIcEENS_9allocatorIcEEEEdEEPNS_11__tree_nodeIS8_PvEElE8__get_npB8ue170006Ev, symObjAddr: 0xB740, symBinAddr: 0x10000FE38, symSize: 0x18 }
  - { offsetInCU: 0x332AC, offset: 0x332AC, size: 0x8, addend: 0x0, symName: __ZNSt3__16__treeINS_12__value_typeINS_12basic_stringIcNS_11char_traitsIcEENS_9allocatorIcEEEEiEENS_19__map_value_compareIS7_S8_NS_4lessIS7_EELb1EEENS5_IS8_EEE25__emplace_unique_key_argsIS7_JRKNS_21piecewise_construct_tENS_5tupleIJRKS7_EEENSJ_IJEEEEEENS_4pairINS_15__tree_iteratorIS8_PNS_11__tree_nodeIS8_PvEElEEbEERKT_DpOT0_, symObjAddr: 0xB758, symBinAddr: 0x10000FE50, symSize: 0x100 }
  - { offsetInCU: 0x33382, offset: 0x33382, size: 0x8, addend: 0x0, symName: __ZNKSt3__115__tree_iteratorINS_12__value_typeINS_12basic_stringIcNS_11char_traitsIcEENS_9allocatorIcEEEEiEEPNS_11__tree_nodeIS8_PvEElEptB8ue170006Ev, symObjAddr: 0xB858, symBinAddr: 0x10000FF50, symSize: 0x2C }
  - { offsetInCU: 0x333A8, offset: 0x333A8, size: 0x8, addend: 0x0, symName: __ZNSt3__16__treeINS_12__value_typeINS_12basic_stringIcNS_11char_traitsIcEENS_9allocatorIcEEEEiEENS_19__map_value_compareIS7_S8_NS_4lessIS7_EELb1EEENS5_IS8_EEE16__construct_nodeIJRKNS_21piecewise_construct_tENS_5tupleIJRKS7_EEENSJ_IJEEEEEENS_10unique_ptrINS_11__tree_nodeIS8_PvEENS_22__tree_node_destructorINS5_ISR_EEEEEEDpOT_, symObjAddr: 0xB884, symBinAddr: 0x10000FF7C, symSize: 0x120 }
  - { offsetInCU: 0x33431, offset: 0x33431, size: 0x8, addend: 0x0, symName: __ZNSt3__116allocator_traitsINS_9allocatorINS_11__tree_nodeINS_12__value_typeINS_12basic_stringIcNS_11char_traitsIcEENS1_IcEEEEiEEPvEEEEE9constructB8ue170006INS_4pairIKS8_iEEJRKNS_21piecewise_construct_tENS_5tupleIJRSG_EEENSL_IJEEEEvEEvRSC_PT_DpOT0_, symObjAddr: 0xB9A4, symBinAddr: 0x10001009C, symSize: 0x44 }
  - { offsetInCU: 0x334B0, offset: 0x334B0, size: 0x8, addend: 0x0, symName: __ZNSt3__19allocatorINS_11__tree_nodeINS_12__value_typeINS_12basic_stringIcNS_11char_traitsIcEENS0_IcEEEEiEEPvEEE9constructB8ue170006INS_4pairIKS7_iEEJRKNS_21piecewise_construct_tENS_5tupleIJRSE_EEENSJ_IJEEEEEEvPT_DpOT0_, symObjAddr: 0xB9E8, symBinAddr: 0x1000100E0, symSize: 0x44 }
  - { offsetInCU: 0x3352C, offset: 0x3352C, size: 0x8, addend: 0x0, symName: __ZNSt3__14pairIKNS_12basic_stringIcNS_11char_traitsIcEENS_9allocatorIcEEEEiEC1B8ue170006IJRS7_EJEEENS_21piecewise_construct_tENS_5tupleIJDpT_EEENSC_IJDpT0_EEE, symObjAddr: 0xBA2C, symBinAddr: 0x100010124, symSize: 0x3C }
  - { offsetInCU: 0x33593, offset: 0x33593, size: 0x8, addend: 0x0, symName: __ZNSt3__14pairIKNS_12basic_stringIcNS_11char_traitsIcEENS_9allocatorIcEEEEiEC1B8ue170006IJRS7_EJEJLm0EEJEEENS_21piecewise_construct_tERNS_5tupleIJDpT_EEERNSC_IJDpT0_EEENS_15__tuple_indicesIJXspT1_EEEENSL_IJXspT2_EEEE, symObjAddr: 0xBA68, symBinAddr: 0x100010160, symSize: 0x3C }
  - { offsetInCU: 0x33623, offset: 0x33623, size: 0x8, addend: 0x0, symName: __ZNSt3__14pairIKNS_12basic_stringIcNS_11char_traitsIcEENS_9allocatorIcEEEEiEC2B8ue170006IJRS7_EJEJLm0EEJEEENS_21piecewise_construct_tERNS_5tupleIJDpT_EEERNSC_IJDpT0_EEENS_15__tuple_indicesIJXspT1_EEEENSL_IJXspT2_EEEE, symObjAddr: 0xBAA4, symBinAddr: 0x10001019C, symSize: 0x48 }
  - { offsetInCU: 0x336B3, offset: 0x336B3, size: 0x8, addend: 0x0, symName: __ZNSt3__114pointer_traitsIPNS_12__value_typeINS_12basic_stringIcNS_11char_traitsIcEENS_9allocatorIcEEEEiEEE10pointer_toB8ue170006ERS8_, symObjAddr: 0xBAEC, symBinAddr: 0x1000101E4, symSize: 0x14 }
  - { offsetInCU: 0x336D6, offset: 0x336D6, size: 0x8, addend: 0x0, symName: __ZNSt3__16__treeINS_12__value_typeINS_12basic_stringIcNS_11char_traitsIcEENS_9allocatorIcEEEEdEENS_19__map_value_compareIS7_S8_NS_4lessIS7_EELb1EEENS5_IS8_EEE25__emplace_unique_key_argsIS7_JRKNS_21piecewise_construct_tENS_5tupleIJRKS7_EEENSJ_IJEEEEEENS_4pairINS_15__tree_iteratorIS8_PNS_11__tree_nodeIS8_PvEElEEbEERKT_DpOT0_, symObjAddr: 0xBB00, symBinAddr: 0x1000101F8, symSize: 0x100 }
  - { offsetInCU: 0x337AC, offset: 0x337AC, size: 0x8, addend: 0x0, symName: __ZNKSt3__115__tree_iteratorINS_12__value_typeINS_12basic_stringIcNS_11char_traitsIcEENS_9allocatorIcEEEEdEEPNS_11__tree_nodeIS8_PvEElEptB8ue170006Ev, symObjAddr: 0xBC00, symBinAddr: 0x1000102F8, symSize: 0x2C }
  - { offsetInCU: 0x337D2, offset: 0x337D2, size: 0x8, addend: 0x0, symName: __ZNSt3__16__treeINS_12__value_typeINS_12basic_stringIcNS_11char_traitsIcEENS_9allocatorIcEEEEdEENS_19__map_value_compareIS7_S8_NS_4lessIS7_EELb1EEENS5_IS8_EEE16__construct_nodeIJRKNS_21piecewise_construct_tENS_5tupleIJRKS7_EEENSJ_IJEEEEEENS_10unique_ptrINS_11__tree_nodeIS8_PvEENS_22__tree_node_destructorINS5_ISR_EEEEEEDpOT_, symObjAddr: 0xBC2C, symBinAddr: 0x100010324, symSize: 0x120 }
  - { offsetInCU: 0x3385B, offset: 0x3385B, size: 0x8, addend: 0x0, symName: __ZNSt3__116allocator_traitsINS_9allocatorINS_11__tree_nodeINS_12__value_typeINS_12basic_stringIcNS_11char_traitsIcEENS1_IcEEEEdEEPvEEEEE9constructB8ue170006INS_4pairIKS8_dEEJRKNS_21piecewise_construct_tENS_5tupleIJRSG_EEENSL_IJEEEEvEEvRSC_PT_DpOT0_, symObjAddr: 0xBD4C, symBinAddr: 0x100010444, symSize: 0x44 }
  - { offsetInCU: 0x338DA, offset: 0x338DA, size: 0x8, addend: 0x0, symName: __ZNSt3__19allocatorINS_11__tree_nodeINS_12__value_typeINS_12basic_stringIcNS_11char_traitsIcEENS0_IcEEEEdEEPvEEE9constructB8ue170006INS_4pairIKS7_dEEJRKNS_21piecewise_construct_tENS_5tupleIJRSE_EEENSJ_IJEEEEEEvPT_DpOT0_, symObjAddr: 0xBD90, symBinAddr: 0x100010488, symSize: 0x44 }
  - { offsetInCU: 0x33956, offset: 0x33956, size: 0x8, addend: 0x0, symName: __ZNSt3__14pairIKNS_12basic_stringIcNS_11char_traitsIcEENS_9allocatorIcEEEEdEC1B8ue170006IJRS7_EJEEENS_21piecewise_construct_tENS_5tupleIJDpT_EEENSC_IJDpT0_EEE, symObjAddr: 0xBDD4, symBinAddr: 0x1000104CC, symSize: 0x3C }
  - { offsetInCU: 0x339BD, offset: 0x339BD, size: 0x8, addend: 0x0, symName: __ZNSt3__14pairIKNS_12basic_stringIcNS_11char_traitsIcEENS_9allocatorIcEEEEdEC1B8ue170006IJRS7_EJEJLm0EEJEEENS_21piecewise_construct_tERNS_5tupleIJDpT_EEERNSC_IJDpT0_EEENS_15__tuple_indicesIJXspT1_EEEENSL_IJXspT2_EEEE, symObjAddr: 0xBE10, symBinAddr: 0x100010508, symSize: 0x3C }
  - { offsetInCU: 0x33A4D, offset: 0x33A4D, size: 0x8, addend: 0x0, symName: __ZNSt3__14pairIKNS_12basic_stringIcNS_11char_traitsIcEENS_9allocatorIcEEEEdEC2B8ue170006IJRS7_EJEJLm0EEJEEENS_21piecewise_construct_tERNS_5tupleIJDpT_EEERNSC_IJDpT0_EEENS_15__tuple_indicesIJXspT1_EEEENSL_IJXspT2_EEEE, symObjAddr: 0xBE4C, symBinAddr: 0x100010544, symSize: 0x4C }
  - { offsetInCU: 0x33ADD, offset: 0x33ADD, size: 0x8, addend: 0x0, symName: __ZNSt3__114pointer_traitsIPNS_12__value_typeINS_12basic_stringIcNS_11char_traitsIcEENS_9allocatorIcEEEEdEEE10pointer_toB8ue170006ERS8_, symObjAddr: 0xBE98, symBinAddr: 0x100010590, symSize: 0x14 }
  - { offsetInCU: 0x33B00, offset: 0x33B00, size: 0x8, addend: 0x0, symName: __ZNSt3__114pointer_traitsIPNS_4pairIKNS_12basic_stringIcNS_11char_traitsIcEENS_9allocatorIcEEEEN2cv7Scalar_IdEEEEE10pointer_toB8ue170006ERSC_, symObjAddr: 0xBEAC, symBinAddr: 0x1000105A4, symSize: 0x14 }
  - { offsetInCU: 0x33B23, offset: 0x33B23, size: 0x8, addend: 0x0, symName: __ZNSt3__16vectorINS0_IN2cv6Point_IiEENS_9allocatorIS3_EEEENS4_IS6_EEEC2B8ue170006Ev, symObjAddr: 0xBED4, symBinAddr: 0x1000105CC, symSize: 0x4C }
  - { offsetInCU: 0x33B52, offset: 0x33B52, size: 0x8, addend: 0x0, symName: __ZNSt3__117__compressed_pairIPNS_6vectorIN2cv6Point_IiEENS_9allocatorIS4_EEEENS5_IS7_EEEC1B8ue170006IDnNS_18__default_init_tagEEEOT_OT0_, symObjAddr: 0xBF20, symBinAddr: 0x100010618, symSize: 0x3C }
  - { offsetInCU: 0x33BAA, offset: 0x33BAA, size: 0x8, addend: 0x0, symName: __ZNSt3__117__compressed_pairIPNS_6vectorIN2cv6Point_IiEENS_9allocatorIS4_EEEENS5_IS7_EEEC2B8ue170006IDnNS_18__default_init_tagEEEOT_OT0_, symObjAddr: 0xBF5C, symBinAddr: 0x100010654, symSize: 0x40 }
  - { offsetInCU: 0x33C02, offset: 0x33C02, size: 0x8, addend: 0x0, symName: __ZNSt3__122__compressed_pair_elemIPNS_6vectorIN2cv6Point_IiEENS_9allocatorIS4_EEEELi0ELb0EEC2B8ue170006IDnvEEOT_, symObjAddr: 0xBF9C, symBinAddr: 0x100010694, symSize: 0x1C }
  - { offsetInCU: 0x33C44, offset: 0x33C44, size: 0x8, addend: 0x0, symName: __ZNSt3__122__compressed_pair_elemINS_9allocatorINS_6vectorIN2cv6Point_IiEENS1_IS5_EEEEEELi1ELb1EEC2B8ue170006ENS_18__default_init_tagE, symObjAddr: 0xBFB8, symBinAddr: 0x1000106B0, symSize: 0x2C }
  - { offsetInCU: 0x33C78, offset: 0x33C78, size: 0x8, addend: 0x0, symName: __ZNSt3__19allocatorINS_6vectorIN2cv6Point_IiEENS0_IS4_EEEEEC2B8ue170006Ev, symObjAddr: 0xBFE4, symBinAddr: 0x1000106DC, symSize: 0x2C }
  - { offsetInCU: 0x33CA2, offset: 0x33CA2, size: 0x8, addend: 0x0, symName: __ZNSt3__116__non_trivial_ifILb1ENS_9allocatorINS_6vectorIN2cv6Point_IiEENS1_IS5_EEEEEEEC2B8ue170006Ev, symObjAddr: 0xC010, symBinAddr: 0x100010708, symSize: 0x14 }
  - { offsetInCU: 0x33CCC, offset: 0x33CCC, size: 0x8, addend: 0x0, symName: __ZNSt3__16vectorINS0_IN2cv6Point_IiEENS_9allocatorIS3_EEEENS4_IS6_EEED2B8ue170006Ev, symObjAddr: 0xC024, symBinAddr: 0x10001071C, symSize: 0x44 }
  - { offsetInCU: 0x33CF6, offset: 0x33CF6, size: 0x8, addend: 0x0, symName: __ZNSt3__16vectorINS0_IN2cv6Point_IiEENS_9allocatorIS3_EEEENS4_IS6_EEE16__destroy_vectorC1B8ue170006ERS8_, symObjAddr: 0xC068, symBinAddr: 0x100010760, symSize: 0x34 }
  - { offsetInCU: 0x33D2F, offset: 0x33D2F, size: 0x8, addend: 0x0, symName: __ZNSt3__16vectorINS0_IN2cv6Point_IiEENS_9allocatorIS3_EEEENS4_IS6_EEE16__destroy_vectorclB8ue170006Ev, symObjAddr: 0xC09C, symBinAddr: 0x100010794, symSize: 0x90 }
  - { offsetInCU: 0x33D55, offset: 0x33D55, size: 0x8, addend: 0x0, symName: __ZNSt3__16vectorINS0_IN2cv6Point_IiEENS_9allocatorIS3_EEEENS4_IS6_EEE16__destroy_vectorC2B8ue170006ERS8_, symObjAddr: 0xC12C, symBinAddr: 0x100010824, symSize: 0x20 }
  - { offsetInCU: 0x33D8E, offset: 0x33D8E, size: 0x8, addend: 0x0, symName: __ZNSt3__16vectorINS0_IN2cv6Point_IiEENS_9allocatorIS3_EEEENS4_IS6_EEE7__clearB8ue170006Ev, symObjAddr: 0xC14C, symBinAddr: 0x100010844, symSize: 0x28 }
  - { offsetInCU: 0x33DB4, offset: 0x33DB4, size: 0x8, addend: 0x0, symName: __ZNKSt3__16vectorINS0_IN2cv6Point_IiEENS_9allocatorIS3_EEEENS4_IS6_EEE17__annotate_deleteB8ue170006Ev, symObjAddr: 0xC174, symBinAddr: 0x10001086C, symSize: 0xD4 }
  - { offsetInCU: 0x33DDA, offset: 0x33DDA, size: 0x8, addend: 0x0, symName: __ZNSt3__116allocator_traitsINS_9allocatorINS_6vectorIN2cv6Point_IiEENS1_IS5_EEEEEEE10deallocateB8ue170006ERS8_PS7_m, symObjAddr: 0xC248, symBinAddr: 0x100010940, symSize: 0x34 }
  - { offsetInCU: 0x33E1C, offset: 0x33E1C, size: 0x8, addend: 0x0, symName: __ZNSt3__16vectorINS0_IN2cv6Point_IiEENS_9allocatorIS3_EEEENS4_IS6_EEE7__allocB8ue170006Ev, symObjAddr: 0xC27C, symBinAddr: 0x100010974, symSize: 0x28 }
  - { offsetInCU: 0x33E42, offset: 0x33E42, size: 0x8, addend: 0x0, symName: __ZNKSt3__16vectorINS0_IN2cv6Point_IiEENS_9allocatorIS3_EEEENS4_IS6_EEE8capacityB8ue170006Ev, symObjAddr: 0xC2A4, symBinAddr: 0x10001099C, symSize: 0x40 }
  - { offsetInCU: 0x33E68, offset: 0x33E68, size: 0x8, addend: 0x0, symName: __ZNSt3__16vectorINS0_IN2cv6Point_IiEENS_9allocatorIS3_EEEENS4_IS6_EEE22__base_destruct_at_endB8ue170006EPS6_, symObjAddr: 0xC2E4, symBinAddr: 0x1000109DC, symSize: 0x8C }
  - { offsetInCU: 0x33EAC, offset: 0x33EAC, size: 0x8, addend: 0x0, symName: __ZNSt3__116allocator_traitsINS_9allocatorINS_6vectorIN2cv6Point_IiEENS1_IS5_EEEEEEE7destroyB8ue170006IS7_vEEvRS8_PT_, symObjAddr: 0xC370, symBinAddr: 0x100010A68, symSize: 0x2C }
  - { offsetInCU: 0x33EE9, offset: 0x33EE9, size: 0x8, addend: 0x0, symName: __ZNSt3__19allocatorINS_6vectorIN2cv6Point_IiEENS0_IS4_EEEEE7destroyB8ue170006EPS6_, symObjAddr: 0xC3B0, symBinAddr: 0x100010AA8, symSize: 0x28 }
  - { offsetInCU: 0x33F1D, offset: 0x33F1D, size: 0x8, addend: 0x0, symName: __ZNSt3__16vectorIN2cv6Point_IiEENS_9allocatorIS3_EEED1B8ue170006Ev, symObjAddr: 0xC3D8, symBinAddr: 0x100010AD0, symSize: 0x2C }
  - { offsetInCU: 0x33F47, offset: 0x33F47, size: 0x8, addend: 0x0, symName: __ZNSt3__16vectorIN2cv6Point_IiEENS_9allocatorIS3_EEED2B8ue170006Ev, symObjAddr: 0xC404, symBinAddr: 0x100010AFC, symSize: 0x44 }
  - { offsetInCU: 0x33F71, offset: 0x33F71, size: 0x8, addend: 0x0, symName: __ZNSt3__16vectorIN2cv6Point_IiEENS_9allocatorIS3_EEE16__destroy_vectorC1B8ue170006ERS6_, symObjAddr: 0xC448, symBinAddr: 0x100010B40, symSize: 0x34 }
  - { offsetInCU: 0x33FAA, offset: 0x33FAA, size: 0x8, addend: 0x0, symName: __ZNSt3__16vectorIN2cv6Point_IiEENS_9allocatorIS3_EEE16__destroy_vectorclB8ue170006Ev, symObjAddr: 0xC47C, symBinAddr: 0x100010B74, symSize: 0x90 }
  - { offsetInCU: 0x33FD0, offset: 0x33FD0, size: 0x8, addend: 0x0, symName: __ZNSt3__16vectorIN2cv6Point_IiEENS_9allocatorIS3_EEE16__destroy_vectorC2B8ue170006ERS6_, symObjAddr: 0xC50C, symBinAddr: 0x100010C04, symSize: 0x20 }
  - { offsetInCU: 0x34009, offset: 0x34009, size: 0x8, addend: 0x0, symName: __ZNSt3__16vectorIN2cv6Point_IiEENS_9allocatorIS3_EEE7__clearB8ue170006Ev, symObjAddr: 0xC52C, symBinAddr: 0x100010C24, symSize: 0x28 }
  - { offsetInCU: 0x3402F, offset: 0x3402F, size: 0x8, addend: 0x0, symName: __ZNKSt3__16vectorIN2cv6Point_IiEENS_9allocatorIS3_EEE17__annotate_deleteB8ue170006Ev, symObjAddr: 0xC554, symBinAddr: 0x100010C4C, symSize: 0xB8 }
  - { offsetInCU: 0x34055, offset: 0x34055, size: 0x8, addend: 0x0, symName: __ZNSt3__116allocator_traitsINS_9allocatorIN2cv6Point_IiEEEEE10deallocateB8ue170006ERS5_PS4_m, symObjAddr: 0xC60C, symBinAddr: 0x100010D04, symSize: 0x34 }
  - { offsetInCU: 0x34097, offset: 0x34097, size: 0x8, addend: 0x0, symName: __ZNSt3__16vectorIN2cv6Point_IiEENS_9allocatorIS3_EEE7__allocB8ue170006Ev, symObjAddr: 0xC640, symBinAddr: 0x100010D38, symSize: 0x28 }
  - { offsetInCU: 0x340BD, offset: 0x340BD, size: 0x8, addend: 0x0, symName: __ZNKSt3__16vectorIN2cv6Point_IiEENS_9allocatorIS3_EEE8capacityB8ue170006Ev, symObjAddr: 0xC668, symBinAddr: 0x100010D60, symSize: 0x40 }
  - { offsetInCU: 0x340E3, offset: 0x340E3, size: 0x8, addend: 0x0, symName: __ZNSt3__16vectorIN2cv6Point_IiEENS_9allocatorIS3_EEE22__base_destruct_at_endB8ue170006EPS3_, symObjAddr: 0xC6A8, symBinAddr: 0x100010DA0, symSize: 0x8C }
  - { offsetInCU: 0x34127, offset: 0x34127, size: 0x8, addend: 0x0, symName: __ZNSt3__116allocator_traitsINS_9allocatorIN2cv6Point_IiEEEEE7destroyB8ue170006IS4_vEEvRS5_PT_, symObjAddr: 0xC734, symBinAddr: 0x100010E2C, symSize: 0x2C }
  - { offsetInCU: 0x34164, offset: 0x34164, size: 0x8, addend: 0x0, symName: __ZNSt3__19allocatorIN2cv6Point_IiEEE7destroyB8ue170006EPS3_, symObjAddr: 0xC774, symBinAddr: 0x100010E6C, symSize: 0x14 }
  - { offsetInCU: 0x34198, offset: 0x34198, size: 0x8, addend: 0x0, symName: __ZNKSt3__16vectorIN2cv6Point_IiEENS_9allocatorIS3_EEE31__annotate_contiguous_containerB8ue170006EPKvS8_S8_S8_, symObjAddr: 0xC788, symBinAddr: 0x100010E80, symSize: 0x20 }
  - { offsetInCU: 0x341EE, offset: 0x341EE, size: 0x8, addend: 0x0, symName: __ZNKSt3__16vectorIN2cv6Point_IiEENS_9allocatorIS3_EEE4dataB8ue170006Ev, symObjAddr: 0xC7A8, symBinAddr: 0x100010EA0, symSize: 0x28 }
  - { offsetInCU: 0x34214, offset: 0x34214, size: 0x8, addend: 0x0, symName: __ZNKSt3__16vectorIN2cv6Point_IiEENS_9allocatorIS3_EEE4sizeB8ue170006Ev, symObjAddr: 0xC7D0, symBinAddr: 0x100010EC8, symSize: 0x28 }
  - { offsetInCU: 0x3423A, offset: 0x3423A, size: 0x8, addend: 0x0, symName: __ZNSt3__19allocatorIN2cv6Point_IiEEE10deallocateB8ue170006EPS3_m, symObjAddr: 0xC7F8, symBinAddr: 0x100010EF0, symSize: 0x40 }
  - { offsetInCU: 0x3427C, offset: 0x3427C, size: 0x8, addend: 0x0, symName: __ZNSt3__117__compressed_pairIPN2cv6Point_IiEENS_9allocatorIS3_EEE6secondB8ue170006Ev, symObjAddr: 0xC838, symBinAddr: 0x100010F30, symSize: 0x24 }
  - { offsetInCU: 0x342A2, offset: 0x342A2, size: 0x8, addend: 0x0, symName: __ZNSt3__122__compressed_pair_elemINS_9allocatorIN2cv6Point_IiEEEELi1ELb1EE5__getB8ue170006Ev, symObjAddr: 0xC85C, symBinAddr: 0x100010F54, symSize: 0x14 }
  - { offsetInCU: 0x342C8, offset: 0x342C8, size: 0x8, addend: 0x0, symName: __ZNKSt3__16vectorIN2cv6Point_IiEENS_9allocatorIS3_EEE9__end_capB8ue170006Ev, symObjAddr: 0xC870, symBinAddr: 0x100010F68, symSize: 0x28 }
  - { offsetInCU: 0x342EE, offset: 0x342EE, size: 0x8, addend: 0x0, symName: __ZNKSt3__117__compressed_pairIPN2cv6Point_IiEENS_9allocatorIS3_EEE5firstB8ue170006Ev, symObjAddr: 0xC898, symBinAddr: 0x100010F90, symSize: 0x24 }
  - { offsetInCU: 0x34314, offset: 0x34314, size: 0x8, addend: 0x0, symName: __ZNKSt3__122__compressed_pair_elemIPN2cv6Point_IiEELi0ELb0EE5__getB8ue170006Ev, symObjAddr: 0xC8BC, symBinAddr: 0x100010FB4, symSize: 0x14 }
  - { offsetInCU: 0x3433A, offset: 0x3433A, size: 0x8, addend: 0x0, symName: __ZNKSt3__16vectorINS0_IN2cv6Point_IiEENS_9allocatorIS3_EEEENS4_IS6_EEE31__annotate_contiguous_containerB8ue170006EPKvSA_SA_SA_, symObjAddr: 0xC8D0, symBinAddr: 0x100010FC8, symSize: 0x20 }
  - { offsetInCU: 0x34390, offset: 0x34390, size: 0x8, addend: 0x0, symName: __ZNKSt3__16vectorINS0_IN2cv6Point_IiEENS_9allocatorIS3_EEEENS4_IS6_EEE4dataB8ue170006Ev, symObjAddr: 0xC8F0, symBinAddr: 0x100010FE8, symSize: 0x28 }
  - { offsetInCU: 0x343B6, offset: 0x343B6, size: 0x8, addend: 0x0, symName: __ZNKSt3__16vectorINS0_IN2cv6Point_IiEENS_9allocatorIS3_EEEENS4_IS6_EEE4sizeB8ue170006Ev, symObjAddr: 0xC918, symBinAddr: 0x100011010, symSize: 0x28 }
  - { offsetInCU: 0x343DC, offset: 0x343DC, size: 0x8, addend: 0x0, symName: __ZNSt3__19allocatorINS_6vectorIN2cv6Point_IiEENS0_IS4_EEEEE10deallocateB8ue170006EPS6_m, symObjAddr: 0xC940, symBinAddr: 0x100011038, symSize: 0x44 }
  - { offsetInCU: 0x3441E, offset: 0x3441E, size: 0x8, addend: 0x0, symName: __ZNSt3__117__compressed_pairIPNS_6vectorIN2cv6Point_IiEENS_9allocatorIS4_EEEENS5_IS7_EEE6secondB8ue170006Ev, symObjAddr: 0xC984, symBinAddr: 0x10001107C, symSize: 0x24 }
  - { offsetInCU: 0x34444, offset: 0x34444, size: 0x8, addend: 0x0, symName: __ZNSt3__122__compressed_pair_elemINS_9allocatorINS_6vectorIN2cv6Point_IiEENS1_IS5_EEEEEELi1ELb1EE5__getB8ue170006Ev, symObjAddr: 0xC9A8, symBinAddr: 0x1000110A0, symSize: 0x14 }
  - { offsetInCU: 0x3446A, offset: 0x3446A, size: 0x8, addend: 0x0, symName: __ZNKSt3__16vectorINS0_IN2cv6Point_IiEENS_9allocatorIS3_EEEENS4_IS6_EEE9__end_capB8ue170006Ev, symObjAddr: 0xC9BC, symBinAddr: 0x1000110B4, symSize: 0x28 }
  - { offsetInCU: 0x34490, offset: 0x34490, size: 0x8, addend: 0x0, symName: __ZNKSt3__117__compressed_pairIPNS_6vectorIN2cv6Point_IiEENS_9allocatorIS4_EEEENS5_IS7_EEE5firstB8ue170006Ev, symObjAddr: 0xC9E4, symBinAddr: 0x1000110DC, symSize: 0x24 }
  - { offsetInCU: 0x344B6, offset: 0x344B6, size: 0x8, addend: 0x0, symName: __ZNKSt3__122__compressed_pair_elemIPNS_6vectorIN2cv6Point_IiEENS_9allocatorIS4_EEEELi0ELb0EE5__getB8ue170006Ev, symObjAddr: 0xCA08, symBinAddr: 0x100011100, symSize: 0x14 }
  - { offsetInCU: 0x344DC, offset: 0x344DC, size: 0x8, addend: 0x0, symName: __ZN2cv12_OutputArrayC2INS_6Point_IiEEEERNSt3__16vectorINS5_IT_NS4_9allocatorIS6_EEEENS7_IS9_EEEE, symObjAddr: 0xCA1C, symBinAddr: 0x100011114, symSize: 0x44 }
  - { offsetInCU: 0x3451D, offset: 0x3451D, size: 0x8, addend: 0x0, symName: __ZNSt3__16vectorINS0_IN2cv6Point_IiEENS_9allocatorIS3_EEEENS4_IS6_EEE11__make_iterB8ue170006EPS6_, symObjAddr: 0xCA60, symBinAddr: 0x100011158, symSize: 0x30 }
  - { offsetInCU: 0x34552, offset: 0x34552, size: 0x8, addend: 0x0, symName: __ZNSt3__111__wrap_iterIPNS_6vectorIN2cv6Point_IiEENS_9allocatorIS4_EEEEEC1B8ue170006ES8_, symObjAddr: 0xCA90, symBinAddr: 0x100011188, symSize: 0x34 }
  - { offsetInCU: 0x3458A, offset: 0x3458A, size: 0x8, addend: 0x0, symName: __ZNSt3__111__wrap_iterIPNS_6vectorIN2cv6Point_IiEENS_9allocatorIS4_EEEEEC2B8ue170006ES8_, symObjAddr: 0xCAC4, symBinAddr: 0x1000111BC, symSize: 0x20 }
  - { offsetInCU: 0x345C2, offset: 0x345C2, size: 0x8, addend: 0x0, symName: __ZN2cv11_InputArrayC2INS_6Point_IiEEEERKNSt3__16vectorIT_NS4_9allocatorIS6_EEEE, symObjAddr: 0xCAE4, symBinAddr: 0x1000111DC, symSize: 0x48 }
  - { offsetInCU: 0x34603, offset: 0x34603, size: 0x8, addend: 0x0, symName: __ZL7cvRoundd, symObjAddr: 0xCB50, symBinAddr: 0x100011248, symSize: 0x28 }
  - { offsetInCU: 0x34630, offset: 0x34630, size: 0x8, addend: 0x0, symName: __ZNSt3__16vectorI8ResistorNS_9allocatorIS1_EEE11__make_iterB8ue170006EPS1_, symObjAddr: 0xCB78, symBinAddr: 0x100011270, symSize: 0x30 }
  - { offsetInCU: 0x34665, offset: 0x34665, size: 0x8, addend: 0x0, symName: __ZNSt3__111__wrap_iterIP8ResistorEC1B8ue170006ES2_, symObjAddr: 0xCBA8, symBinAddr: 0x1000112A0, symSize: 0x34 }
  - { offsetInCU: 0x3469D, offset: 0x3469D, size: 0x8, addend: 0x0, symName: __ZNSt3__111__wrap_iterIP8ResistorEC2B8ue170006ES2_, symObjAddr: 0xCBDC, symBinAddr: 0x1000112D4, symSize: 0x20 }
  - { offsetInCU: 0x346D5, offset: 0x346D5, size: 0x8, addend: 0x0, symName: __ZNK2cv5Rect_IiE5emptyEv, symObjAddr: 0xCEDC, symBinAddr: 0x1000115D4, symSize: 0x54 }
  - { offsetInCU: 0x346FD, offset: 0x346FD, size: 0x8, addend: 0x0, symName: __ZN2cv5Rect_IiEC1Ev, symObjAddr: 0xCF30, symBinAddr: 0x100011628, symSize: 0x2C }
  - { offsetInCU: 0x34729, offset: 0x34729, size: 0x8, addend: 0x0, symName: __ZN2cv5Rect_IiEC2Ev, symObjAddr: 0xCF88, symBinAddr: 0x100011680, symSize: 0x24 }
  - { offsetInCU: 0x34755, offset: 0x34755, size: 0x8, addend: 0x0, symName: __ZNKSt3__16__lessIvvEclB8ue170006IiiEEbRKT_RKT0_, symObjAddr: 0xD000, symBinAddr: 0x1000116F8, symSize: 0x34 }
  - { offsetInCU: 0x347A9, offset: 0x347A9, size: 0x8, addend: 0x0, symName: __ZNSt3__16vectorINS_12basic_stringIcNS_11char_traitsIcEENS_9allocatorIcEEEENS4_IS6_EEE9__end_capB8ue170006Ev, symObjAddr: 0xD034, symBinAddr: 0x10001172C, symSize: 0x28 }
  - { offsetInCU: 0x347CF, offset: 0x347CF, size: 0x8, addend: 0x0, symName: __ZNSt3__16vectorINS_12basic_stringIcNS_11char_traitsIcEENS_9allocatorIcEEEENS4_IS6_EEE22__construct_one_at_endB8ue170006IJRKS6_EEEvDpOT_, symObjAddr: 0xD05C, symBinAddr: 0x100011754, symSize: 0x90 }
  - { offsetInCU: 0x3481E, offset: 0x3481E, size: 0x8, addend: 0x0, symName: __ZNSt3__16vectorINS_12basic_stringIcNS_11char_traitsIcEENS_9allocatorIcEEEENS4_IS6_EEE21__push_back_slow_pathIRKS6_EEvOT_, symObjAddr: 0xD0EC, symBinAddr: 0x1000117E4, symSize: 0xD8 }
  - { offsetInCU: 0x3487C, offset: 0x3487C, size: 0x8, addend: 0x0, symName: __ZNSt3__117__compressed_pairIPNS_12basic_stringIcNS_11char_traitsIcEENS_9allocatorIcEEEENS4_IS6_EEE5firstB8ue170006Ev, symObjAddr: 0xD1C4, symBinAddr: 0x1000118BC, symSize: 0x24 }
  - { offsetInCU: 0x348A2, offset: 0x348A2, size: 0x8, addend: 0x0, symName: __ZNSt3__122__compressed_pair_elemIPNS_12basic_stringIcNS_11char_traitsIcEENS_9allocatorIcEEEELi0ELb0EE5__getB8ue170006Ev, symObjAddr: 0xD1E8, symBinAddr: 0x1000118E0, symSize: 0x14 }
  - { offsetInCU: 0x348E1, offset: 0x348E1, size: 0x8, addend: 0x0, symName: __ZNSt3__16vectorINS_12basic_stringIcNS_11char_traitsIcEENS_9allocatorIcEEEENS4_IS6_EEE21_ConstructTransactionC1B8ue170006ERS8_m, symObjAddr: 0xD1FC, symBinAddr: 0x1000118F4, symSize: 0x3C }
  - { offsetInCU: 0x34929, offset: 0x34929, size: 0x8, addend: 0x0, symName: __ZNSt3__116allocator_traitsINS_9allocatorINS_12basic_stringIcNS_11char_traitsIcEENS1_IcEEEEEEE9constructB8ue170006IS6_JRKS6_EvEEvRS7_PT_DpOT0_, symObjAddr: 0xD238, symBinAddr: 0x100011930, symSize: 0x34 }
  - { offsetInCU: 0x34980, offset: 0x34980, size: 0x8, addend: 0x0, symName: __ZNSt3__16vectorINS_12basic_stringIcNS_11char_traitsIcEENS_9allocatorIcEEEENS4_IS6_EEE7__allocB8ue170006Ev, symObjAddr: 0xD26C, symBinAddr: 0x100011964, symSize: 0x28 }
  - { offsetInCU: 0x349A6, offset: 0x349A6, size: 0x8, addend: 0x0, symName: __ZNSt3__16vectorINS_12basic_stringIcNS_11char_traitsIcEENS_9allocatorIcEEEENS4_IS6_EEE21_ConstructTransactionD1B8ue170006Ev, symObjAddr: 0xD2A8, symBinAddr: 0x1000119A0, symSize: 0x2C }
  - { offsetInCU: 0x349D0, offset: 0x349D0, size: 0x8, addend: 0x0, symName: __ZNSt3__16vectorINS_12basic_stringIcNS_11char_traitsIcEENS_9allocatorIcEEEENS4_IS6_EEE21_ConstructTransactionC2B8ue170006ERS8_m, symObjAddr: 0xD2D4, symBinAddr: 0x1000119CC, symSize: 0x4C }
  - { offsetInCU: 0x34A18, offset: 0x34A18, size: 0x8, addend: 0x0, symName: __ZNSt3__19allocatorINS_12basic_stringIcNS_11char_traitsIcEENS0_IcEEEEE9constructB8ue170006IS5_JRKS5_EEEvPT_DpOT0_, symObjAddr: 0xD320, symBinAddr: 0x100011A18, symSize: 0x30 }
  - { offsetInCU: 0x34A6E, offset: 0x34A6E, size: 0x8, addend: 0x0, symName: __ZNSt3__117__compressed_pairIPNS_12basic_stringIcNS_11char_traitsIcEENS_9allocatorIcEEEENS4_IS6_EEE6secondB8ue170006Ev, symObjAddr: 0xD350, symBinAddr: 0x100011A48, symSize: 0x24 }
  - { offsetInCU: 0x34A94, offset: 0x34A94, size: 0x8, addend: 0x0, symName: __ZNSt3__122__compressed_pair_elemINS_9allocatorINS_12basic_stringIcNS_11char_traitsIcEENS1_IcEEEEEELi1ELb1EE5__getB8ue170006Ev, symObjAddr: 0xD374, symBinAddr: 0x100011A6C, symSize: 0x14 }
  - { offsetInCU: 0x34ABA, offset: 0x34ABA, size: 0x8, addend: 0x0, symName: __ZNSt3__16vectorINS_12basic_stringIcNS_11char_traitsIcEENS_9allocatorIcEEEENS4_IS6_EEE21_ConstructTransactionD2B8ue170006Ev, symObjAddr: 0xD388, symBinAddr: 0x100011A80, symSize: 0x20 }
  - { offsetInCU: 0x34AE4, offset: 0x34AE4, size: 0x8, addend: 0x0, symName: __ZNKSt3__16vectorINS_12basic_stringIcNS_11char_traitsIcEENS_9allocatorIcEEEENS4_IS6_EEE11__recommendB8ue170006Em, symObjAddr: 0xD3A8, symBinAddr: 0x100011AA0, symSize: 0xB4 }
  - { offsetInCU: 0x34B39, offset: 0x34B39, size: 0x8, addend: 0x0, symName: __ZNSt3__114__split_bufferINS_12basic_stringIcNS_11char_traitsIcEENS_9allocatorIcEEEERNS4_IS6_EEEC1EmmS8_, symObjAddr: 0xD45C, symBinAddr: 0x100011B54, symSize: 0x44 }
  - { offsetInCU: 0x34B8F, offset: 0x34B8F, size: 0x8, addend: 0x0, symName: __ZNSt3__114__split_bufferINS_12basic_stringIcNS_11char_traitsIcEENS_9allocatorIcEEEERNS4_IS6_EEED1Ev, symObjAddr: 0xD5B0, symBinAddr: 0x100011CA8, symSize: 0x2C }
  - { offsetInCU: 0x34BBB, offset: 0x34BBB, size: 0x8, addend: 0x0, symName: __ZNKSt3__16vectorINS_12basic_stringIcNS_11char_traitsIcEENS_9allocatorIcEEEENS4_IS6_EEE8max_sizeEv, symObjAddr: 0xD5DC, symBinAddr: 0x100011CD4, symSize: 0x60 }
  - { offsetInCU: 0x34BE3, offset: 0x34BE3, size: 0x8, addend: 0x0, symName: __ZNKSt3__16vectorINS_12basic_stringIcNS_11char_traitsIcEENS_9allocatorIcEEEENS4_IS6_EEE20__throw_length_errorB8ue170006Ev, symObjAddr: 0xD63C, symBinAddr: 0x100011D34, symSize: 0x1C }
  - { offsetInCU: 0x34C09, offset: 0x34C09, size: 0x8, addend: 0x0, symName: __ZNKSt3__16vectorINS_12basic_stringIcNS_11char_traitsIcEENS_9allocatorIcEEEENS4_IS6_EEE8capacityB8ue170006Ev, symObjAddr: 0xD658, symBinAddr: 0x100011D50, symSize: 0x40 }
  - { offsetInCU: 0x34C39, offset: 0x34C39, size: 0x8, addend: 0x0, symName: __ZNSt3__116allocator_traitsINS_9allocatorINS_12basic_stringIcNS_11char_traitsIcEENS1_IcEEEEEEE8max_sizeB8ue170006IS7_vEEmRKS7_, symObjAddr: 0xD6C4, symBinAddr: 0x100011DBC, symSize: 0x24 }
  - { offsetInCU: 0x34C67, offset: 0x34C67, size: 0x8, addend: 0x0, symName: __ZNKSt3__16vectorINS_12basic_stringIcNS_11char_traitsIcEENS_9allocatorIcEEEENS4_IS6_EEE7__allocB8ue170006Ev, symObjAddr: 0xD6E8, symBinAddr: 0x100011DE0, symSize: 0x28 }
  - { offsetInCU: 0x34C8D, offset: 0x34C8D, size: 0x8, addend: 0x0, symName: __ZNSt3__114numeric_limitsIlE3maxB8ue170006Ev, symObjAddr: 0xD710, symBinAddr: 0x100011E08, symSize: 0x14 }
  - { offsetInCU: 0x34CA1, offset: 0x34CA1, size: 0x8, addend: 0x0, symName: __ZNKSt3__19allocatorINS_12basic_stringIcNS_11char_traitsIcEENS0_IcEEEEE8max_sizeB8ue170006Ev, symObjAddr: 0xD724, symBinAddr: 0x100011E1C, symSize: 0x18 }
  - { offsetInCU: 0x34CC7, offset: 0x34CC7, size: 0x8, addend: 0x0, symName: __ZNKSt3__117__compressed_pairIPNS_12basic_stringIcNS_11char_traitsIcEENS_9allocatorIcEEEENS4_IS6_EEE6secondB8ue170006Ev, symObjAddr: 0xD73C, symBinAddr: 0x100011E34, symSize: 0x24 }
  - { offsetInCU: 0x34CED, offset: 0x34CED, size: 0x8, addend: 0x0, symName: __ZNKSt3__122__compressed_pair_elemINS_9allocatorINS_12basic_stringIcNS_11char_traitsIcEENS1_IcEEEEEELi1ELb1EE5__getB8ue170006Ev, symObjAddr: 0xD760, symBinAddr: 0x100011E58, symSize: 0x14 }
  - { offsetInCU: 0x34D13, offset: 0x34D13, size: 0x8, addend: 0x0, symName: __ZNSt3__123__libcpp_numeric_limitsIlLb1EE3maxB8ue170006Ev, symObjAddr: 0xD774, symBinAddr: 0x100011E6C, symSize: 0x8 }
  - { offsetInCU: 0x34D27, offset: 0x34D27, size: 0x8, addend: 0x0, symName: __ZNSt12length_errorC1B8ue170006EPKc, symObjAddr: 0xD7E0, symBinAddr: 0x100011ED8, symSize: 0x34 }
  - { offsetInCU: 0x34D5F, offset: 0x34D5F, size: 0x8, addend: 0x0, symName: __ZNSt12length_errorC2B8ue170006EPKc, symObjAddr: 0xD814, symBinAddr: 0x100011F0C, symSize: 0x4C }
  - { offsetInCU: 0x34D97, offset: 0x34D97, size: 0x8, addend: 0x0, symName: __ZNKSt3__16vectorINS_12basic_stringIcNS_11char_traitsIcEENS_9allocatorIcEEEENS4_IS6_EEE9__end_capB8ue170006Ev, symObjAddr: 0xD860, symBinAddr: 0x100011F58, symSize: 0x28 }
  - { offsetInCU: 0x34DBD, offset: 0x34DBD, size: 0x8, addend: 0x0, symName: __ZNKSt3__117__compressed_pairIPNS_12basic_stringIcNS_11char_traitsIcEENS_9allocatorIcEEEENS4_IS6_EEE5firstB8ue170006Ev, symObjAddr: 0xD888, symBinAddr: 0x100011F80, symSize: 0x24 }
  - { offsetInCU: 0x34DE3, offset: 0x34DE3, size: 0x8, addend: 0x0, symName: __ZNKSt3__122__compressed_pair_elemIPNS_12basic_stringIcNS_11char_traitsIcEENS_9allocatorIcEEEELi0ELb0EE5__getB8ue170006Ev, symObjAddr: 0xD8AC, symBinAddr: 0x100011FA4, symSize: 0x14 }
  - { offsetInCU: 0x34E09, offset: 0x34E09, size: 0x8, addend: 0x0, symName: __ZNSt3__114__split_bufferINS_12basic_stringIcNS_11char_traitsIcEENS_9allocatorIcEEEERNS4_IS6_EEEC2EmmS8_, symObjAddr: 0xD914, symBinAddr: 0x10001200C, symSize: 0xE0 }
  - { offsetInCU: 0x34E7C, offset: 0x34E7C, size: 0x8, addend: 0x0, symName: __ZNSt3__117__compressed_pairIPNS_12basic_stringIcNS_11char_traitsIcEENS_9allocatorIcEEEERNS4_IS6_EEEC1B8ue170006IDnS9_EEOT_OT0_, symObjAddr: 0xD9F4, symBinAddr: 0x1000120EC, symSize: 0x3C }
  - { offsetInCU: 0x34ED4, offset: 0x34ED4, size: 0x8, addend: 0x0, symName: __ZNSt3__114__split_bufferINS_12basic_stringIcNS_11char_traitsIcEENS_9allocatorIcEEEERNS4_IS6_EEE7__allocB8ue170006Ev, symObjAddr: 0xDA70, symBinAddr: 0x100012168, symSize: 0x28 }
  - { offsetInCU: 0x34EFA, offset: 0x34EFA, size: 0x8, addend: 0x0, symName: __ZNSt3__114__split_bufferINS_12basic_stringIcNS_11char_traitsIcEENS_9allocatorIcEEEERNS4_IS6_EEE9__end_capB8ue170006Ev, symObjAddr: 0xDA98, symBinAddr: 0x100012190, symSize: 0x28 }
  - { offsetInCU: 0x34F20, offset: 0x34F20, size: 0x8, addend: 0x0, symName: __ZNSt3__117__compressed_pairIPNS_12basic_stringIcNS_11char_traitsIcEENS_9allocatorIcEEEERNS4_IS6_EEEC2B8ue170006IDnS9_EEOT_OT0_, symObjAddr: 0xDAC0, symBinAddr: 0x1000121B8, symSize: 0x48 }
  - { offsetInCU: 0x34F78, offset: 0x34F78, size: 0x8, addend: 0x0, symName: __ZNSt3__122__compressed_pair_elemIPNS_12basic_stringIcNS_11char_traitsIcEENS_9allocatorIcEEEELi0ELb0EEC2B8ue170006IDnvEEOT_, symObjAddr: 0xDB08, symBinAddr: 0x100012200, symSize: 0x1C }
  - { offsetInCU: 0x34FBA, offset: 0x34FBA, size: 0x8, addend: 0x0, symName: __ZNSt3__122__compressed_pair_elemIRNS_9allocatorINS_12basic_stringIcNS_11char_traitsIcEENS1_IcEEEEEELi1ELb0EEC2B8ue170006IS8_vEEOT_, symObjAddr: 0xDB24, symBinAddr: 0x10001221C, symSize: 0x20 }
  - { offsetInCU: 0x34FFC, offset: 0x34FFC, size: 0x8, addend: 0x0, symName: __ZNSt3__19allocatorINS_12basic_stringIcNS_11char_traitsIcEENS0_IcEEEEE8allocateB8ue170006Em, symObjAddr: 0xDB44, symBinAddr: 0x10001223C, symSize: 0x5C }
  - { offsetInCU: 0x35030, offset: 0x35030, size: 0x8, addend: 0x0, symName: __ZNSt3__117__compressed_pairIPNS_12basic_stringIcNS_11char_traitsIcEENS_9allocatorIcEEEERNS4_IS6_EEE6secondB8ue170006Ev, symObjAddr: 0xDBA0, symBinAddr: 0x100012298, symSize: 0x28 }
  - { offsetInCU: 0x35056, offset: 0x35056, size: 0x8, addend: 0x0, symName: __ZNSt3__122__compressed_pair_elemIRNS_9allocatorINS_12basic_stringIcNS_11char_traitsIcEENS1_IcEEEEEELi1ELb0EE5__getB8ue170006Ev, symObjAddr: 0xDBC8, symBinAddr: 0x1000122C0, symSize: 0x18 }
  - { offsetInCU: 0x3507C, offset: 0x3507C, size: 0x8, addend: 0x0, symName: __ZNSt3__117__compressed_pairIPNS_12basic_stringIcNS_11char_traitsIcEENS_9allocatorIcEEEERNS4_IS6_EEE5firstB8ue170006Ev, symObjAddr: 0xDBE0, symBinAddr: 0x1000122D8, symSize: 0x24 }
  - { offsetInCU: 0x350A2, offset: 0x350A2, size: 0x8, addend: 0x0, symName: __ZNKSt3__16vectorINS_12basic_stringIcNS_11char_traitsIcEENS_9allocatorIcEEEENS4_IS6_EEE17__annotate_deleteB8ue170006Ev, symObjAddr: 0xDC04, symBinAddr: 0x1000122FC, symSize: 0xD4 }
  - { offsetInCU: 0x350C8, offset: 0x350C8, size: 0x8, addend: 0x0, symName: __ZNSt3__116reverse_iteratorIPNS_12basic_stringIcNS_11char_traitsIcEENS_9allocatorIcEEEEEC1B8ue170006ES7_, symObjAddr: 0xDE04, symBinAddr: 0x1000124FC, symSize: 0x34 }
  - { offsetInCU: 0x35100, offset: 0x35100, size: 0x8, addend: 0x0, symName: __ZNKSt3__116reverse_iteratorIPNS_12basic_stringIcNS_11char_traitsIcEENS_9allocatorIcEEEEE4baseB8ue170006Ev, symObjAddr: 0xDE38, symBinAddr: 0x100012530, symSize: 0x18 }
  - { offsetInCU: 0x35126, offset: 0x35126, size: 0x8, addend: 0x0, symName: __ZNKSt3__16vectorINS_12basic_stringIcNS_11char_traitsIcEENS_9allocatorIcEEEENS4_IS6_EEE14__annotate_newB8ue170006Em, symObjAddr: 0xDE8C, symBinAddr: 0x100012584, symSize: 0xC8 }
  - { offsetInCU: 0x3515B, offset: 0x3515B, size: 0x8, addend: 0x0, symName: __ZNKSt3__16vectorINS_12basic_stringIcNS_11char_traitsIcEENS_9allocatorIcEEEENS4_IS6_EEE31__annotate_contiguous_containerB8ue170006EPKvSA_SA_SA_, symObjAddr: 0xDF54, symBinAddr: 0x10001264C, symSize: 0x20 }
  - { offsetInCU: 0x351B1, offset: 0x351B1, size: 0x8, addend: 0x0, symName: __ZNKSt3__16vectorINS_12basic_stringIcNS_11char_traitsIcEENS_9allocatorIcEEEENS4_IS6_EEE4dataB8ue170006Ev, symObjAddr: 0xDF74, symBinAddr: 0x10001266C, symSize: 0x28 }
  - { offsetInCU: 0x351D7, offset: 0x351D7, size: 0x8, addend: 0x0, symName: __ZNSt3__129_AllocatorDestroyRangeReverseINS_9allocatorINS_12basic_stringIcNS_11char_traitsIcEENS1_IcEEEEEENS_16reverse_iteratorIPS6_EEEC1B8ue170006ERS7_RSA_SD_, symObjAddr: 0xDFE8, symBinAddr: 0x1000126E0, symSize: 0x44 }
  - { offsetInCU: 0x35233, offset: 0x35233, size: 0x8, addend: 0x0, symName: __ZNSt3__116allocator_traitsINS_9allocatorINS_12basic_stringIcNS_11char_traitsIcEENS1_IcEEEEEEE9constructB8ue170006IS6_JS6_EvEEvRS7_PT_DpOT0_, symObjAddr: 0xE074, symBinAddr: 0x10001276C, symSize: 0x34 }
  - { offsetInCU: 0x3528A, offset: 0x3528A, size: 0x8, addend: 0x0, symName: __ZNKSt3__116reverse_iteratorIPNS_12basic_stringIcNS_11char_traitsIcEENS_9allocatorIcEEEEEdeB8ue170006Ev, symObjAddr: 0xE0CC, symBinAddr: 0x1000127C4, symSize: 0x28 }
  - { offsetInCU: 0x352BE, offset: 0x352BE, size: 0x8, addend: 0x0, symName: __ZNSt3__116reverse_iteratorIPNS_12basic_stringIcNS_11char_traitsIcEENS_9allocatorIcEEEEEppB8ue170006Ev, symObjAddr: 0xE0F4, symBinAddr: 0x1000127EC, symSize: 0x20 }
  - { offsetInCU: 0x352E4, offset: 0x352E4, size: 0x8, addend: 0x0, symName: __ZNSt3__128__exception_guard_exceptionsINS_29_AllocatorDestroyRangeReverseINS_9allocatorINS_12basic_stringIcNS_11char_traitsIcEENS2_IcEEEEEENS_16reverse_iteratorIPS7_EEEEE10__completeB8ue170006Ev, symObjAddr: 0xE114, symBinAddr: 0x10001280C, symSize: 0x1C }
  - { offsetInCU: 0x3530A, offset: 0x3530A, size: 0x8, addend: 0x0, symName: __ZNSt3__128__exception_guard_exceptionsINS_29_AllocatorDestroyRangeReverseINS_9allocatorINS_12basic_stringIcNS_11char_traitsIcEENS2_IcEEEEEENS_16reverse_iteratorIPS7_EEEEED1B8ue170006Ev, symObjAddr: 0xE130, symBinAddr: 0x100012828, symSize: 0x2C }
  - { offsetInCU: 0x35334, offset: 0x35334, size: 0x8, addend: 0x0, symName: __ZNSt3__128__exception_guard_exceptionsINS_29_AllocatorDestroyRangeReverseINS_9allocatorINS_12basic_stringIcNS_11char_traitsIcEENS2_IcEEEEEENS_16reverse_iteratorIPS7_EEEEEC1B8ue170006ESC_, symObjAddr: 0xE15C, symBinAddr: 0x100012854, symSize: 0x34 }
  - { offsetInCU: 0x3536D, offset: 0x3536D, size: 0x8, addend: 0x0, symName: __ZNSt3__128__exception_guard_exceptionsINS_29_AllocatorDestroyRangeReverseINS_9allocatorINS_12basic_stringIcNS_11char_traitsIcEENS2_IcEEEEEENS_16reverse_iteratorIPS7_EEEEEC2B8ue170006ESC_, symObjAddr: 0xE190, symBinAddr: 0x100012888, symSize: 0x30 }
  - { offsetInCU: 0x353A6, offset: 0x353A6, size: 0x8, addend: 0x0, symName: __ZNSt3__129_AllocatorDestroyRangeReverseINS_9allocatorINS_12basic_stringIcNS_11char_traitsIcEENS1_IcEEEEEENS_16reverse_iteratorIPS6_EEEC2B8ue170006ERS7_RSA_SD_, symObjAddr: 0xE1C0, symBinAddr: 0x1000128B8, symSize: 0x38 }
  - { offsetInCU: 0x353FD, offset: 0x353FD, size: 0x8, addend: 0x0, symName: __ZNSt3__19allocatorINS_12basic_stringIcNS_11char_traitsIcEENS0_IcEEEEE9constructB8ue170006IS5_JS5_EEEvPT_DpOT0_, symObjAddr: 0xE1F8, symBinAddr: 0x1000128F0, symSize: 0x30 }
  - { offsetInCU: 0x35458, offset: 0x35458, size: 0x8, addend: 0x0, symName: __ZNSt3__119__to_address_helperINS_16reverse_iteratorIPNS_12basic_stringIcNS_11char_traitsIcEENS_9allocatorIcEEEEEEvE6__callB8ue170006ERKS9_, symObjAddr: 0xE228, symBinAddr: 0x100012920, symSize: 0x38 }
  - { offsetInCU: 0x3547B, offset: 0x3547B, size: 0x8, addend: 0x0, symName: __ZNKSt3__116reverse_iteratorIPNS_12basic_stringIcNS_11char_traitsIcEENS_9allocatorIcEEEEEptB8ue170006Ev, symObjAddr: 0xE260, symBinAddr: 0x100012958, symSize: 0x24 }
  - { offsetInCU: 0x354A1, offset: 0x354A1, size: 0x8, addend: 0x0, symName: __ZNSt3__128__exception_guard_exceptionsINS_29_AllocatorDestroyRangeReverseINS_9allocatorINS_12basic_stringIcNS_11char_traitsIcEENS2_IcEEEEEENS_16reverse_iteratorIPS7_EEEEED2B8ue170006Ev, symObjAddr: 0xE284, symBinAddr: 0x10001297C, symSize: 0x50 }
  - { offsetInCU: 0x354CB, offset: 0x354CB, size: 0x8, addend: 0x0, symName: __ZNKSt3__129_AllocatorDestroyRangeReverseINS_9allocatorINS_12basic_stringIcNS_11char_traitsIcEENS1_IcEEEEEENS_16reverse_iteratorIPS6_EEEclB8ue170006Ev, symObjAddr: 0xE2D4, symBinAddr: 0x1000129CC, symSize: 0xB4 }
  - { offsetInCU: 0x354F2, offset: 0x354F2, size: 0x8, addend: 0x0, symName: __ZNSt3__116reverse_iteratorINS0_IPNS_12basic_stringIcNS_11char_traitsIcEENS_9allocatorIcEEEEEEEC1B8ue170006ES8_, symObjAddr: 0xE3F8, symBinAddr: 0x100012AF0, symSize: 0x3C }
  - { offsetInCU: 0x3552A, offset: 0x3552A, size: 0x8, addend: 0x0, symName: __ZNSt3__116allocator_traitsINS_9allocatorINS_12basic_stringIcNS_11char_traitsIcEENS1_IcEEEEEEE7destroyB8ue170006IS6_vEEvRS7_PT_, symObjAddr: 0xE494, symBinAddr: 0x100012B8C, symSize: 0x2C }
  - { offsetInCU: 0x35567, offset: 0x35567, size: 0x8, addend: 0x0, symName: __ZNSt3__116reverse_iteratorINS0_IPNS_12basic_stringIcNS_11char_traitsIcEENS_9allocatorIcEEEEEEEppB8ue170006Ev, symObjAddr: 0xE4E4, symBinAddr: 0x100012BDC, symSize: 0x30 }
  - { offsetInCU: 0x3558D, offset: 0x3558D, size: 0x8, addend: 0x0, symName: __ZNKSt3__116reverse_iteratorINS0_IPNS_12basic_stringIcNS_11char_traitsIcEENS_9allocatorIcEEEEEEE4baseB8ue170006Ev, symObjAddr: 0xE514, symBinAddr: 0x100012C0C, symSize: 0x24 }
  - { offsetInCU: 0x355B3, offset: 0x355B3, size: 0x8, addend: 0x0, symName: __ZNSt3__19allocatorINS_12basic_stringIcNS_11char_traitsIcEENS0_IcEEEEE7destroyB8ue170006EPS5_, symObjAddr: 0xE538, symBinAddr: 0x100012C30, symSize: 0x28 }
  - { offsetInCU: 0x355EC, offset: 0x355EC, size: 0x8, addend: 0x0, symName: __ZNSt3__119__to_address_helperINS_16reverse_iteratorINS1_IPNS_12basic_stringIcNS_11char_traitsIcEENS_9allocatorIcEEEEEEEEvE6__callB8ue170006ERKSA_, symObjAddr: 0xE560, symBinAddr: 0x100012C58, symSize: 0x38 }
  - { offsetInCU: 0x3560F, offset: 0x3560F, size: 0x8, addend: 0x0, symName: __ZNKSt3__116reverse_iteratorINS0_IPNS_12basic_stringIcNS_11char_traitsIcEENS_9allocatorIcEEEEEEEptB8ue170006Ev, symObjAddr: 0xE598, symBinAddr: 0x100012C90, symSize: 0x24 }
  - { offsetInCU: 0x35635, offset: 0x35635, size: 0x8, addend: 0x0, symName: __ZNKSt3__116reverse_iteratorINS0_IPNS_12basic_stringIcNS_11char_traitsIcEENS_9allocatorIcEEEEEEEdeB8ue170006Ev, symObjAddr: 0xE5BC, symBinAddr: 0x100012CB4, symSize: 0x34 }
  - { offsetInCU: 0x35669, offset: 0x35669, size: 0x8, addend: 0x0, symName: __ZNSt3__116reverse_iteratorIPNS_12basic_stringIcNS_11char_traitsIcEENS_9allocatorIcEEEEEmmB8ue170006Ev, symObjAddr: 0xE5F0, symBinAddr: 0x100012CE8, symSize: 0x20 }
  - { offsetInCU: 0x3568F, offset: 0x3568F, size: 0x8, addend: 0x0, symName: __ZNSt3__116reverse_iteratorINS0_IPNS_12basic_stringIcNS_11char_traitsIcEENS_9allocatorIcEEEEEEEC2B8ue170006ES8_, symObjAddr: 0xE610, symBinAddr: 0x100012D08, symSize: 0x2C }
  - { offsetInCU: 0x356C7, offset: 0x356C7, size: 0x8, addend: 0x0, symName: __ZNSt3__116reverse_iteratorIPNS_12basic_stringIcNS_11char_traitsIcEENS_9allocatorIcEEEEEC2B8ue170006ES7_, symObjAddr: 0xE63C, symBinAddr: 0x100012D34, symSize: 0x28 }
  - { offsetInCU: 0x356FF, offset: 0x356FF, size: 0x8, addend: 0x0, symName: __ZNSt3__114__split_bufferINS_12basic_stringIcNS_11char_traitsIcEENS_9allocatorIcEEEERNS4_IS6_EEED2Ev, symObjAddr: 0xE664, symBinAddr: 0x100012D5C, symSize: 0x8C }
  - { offsetInCU: 0x3572B, offset: 0x3572B, size: 0x8, addend: 0x0, symName: __ZNSt3__114__split_bufferINS_12basic_stringIcNS_11char_traitsIcEENS_9allocatorIcEEEERNS4_IS6_EEE5clearB8ue170006Ev, symObjAddr: 0xE6F0, symBinAddr: 0x100012DE8, symSize: 0x28 }
  - { offsetInCU: 0x35751, offset: 0x35751, size: 0x8, addend: 0x0, symName: __ZNSt3__116allocator_traitsINS_9allocatorINS_12basic_stringIcNS_11char_traitsIcEENS1_IcEEEEEEE10deallocateB8ue170006ERS7_PS6_m, symObjAddr: 0xE718, symBinAddr: 0x100012E10, symSize: 0x34 }
  - { offsetInCU: 0x35793, offset: 0x35793, size: 0x8, addend: 0x0, symName: __ZNKSt3__114__split_bufferINS_12basic_stringIcNS_11char_traitsIcEENS_9allocatorIcEEEERNS4_IS6_EEE8capacityB8ue170006Ev, symObjAddr: 0xE74C, symBinAddr: 0x100012E44, symSize: 0x40 }
  - { offsetInCU: 0x357B9, offset: 0x357B9, size: 0x8, addend: 0x0, symName: __ZNSt3__114__split_bufferINS_12basic_stringIcNS_11char_traitsIcEENS_9allocatorIcEEEERNS4_IS6_EEE17__destruct_at_endB8ue170006EPS6_, symObjAddr: 0xE78C, symBinAddr: 0x100012E84, symSize: 0x2C }
  - { offsetInCU: 0x357ED, offset: 0x357ED, size: 0x8, addend: 0x0, symName: __ZNSt3__114__split_bufferINS_12basic_stringIcNS_11char_traitsIcEENS_9allocatorIcEEEERNS4_IS6_EEE17__destruct_at_endB8ue170006EPS6_NS_17integral_constantIbLb0EEE, symObjAddr: 0xE7B8, symBinAddr: 0x100012EB0, symSize: 0x80 }
  - { offsetInCU: 0x3582D, offset: 0x3582D, size: 0x8, addend: 0x0, symName: __ZNSt3__19allocatorINS_12basic_stringIcNS_11char_traitsIcEENS0_IcEEEEE10deallocateB8ue170006EPS5_m, symObjAddr: 0xE838, symBinAddr: 0x100012F30, symSize: 0x44 }
  - { offsetInCU: 0x3586F, offset: 0x3586F, size: 0x8, addend: 0x0, symName: __ZNKSt3__114__split_bufferINS_12basic_stringIcNS_11char_traitsIcEENS_9allocatorIcEEEERNS4_IS6_EEE9__end_capB8ue170006Ev, symObjAddr: 0xE87C, symBinAddr: 0x100012F74, symSize: 0x28 }
  - { offsetInCU: 0x35895, offset: 0x35895, size: 0x8, addend: 0x0, symName: __ZNKSt3__117__compressed_pairIPNS_12basic_stringIcNS_11char_traitsIcEENS_9allocatorIcEEEERNS4_IS6_EEE5firstB8ue170006Ev, symObjAddr: 0xE8A4, symBinAddr: 0x100012F9C, symSize: 0x24 }
  - { offsetInCU: 0x358BB, offset: 0x358BB, size: 0x8, addend: 0x0, symName: __ZNSt3__16vectorINS_12basic_stringIcNS_11char_traitsIcEENS_9allocatorIcEEEENS4_IS6_EEEC2B8ue170006ESt16initializer_listIS6_E, symObjAddr: 0xE948, symBinAddr: 0x100013040, symSize: 0x120 }
  - { offsetInCU: 0x3590B, offset: 0x3590B, size: 0x8, addend: 0x0, symName: __ZNSt3__117__compressed_pairIPNS_12basic_stringIcNS_11char_traitsIcEENS_9allocatorIcEEEENS4_IS6_EEEC1B8ue170006IDnNS_18__default_init_tagEEEOT_OT0_, symObjAddr: 0xEA68, symBinAddr: 0x100013160, symSize: 0x3C }
  - { offsetInCU: 0x35963, offset: 0x35963, size: 0x8, addend: 0x0, symName: __ZNSt3__16vectorINS_12basic_stringIcNS_11char_traitsIcEENS_9allocatorIcEEEENS4_IS6_EEE16__destroy_vectorC1B8ue170006ERS8_, symObjAddr: 0xEAE4, symBinAddr: 0x1000131DC, symSize: 0x34 }
  - { offsetInCU: 0x3599C, offset: 0x3599C, size: 0x8, addend: 0x0, symName: __ZNKSt16initializer_listINSt3__112basic_stringIcNS0_11char_traitsIcEENS0_9allocatorIcEEEEE4sizeB8ue170006Ev, symObjAddr: 0xEB18, symBinAddr: 0x100013210, symSize: 0x18 }
  - { offsetInCU: 0x359C2, offset: 0x359C2, size: 0x8, addend: 0x0, symName: __ZNSt3__16vectorINS_12basic_stringIcNS_11char_traitsIcEENS_9allocatorIcEEEENS4_IS6_EEE11__vallocateB8ue170006Em, symObjAddr: 0xEB30, symBinAddr: 0x100013228, symSize: 0xB4 }
  - { offsetInCU: 0x35A06, offset: 0x35A06, size: 0x8, addend: 0x0, symName: __ZNSt3__16vectorINS_12basic_stringIcNS_11char_traitsIcEENS_9allocatorIcEEEENS4_IS6_EEE18__construct_at_endIPKS6_SB_EEvT_T0_m, symObjAddr: 0xEBE4, symBinAddr: 0x1000132DC, symSize: 0x8C }
  - { offsetInCU: 0x35A7C, offset: 0x35A7C, size: 0x8, addend: 0x0, symName: __ZNKSt16initializer_listINSt3__112basic_stringIcNS0_11char_traitsIcEENS0_9allocatorIcEEEEE5beginB8ue170006Ev, symObjAddr: 0xEC70, symBinAddr: 0x100013368, symSize: 0x18 }
  - { offsetInCU: 0x35AA2, offset: 0x35AA2, size: 0x8, addend: 0x0, symName: __ZNKSt16initializer_listINSt3__112basic_stringIcNS0_11char_traitsIcEENS0_9allocatorIcEEEEE3endB8ue170006Ev, symObjAddr: 0xEC88, symBinAddr: 0x100013380, symSize: 0x28 }
  - { offsetInCU: 0x35AC8, offset: 0x35AC8, size: 0x8, addend: 0x0, symName: __ZNSt3__128__exception_guard_exceptionsINS_6vectorINS_12basic_stringIcNS_11char_traitsIcEENS_9allocatorIcEEEENS5_IS7_EEE16__destroy_vectorEE10__completeB8ue170006Ev, symObjAddr: 0xECB0, symBinAddr: 0x1000133A8, symSize: 0x1C }
  - { offsetInCU: 0x35AEE, offset: 0x35AEE, size: 0x8, addend: 0x0, symName: __ZNSt3__128__exception_guard_exceptionsINS_6vectorINS_12basic_stringIcNS_11char_traitsIcEENS_9allocatorIcEEEENS5_IS7_EEE16__destroy_vectorEED1B8ue170006Ev, symObjAddr: 0xECCC, symBinAddr: 0x1000133C4, symSize: 0x2C }
  - { offsetInCU: 0x35B18, offset: 0x35B18, size: 0x8, addend: 0x0, symName: __ZNSt3__117__compressed_pairIPNS_12basic_stringIcNS_11char_traitsIcEENS_9allocatorIcEEEENS4_IS6_EEEC2B8ue170006IDnNS_18__default_init_tagEEEOT_OT0_, symObjAddr: 0xECF8, symBinAddr: 0x1000133F0, symSize: 0x40 }
  - { offsetInCU: 0x35B70, offset: 0x35B70, size: 0x8, addend: 0x0, symName: __ZNSt3__122__compressed_pair_elemINS_9allocatorINS_12basic_stringIcNS_11char_traitsIcEENS1_IcEEEEEELi1ELb1EEC2B8ue170006ENS_18__default_init_tagE, symObjAddr: 0xED38, symBinAddr: 0x100013430, symSize: 0x2C }
  - { offsetInCU: 0x35BA4, offset: 0x35BA4, size: 0x8, addend: 0x0, symName: __ZNSt3__19allocatorINS_12basic_stringIcNS_11char_traitsIcEENS0_IcEEEEEC2B8ue170006Ev, symObjAddr: 0xED64, symBinAddr: 0x10001345C, symSize: 0x2C }
  - { offsetInCU: 0x35BCE, offset: 0x35BCE, size: 0x8, addend: 0x0, symName: __ZNSt3__116__non_trivial_ifILb1ENS_9allocatorINS_12basic_stringIcNS_11char_traitsIcEENS1_IcEEEEEEEC2B8ue170006Ev, symObjAddr: 0xED90, symBinAddr: 0x100013488, symSize: 0x14 }
  - { offsetInCU: 0x35BF8, offset: 0x35BF8, size: 0x8, addend: 0x0, symName: __ZNSt3__128__exception_guard_exceptionsINS_6vectorINS_12basic_stringIcNS_11char_traitsIcEENS_9allocatorIcEEEENS5_IS7_EEE16__destroy_vectorEEC1B8ue170006ESA_, symObjAddr: 0xEDA4, symBinAddr: 0x10001349C, symSize: 0x34 }
  - { offsetInCU: 0x35C30, offset: 0x35C30, size: 0x8, addend: 0x0, symName: __ZNSt3__128__exception_guard_exceptionsINS_6vectorINS_12basic_stringIcNS_11char_traitsIcEENS_9allocatorIcEEEENS5_IS7_EEE16__destroy_vectorEEC2B8ue170006ESA_, symObjAddr: 0xEDD8, symBinAddr: 0x1000134D0, symSize: 0x24 }
  - { offsetInCU: 0x35C68, offset: 0x35C68, size: 0x8, addend: 0x0, symName: __ZNSt3__16vectorINS_12basic_stringIcNS_11char_traitsIcEENS_9allocatorIcEEEENS4_IS6_EEE16__destroy_vectorC2B8ue170006ERS8_, symObjAddr: 0xEDFC, symBinAddr: 0x1000134F4, symSize: 0x20 }
  - { offsetInCU: 0x35CBF, offset: 0x35CBF, size: 0x8, addend: 0x0, symName: __ZNSt3__14pairIPKNS_12basic_stringIcNS_11char_traitsIcEENS_9allocatorIcEEEES8_EC1B8ue170006IS8_S8_LPv0EEEOT_OT0_, symObjAddr: 0xF0AC, symBinAddr: 0x1000137A4, symSize: 0x3C }
  - { offsetInCU: 0x35D1D, offset: 0x35D1D, size: 0x8, addend: 0x0, symName: __ZNSt3__14pairIPKNS_12basic_stringIcNS_11char_traitsIcEENS_9allocatorIcEEEES8_EC2B8ue170006IS8_S8_LPv0EEEOT_OT0_, symObjAddr: 0xF0E8, symBinAddr: 0x1000137E0, symSize: 0x34 }
  - { offsetInCU: 0x35D7B, offset: 0x35D7B, size: 0x8, addend: 0x0, symName: __ZNSt3__118__unwrap_iter_implIPKNS_12basic_stringIcNS_11char_traitsIcEENS_9allocatorIcEEEELb1EE8__unwrapB8ue170006ES8_, symObjAddr: 0xF11C, symBinAddr: 0x100013814, symSize: 0x24 }
  - { offsetInCU: 0x35D9E, offset: 0x35D9E, size: 0x8, addend: 0x0, symName: __ZNSt3__129_AllocatorDestroyRangeReverseINS_9allocatorINS_12basic_stringIcNS_11char_traitsIcEENS1_IcEEEEEEPS6_EC1B8ue170006ERS7_RS8_SB_, symObjAddr: 0xF1A0, symBinAddr: 0x100013898, symSize: 0x44 }
  - { offsetInCU: 0x35DF5, offset: 0x35DF5, size: 0x8, addend: 0x0, symName: __ZNSt3__128__exception_guard_exceptionsINS_29_AllocatorDestroyRangeReverseINS_9allocatorINS_12basic_stringIcNS_11char_traitsIcEENS2_IcEEEEEEPS7_EEE10__completeB8ue170006Ev, symObjAddr: 0xF1E4, symBinAddr: 0x1000138DC, symSize: 0x1C }
  - { offsetInCU: 0x35E1B, offset: 0x35E1B, size: 0x8, addend: 0x0, symName: __ZNSt3__128__exception_guard_exceptionsINS_29_AllocatorDestroyRangeReverseINS_9allocatorINS_12basic_stringIcNS_11char_traitsIcEENS2_IcEEEEEEPS7_EEED1B8ue170006Ev, symObjAddr: 0xF200, symBinAddr: 0x1000138F8, symSize: 0x2C }
  - { offsetInCU: 0x35E45, offset: 0x35E45, size: 0x8, addend: 0x0, symName: __ZNSt3__128__exception_guard_exceptionsINS_29_AllocatorDestroyRangeReverseINS_9allocatorINS_12basic_stringIcNS_11char_traitsIcEENS2_IcEEEEEEPS7_EEEC1B8ue170006ESA_, symObjAddr: 0xF22C, symBinAddr: 0x100013924, symSize: 0x34 }
  - { offsetInCU: 0x35E7E, offset: 0x35E7E, size: 0x8, addend: 0x0, symName: __ZNSt3__128__exception_guard_exceptionsINS_29_AllocatorDestroyRangeReverseINS_9allocatorINS_12basic_stringIcNS_11char_traitsIcEENS2_IcEEEEEEPS7_EEEC2B8ue170006ESA_, symObjAddr: 0xF260, symBinAddr: 0x100013958, symSize: 0x30 }
  - { offsetInCU: 0x35EB7, offset: 0x35EB7, size: 0x8, addend: 0x0, symName: __ZNSt3__129_AllocatorDestroyRangeReverseINS_9allocatorINS_12basic_stringIcNS_11char_traitsIcEENS1_IcEEEEEEPS6_EC2B8ue170006ERS7_RS8_SB_, symObjAddr: 0xF290, symBinAddr: 0x100013988, symSize: 0x38 }
  - { offsetInCU: 0x35F0E, offset: 0x35F0E, size: 0x8, addend: 0x0, symName: __ZNSt3__128__exception_guard_exceptionsINS_29_AllocatorDestroyRangeReverseINS_9allocatorINS_12basic_stringIcNS_11char_traitsIcEENS2_IcEEEEEEPS7_EEED2B8ue170006Ev, symObjAddr: 0xF2C8, symBinAddr: 0x1000139C0, symSize: 0x50 }
  - { offsetInCU: 0x35F38, offset: 0x35F38, size: 0x8, addend: 0x0, symName: __ZNKSt3__129_AllocatorDestroyRangeReverseINS_9allocatorINS_12basic_stringIcNS_11char_traitsIcEENS1_IcEEEEEEPS6_EclB8ue170006Ev, symObjAddr: 0xF318, symBinAddr: 0x100013A10, symSize: 0x68 }
  - { offsetInCU: 0x35F5E, offset: 0x35F5E, size: 0x8, addend: 0x0, symName: __ZNSt3__118__unwrap_iter_implIPNS_12basic_stringIcNS_11char_traitsIcEENS_9allocatorIcEEEELb1EE8__unwrapB8ue170006ES7_, symObjAddr: 0xF3F0, symBinAddr: 0x100013AE8, symSize: 0x24 }
  - { offsetInCU: 0x35F81, offset: 0x35F81, size: 0x8, addend: 0x0, symName: __ZNSt3__118__unwrap_iter_implIPNS_12basic_stringIcNS_11char_traitsIcEENS_9allocatorIcEEEELb1EE8__rewrapB8ue170006ES7_S7_, symObjAddr: 0xF414, symBinAddr: 0x100013B0C, symSize: 0x58 }
  - { offsetInCU: 0x35FB2, offset: 0x35FB2, size: 0x8, addend: 0x0, symName: __ZNSt3__128__exception_guard_exceptionsINS_6vectorINS_12basic_stringIcNS_11char_traitsIcEENS_9allocatorIcEEEENS5_IS7_EEE16__destroy_vectorEED2B8ue170006Ev, symObjAddr: 0xF46C, symBinAddr: 0x100013B64, symSize: 0x50 }
  - { offsetInCU: 0x35FDC, offset: 0x35FDC, size: 0x8, addend: 0x0, symName: __ZNSt3__16vectorINS_12basic_stringIcNS_11char_traitsIcEENS_9allocatorIcEEEENS4_IS6_EEE16__destroy_vectorclB8ue170006Ev, symObjAddr: 0xF4BC, symBinAddr: 0x100013BB4, symSize: 0x90 }
  - { offsetInCU: 0x36002, offset: 0x36002, size: 0x8, addend: 0x0, symName: __ZNSt3__16vectorINS_12basic_stringIcNS_11char_traitsIcEENS_9allocatorIcEEEENS4_IS6_EEE7__clearB8ue170006Ev, symObjAddr: 0xF54C, symBinAddr: 0x100013C44, symSize: 0x28 }
  - { offsetInCU: 0x36028, offset: 0x36028, size: 0x8, addend: 0x0, symName: __ZNSt3__16vectorINS_12basic_stringIcNS_11char_traitsIcEENS_9allocatorIcEEEENS4_IS6_EEE22__base_destruct_at_endB8ue170006EPS6_, symObjAddr: 0xF574, symBinAddr: 0x100013C6C, symSize: 0x8C }
  - { offsetInCU: 0x3606C, offset: 0x3606C, size: 0x8, addend: 0x0, symName: __ZNSt3__16vectorINS_12basic_stringIcNS_11char_traitsIcEENS_9allocatorIcEEEENS4_IS6_EEED2B8ue170006Ev, symObjAddr: 0xF600, symBinAddr: 0x100013CF8, symSize: 0x40 }
  - { offsetInCU: 0x36096, offset: 0x36096, size: 0x8, addend: 0x0, symName: __ZNSt3__16vectorI8ResistorNS_9allocatorIS1_EEE9__end_capB8ue170006Ev, symObjAddr: 0xF640, symBinAddr: 0x100013D38, symSize: 0x28 }
  - { offsetInCU: 0x360C1, offset: 0x360C1, size: 0x8, addend: 0x0, symName: __ZNSt3__16vectorI8ResistorNS_9allocatorIS1_EEE22__construct_one_at_endB8ue170006IJS1_EEEvDpOT_, symObjAddr: 0xF668, symBinAddr: 0x100013D60, symSize: 0x90 }
  - { offsetInCU: 0x36110, offset: 0x36110, size: 0x8, addend: 0x0, symName: __ZNSt3__16vectorI8ResistorNS_9allocatorIS1_EEE21__push_back_slow_pathIS1_EEvOT_, symObjAddr: 0xF6F8, symBinAddr: 0x100013DF0, symSize: 0xD8 }
  - { offsetInCU: 0x3616E, offset: 0x3616E, size: 0x8, addend: 0x0, symName: __ZNSt3__117__compressed_pairIP8ResistorNS_9allocatorIS1_EEE5firstB8ue170006Ev, symObjAddr: 0xF7D0, symBinAddr: 0x100013EC8, symSize: 0x24 }
  - { offsetInCU: 0x36194, offset: 0x36194, size: 0x8, addend: 0x0, symName: __ZNSt3__122__compressed_pair_elemIP8ResistorLi0ELb0EE5__getB8ue170006Ev, symObjAddr: 0xF7F4, symBinAddr: 0x100013EEC, symSize: 0x14 }
  - { offsetInCU: 0x361D3, offset: 0x361D3, size: 0x8, addend: 0x0, symName: __ZNSt3__16vectorI8ResistorNS_9allocatorIS1_EEE21_ConstructTransactionC1B8ue170006ERS4_m, symObjAddr: 0xF808, symBinAddr: 0x100013F00, symSize: 0x3C }
  - { offsetInCU: 0x3621B, offset: 0x3621B, size: 0x8, addend: 0x0, symName: __ZNSt3__116allocator_traitsINS_9allocatorI8ResistorEEE9constructB8ue170006IS2_JS2_EvEEvRS3_PT_DpOT0_, symObjAddr: 0xF844, symBinAddr: 0x100013F3C, symSize: 0x34 }
  - { offsetInCU: 0x36272, offset: 0x36272, size: 0x8, addend: 0x0, symName: __ZNSt3__16vectorI8ResistorNS_9allocatorIS1_EEE7__allocB8ue170006Ev, symObjAddr: 0xF878, symBinAddr: 0x100013F70, symSize: 0x28 }
  - { offsetInCU: 0x36298, offset: 0x36298, size: 0x8, addend: 0x0, symName: __ZNSt3__16vectorI8ResistorNS_9allocatorIS1_EEE21_ConstructTransactionD1B8ue170006Ev, symObjAddr: 0xF8B4, symBinAddr: 0x100013FAC, symSize: 0x2C }
  - { offsetInCU: 0x362C2, offset: 0x362C2, size: 0x8, addend: 0x0, symName: __ZNSt3__16vectorI8ResistorNS_9allocatorIS1_EEE21_ConstructTransactionC2B8ue170006ERS4_m, symObjAddr: 0xF8E0, symBinAddr: 0x100013FD8, symSize: 0x4C }
  - { offsetInCU: 0x3630A, offset: 0x3630A, size: 0x8, addend: 0x0, symName: __ZNSt3__19allocatorI8ResistorE9constructB8ue170006IS1_JS1_EEEvPT_DpOT0_, symObjAddr: 0xF92C, symBinAddr: 0x100014024, symSize: 0x30 }
  - { offsetInCU: 0x36360, offset: 0x36360, size: 0x8, addend: 0x0, symName: __ZN8ResistorC1EOS_, symObjAddr: 0xF95C, symBinAddr: 0x100014054, symSize: 0x34 }
  - { offsetInCU: 0x36395, offset: 0x36395, size: 0x8, addend: 0x0, symName: __ZN8ResistorC2EOS_, symObjAddr: 0xF990, symBinAddr: 0x100014088, symSize: 0x64 }
  - { offsetInCU: 0x363CA, offset: 0x363CA, size: 0x8, addend: 0x0, symName: __ZNSt3__16vectorINS_12basic_stringIcNS_11char_traitsIcEENS_9allocatorIcEEEENS4_IS6_EEEC1B8ue170006EOS8_, symObjAddr: 0xF9F4, symBinAddr: 0x1000140EC, symSize: 0x34 }
  - { offsetInCU: 0x36405, offset: 0x36405, size: 0x8, addend: 0x0, symName: __ZNSt3__16vectorINS_12basic_stringIcNS_11char_traitsIcEENS_9allocatorIcEEEENS4_IS6_EEEC2B8ue170006EOS8_, symObjAddr: 0xFA28, symBinAddr: 0x100014120, symSize: 0xC4 }
  - { offsetInCU: 0x36445, offset: 0x36445, size: 0x8, addend: 0x0, symName: __ZNSt3__117__compressed_pairIPNS_12basic_stringIcNS_11char_traitsIcEENS_9allocatorIcEEEENS4_IS6_EEEC1B8ue170006IDnS8_EEOT_OT0_, symObjAddr: 0xFAEC, symBinAddr: 0x1000141E4, symSize: 0x3C }
  - { offsetInCU: 0x3649D, offset: 0x3649D, size: 0x8, addend: 0x0, symName: __ZNSt3__117__compressed_pairIPNS_12basic_stringIcNS_11char_traitsIcEENS_9allocatorIcEEEENS4_IS6_EEEC2B8ue170006IDnS8_EEOT_OT0_, symObjAddr: 0xFB28, symBinAddr: 0x100014220, symSize: 0x44 }
  - { offsetInCU: 0x364F5, offset: 0x364F5, size: 0x8, addend: 0x0, symName: __ZNSt3__122__compressed_pair_elemINS_9allocatorINS_12basic_stringIcNS_11char_traitsIcEENS1_IcEEEEEELi1ELb1EEC2B8ue170006IS7_vEEOT_, symObjAddr: 0xFB6C, symBinAddr: 0x100014264, symSize: 0x18 }
  - { offsetInCU: 0x36537, offset: 0x36537, size: 0x8, addend: 0x0, symName: __ZNSt3__117__compressed_pairIP8ResistorNS_9allocatorIS1_EEE6secondB8ue170006Ev, symObjAddr: 0xFB84, symBinAddr: 0x10001427C, symSize: 0x24 }
  - { offsetInCU: 0x3655D, offset: 0x3655D, size: 0x8, addend: 0x0, symName: __ZNSt3__122__compressed_pair_elemINS_9allocatorI8ResistorEELi1ELb1EE5__getB8ue170006Ev, symObjAddr: 0xFBA8, symBinAddr: 0x1000142A0, symSize: 0x14 }
  - { offsetInCU: 0x36583, offset: 0x36583, size: 0x8, addend: 0x0, symName: __ZNSt3__16vectorI8ResistorNS_9allocatorIS1_EEE21_ConstructTransactionD2B8ue170006Ev, symObjAddr: 0xFBBC, symBinAddr: 0x1000142B4, symSize: 0x20 }
  - { offsetInCU: 0x365AD, offset: 0x365AD, size: 0x8, addend: 0x0, symName: __ZNKSt3__16vectorI8ResistorNS_9allocatorIS1_EEE11__recommendB8ue170006Em, symObjAddr: 0xFBDC, symBinAddr: 0x1000142D4, symSize: 0xB4 }
  - { offsetInCU: 0x36602, offset: 0x36602, size: 0x8, addend: 0x0, symName: __ZNKSt3__16vectorI8ResistorNS_9allocatorIS1_EEE4sizeB8ue170006Ev, symObjAddr: 0xFC90, symBinAddr: 0x100014388, symSize: 0x28 }
  - { offsetInCU: 0x36628, offset: 0x36628, size: 0x8, addend: 0x0, symName: __ZNSt3__114__split_bufferI8ResistorRNS_9allocatorIS1_EEEC1EmmS4_, symObjAddr: 0xFCB8, symBinAddr: 0x1000143B0, symSize: 0x44 }
  - { offsetInCU: 0x3667E, offset: 0x3667E, size: 0x8, addend: 0x0, symName: __ZNSt3__114__split_bufferI8ResistorRNS_9allocatorIS1_EEED1Ev, symObjAddr: 0xFE0C, symBinAddr: 0x100014504, symSize: 0x2C }
  - { offsetInCU: 0x366AA, offset: 0x366AA, size: 0x8, addend: 0x0, symName: __ZNKSt3__16vectorI8ResistorNS_9allocatorIS1_EEE8max_sizeEv, symObjAddr: 0xFE38, symBinAddr: 0x100014530, symSize: 0x60 }
  - { offsetInCU: 0x366D2, offset: 0x366D2, size: 0x8, addend: 0x0, symName: __ZNKSt3__16vectorI8ResistorNS_9allocatorIS1_EEE20__throw_length_errorB8ue170006Ev, symObjAddr: 0xFE98, symBinAddr: 0x100014590, symSize: 0x1C }
  - { offsetInCU: 0x366F8, offset: 0x366F8, size: 0x8, addend: 0x0, symName: __ZNKSt3__16vectorI8ResistorNS_9allocatorIS1_EEE8capacityB8ue170006Ev, symObjAddr: 0xFEB4, symBinAddr: 0x1000145AC, symSize: 0x40 }
  - { offsetInCU: 0x36728, offset: 0x36728, size: 0x8, addend: 0x0, symName: __ZNSt3__116allocator_traitsINS_9allocatorI8ResistorEEE8max_sizeB8ue170006IS3_vEEmRKS3_, symObjAddr: 0xFEF4, symBinAddr: 0x1000145EC, symSize: 0x24 }
  - { offsetInCU: 0x36756, offset: 0x36756, size: 0x8, addend: 0x0, symName: __ZNKSt3__16vectorI8ResistorNS_9allocatorIS1_EEE7__allocB8ue170006Ev, symObjAddr: 0xFF18, symBinAddr: 0x100014610, symSize: 0x28 }
  - { offsetInCU: 0x3677C, offset: 0x3677C, size: 0x8, addend: 0x0, symName: __ZNKSt3__19allocatorI8ResistorE8max_sizeB8ue170006Ev, symObjAddr: 0xFF40, symBinAddr: 0x100014638, symSize: 0x20 }
  - { offsetInCU: 0x367A2, offset: 0x367A2, size: 0x8, addend: 0x0, symName: __ZNKSt3__117__compressed_pairIP8ResistorNS_9allocatorIS1_EEE6secondB8ue170006Ev, symObjAddr: 0xFF60, symBinAddr: 0x100014658, symSize: 0x24 }
  - { offsetInCU: 0x367C8, offset: 0x367C8, size: 0x8, addend: 0x0, symName: __ZNKSt3__122__compressed_pair_elemINS_9allocatorI8ResistorEELi1ELb1EE5__getB8ue170006Ev, symObjAddr: 0xFF84, symBinAddr: 0x10001467C, symSize: 0x14 }
  - { offsetInCU: 0x367EE, offset: 0x367EE, size: 0x8, addend: 0x0, symName: __ZNKSt3__16vectorI8ResistorNS_9allocatorIS1_EEE9__end_capB8ue170006Ev, symObjAddr: 0xFF98, symBinAddr: 0x100014690, symSize: 0x28 }
  - { offsetInCU: 0x36814, offset: 0x36814, size: 0x8, addend: 0x0, symName: __ZNKSt3__117__compressed_pairIP8ResistorNS_9allocatorIS1_EEE5firstB8ue170006Ev, symObjAddr: 0xFFC0, symBinAddr: 0x1000146B8, symSize: 0x24 }
  - { offsetInCU: 0x3683A, offset: 0x3683A, size: 0x8, addend: 0x0, symName: __ZNKSt3__122__compressed_pair_elemIP8ResistorLi0ELb0EE5__getB8ue170006Ev, symObjAddr: 0xFFE4, symBinAddr: 0x1000146DC, symSize: 0x14 }
  - { offsetInCU: 0x36860, offset: 0x36860, size: 0x8, addend: 0x0, symName: __ZNSt3__114__split_bufferI8ResistorRNS_9allocatorIS1_EEEC2EmmS4_, symObjAddr: 0xFFF8, symBinAddr: 0x1000146F0, symSize: 0xE0 }
  - { offsetInCU: 0x368D3, offset: 0x368D3, size: 0x8, addend: 0x0, symName: __ZNSt3__117__compressed_pairIP8ResistorRNS_9allocatorIS1_EEEC1B8ue170006IDnS5_EEOT_OT0_, symObjAddr: 0x100D8, symBinAddr: 0x1000147D0, symSize: 0x3C }
  - { offsetInCU: 0x3692B, offset: 0x3692B, size: 0x8, addend: 0x0, symName: __ZNSt3__114__split_bufferI8ResistorRNS_9allocatorIS1_EEE7__allocB8ue170006Ev, symObjAddr: 0x10154, symBinAddr: 0x10001484C, symSize: 0x28 }
  - { offsetInCU: 0x36951, offset: 0x36951, size: 0x8, addend: 0x0, symName: __ZNSt3__114__split_bufferI8ResistorRNS_9allocatorIS1_EEE9__end_capB8ue170006Ev, symObjAddr: 0x1017C, symBinAddr: 0x100014874, symSize: 0x28 }
  - { offsetInCU: 0x36977, offset: 0x36977, size: 0x8, addend: 0x0, symName: __ZNSt3__117__compressed_pairIP8ResistorRNS_9allocatorIS1_EEEC2B8ue170006IDnS5_EEOT_OT0_, symObjAddr: 0x101A4, symBinAddr: 0x10001489C, symSize: 0x48 }
  - { offsetInCU: 0x369CF, offset: 0x369CF, size: 0x8, addend: 0x0, symName: __ZNSt3__122__compressed_pair_elemIP8ResistorLi0ELb0EEC2B8ue170006IDnvEEOT_, symObjAddr: 0x101EC, symBinAddr: 0x1000148E4, symSize: 0x1C }
  - { offsetInCU: 0x36A11, offset: 0x36A11, size: 0x8, addend: 0x0, symName: __ZNSt3__122__compressed_pair_elemIRNS_9allocatorI8ResistorEELi1ELb0EEC2B8ue170006IS4_vEEOT_, symObjAddr: 0x10208, symBinAddr: 0x100014900, symSize: 0x20 }
  - { offsetInCU: 0x36A53, offset: 0x36A53, size: 0x8, addend: 0x0, symName: __ZNSt3__19allocatorI8ResistorE8allocateB8ue170006Em, symObjAddr: 0x10228, symBinAddr: 0x100014920, symSize: 0x5C }
  - { offsetInCU: 0x36A87, offset: 0x36A87, size: 0x8, addend: 0x0, symName: __ZNSt3__117__compressed_pairIP8ResistorRNS_9allocatorIS1_EEE6secondB8ue170006Ev, symObjAddr: 0x10284, symBinAddr: 0x10001497C, symSize: 0x28 }
  - { offsetInCU: 0x36AAD, offset: 0x36AAD, size: 0x8, addend: 0x0, symName: __ZNSt3__122__compressed_pair_elemIRNS_9allocatorI8ResistorEELi1ELb0EE5__getB8ue170006Ev, symObjAddr: 0x102AC, symBinAddr: 0x1000149A4, symSize: 0x18 }
  - { offsetInCU: 0x36AD3, offset: 0x36AD3, size: 0x8, addend: 0x0, symName: __ZNSt3__117__compressed_pairIP8ResistorRNS_9allocatorIS1_EEE5firstB8ue170006Ev, symObjAddr: 0x102C4, symBinAddr: 0x1000149BC, symSize: 0x24 }
  - { offsetInCU: 0x36AF9, offset: 0x36AF9, size: 0x8, addend: 0x0, symName: __ZNKSt3__16vectorI8ResistorNS_9allocatorIS1_EEE17__annotate_deleteB8ue170006Ev, symObjAddr: 0x102E8, symBinAddr: 0x1000149E0, symSize: 0xD4 }
  - { offsetInCU: 0x36B1F, offset: 0x36B1F, size: 0x8, addend: 0x0, symName: __ZNSt3__116reverse_iteratorIP8ResistorEC1B8ue170006ES2_, symObjAddr: 0x104E8, symBinAddr: 0x100014BE0, symSize: 0x34 }
  - { offsetInCU: 0x36B57, offset: 0x36B57, size: 0x8, addend: 0x0, symName: __ZNKSt3__116reverse_iteratorIP8ResistorE4baseB8ue170006Ev, symObjAddr: 0x1051C, symBinAddr: 0x100014C14, symSize: 0x18 }
  - { offsetInCU: 0x36B7D, offset: 0x36B7D, size: 0x8, addend: 0x0, symName: __ZNKSt3__16vectorI8ResistorNS_9allocatorIS1_EEE14__annotate_newB8ue170006Em, symObjAddr: 0x10570, symBinAddr: 0x100014C68, symSize: 0xC8 }
  - { offsetInCU: 0x36BB2, offset: 0x36BB2, size: 0x8, addend: 0x0, symName: __ZNKSt3__16vectorI8ResistorNS_9allocatorIS1_EEE31__annotate_contiguous_containerB8ue170006EPKvS6_S6_S6_, symObjAddr: 0x10638, symBinAddr: 0x100014D30, symSize: 0x20 }
  - { offsetInCU: 0x36C08, offset: 0x36C08, size: 0x8, addend: 0x0, symName: __ZNKSt3__16vectorI8ResistorNS_9allocatorIS1_EEE4dataB8ue170006Ev, symObjAddr: 0x10658, symBinAddr: 0x100014D50, symSize: 0x28 }
  - { offsetInCU: 0x36C2E, offset: 0x36C2E, size: 0x8, addend: 0x0, symName: __ZNSt3__129_AllocatorDestroyRangeReverseINS_9allocatorI8ResistorEENS_16reverse_iteratorIPS2_EEEC1B8ue170006ERS3_RS6_S9_, symObjAddr: 0x106CC, symBinAddr: 0x100014DC4, symSize: 0x44 }
  - { offsetInCU: 0x36C85, offset: 0x36C85, size: 0x8, addend: 0x0, symName: __ZNKSt3__116reverse_iteratorIP8ResistorEdeB8ue170006Ev, symObjAddr: 0x1077C, symBinAddr: 0x100014E74, symSize: 0x28 }
  - { offsetInCU: 0x36CB9, offset: 0x36CB9, size: 0x8, addend: 0x0, symName: __ZNSt3__116reverse_iteratorIP8ResistorEppB8ue170006Ev, symObjAddr: 0x107A4, symBinAddr: 0x100014E9C, symSize: 0x20 }
  - { offsetInCU: 0x36CDF, offset: 0x36CDF, size: 0x8, addend: 0x0, symName: __ZNSt3__128__exception_guard_exceptionsINS_29_AllocatorDestroyRangeReverseINS_9allocatorI8ResistorEENS_16reverse_iteratorIPS3_EEEEE10__completeB8ue170006Ev, symObjAddr: 0x107C4, symBinAddr: 0x100014EBC, symSize: 0x1C }
  - { offsetInCU: 0x36D05, offset: 0x36D05, size: 0x8, addend: 0x0, symName: __ZNSt3__128__exception_guard_exceptionsINS_29_AllocatorDestroyRangeReverseINS_9allocatorI8ResistorEENS_16reverse_iteratorIPS3_EEEEED1B8ue170006Ev, symObjAddr: 0x107E0, symBinAddr: 0x100014ED8, symSize: 0x2C }
  - { offsetInCU: 0x36D2F, offset: 0x36D2F, size: 0x8, addend: 0x0, symName: __ZNSt3__128__exception_guard_exceptionsINS_29_AllocatorDestroyRangeReverseINS_9allocatorI8ResistorEENS_16reverse_iteratorIPS3_EEEEEC1B8ue170006ES8_, symObjAddr: 0x1080C, symBinAddr: 0x100014F04, symSize: 0x34 }
  - { offsetInCU: 0x36D68, offset: 0x36D68, size: 0x8, addend: 0x0, symName: __ZNSt3__128__exception_guard_exceptionsINS_29_AllocatorDestroyRangeReverseINS_9allocatorI8ResistorEENS_16reverse_iteratorIPS3_EEEEEC2B8ue170006ES8_, symObjAddr: 0x10840, symBinAddr: 0x100014F38, symSize: 0x30 }
  - { offsetInCU: 0x36DA1, offset: 0x36DA1, size: 0x8, addend: 0x0, symName: __ZNSt3__129_AllocatorDestroyRangeReverseINS_9allocatorI8ResistorEENS_16reverse_iteratorIPS2_EEEC2B8ue170006ERS3_RS6_S9_, symObjAddr: 0x10870, symBinAddr: 0x100014F68, symSize: 0x38 }
  - { offsetInCU: 0x36DFD, offset: 0x36DFD, size: 0x8, addend: 0x0, symName: __ZNSt3__119__to_address_helperINS_16reverse_iteratorIP8ResistorEEvE6__callB8ue170006ERKS4_, symObjAddr: 0x108A8, symBinAddr: 0x100014FA0, symSize: 0x38 }
  - { offsetInCU: 0x36E20, offset: 0x36E20, size: 0x8, addend: 0x0, symName: __ZNKSt3__116reverse_iteratorIP8ResistorEptB8ue170006Ev, symObjAddr: 0x108E0, symBinAddr: 0x100014FD8, symSize: 0x24 }
  - { offsetInCU: 0x36E46, offset: 0x36E46, size: 0x8, addend: 0x0, symName: __ZNSt3__128__exception_guard_exceptionsINS_29_AllocatorDestroyRangeReverseINS_9allocatorI8ResistorEENS_16reverse_iteratorIPS3_EEEEED2B8ue170006Ev, symObjAddr: 0x10904, symBinAddr: 0x100014FFC, symSize: 0x50 }
  - { offsetInCU: 0x36E70, offset: 0x36E70, size: 0x8, addend: 0x0, symName: __ZNKSt3__129_AllocatorDestroyRangeReverseINS_9allocatorI8ResistorEENS_16reverse_iteratorIPS2_EEEclB8ue170006Ev, symObjAddr: 0x10954, symBinAddr: 0x10001504C, symSize: 0xB4 }
  - { offsetInCU: 0x36E97, offset: 0x36E97, size: 0x8, addend: 0x0, symName: __ZNSt3__116reverse_iteratorINS0_IP8ResistorEEEC1B8ue170006ES3_, symObjAddr: 0x10A78, symBinAddr: 0x100015170, symSize: 0x3C }
  - { offsetInCU: 0x36ECF, offset: 0x36ECF, size: 0x8, addend: 0x0, symName: __ZNSt3__116allocator_traitsINS_9allocatorI8ResistorEEE7destroyB8ue170006IS2_vEEvRS3_PT_, symObjAddr: 0x10B14, symBinAddr: 0x10001520C, symSize: 0x2C }
  - { offsetInCU: 0x36F0C, offset: 0x36F0C, size: 0x8, addend: 0x0, symName: __ZNSt3__116reverse_iteratorINS0_IP8ResistorEEEppB8ue170006Ev, symObjAddr: 0x10B64, symBinAddr: 0x10001525C, symSize: 0x30 }
  - { offsetInCU: 0x36F32, offset: 0x36F32, size: 0x8, addend: 0x0, symName: __ZNKSt3__116reverse_iteratorINS0_IP8ResistorEEE4baseB8ue170006Ev, symObjAddr: 0x10B94, symBinAddr: 0x10001528C, symSize: 0x24 }
  - { offsetInCU: 0x36F58, offset: 0x36F58, size: 0x8, addend: 0x0, symName: __ZNSt3__19allocatorI8ResistorE7destroyB8ue170006EPS1_, symObjAddr: 0x10BB8, symBinAddr: 0x1000152B0, symSize: 0x28 }
  - { offsetInCU: 0x36F91, offset: 0x36F91, size: 0x8, addend: 0x0, symName: __ZNSt3__119__to_address_helperINS_16reverse_iteratorINS1_IP8ResistorEEEEvE6__callB8ue170006ERKS5_, symObjAddr: 0x10BE0, symBinAddr: 0x1000152D8, symSize: 0x38 }
  - { offsetInCU: 0x36FB4, offset: 0x36FB4, size: 0x8, addend: 0x0, symName: __ZNKSt3__116reverse_iteratorINS0_IP8ResistorEEEptB8ue170006Ev, symObjAddr: 0x10C18, symBinAddr: 0x100015310, symSize: 0x24 }
  - { offsetInCU: 0x36FDA, offset: 0x36FDA, size: 0x8, addend: 0x0, symName: __ZNKSt3__116reverse_iteratorINS0_IP8ResistorEEEdeB8ue170006Ev, symObjAddr: 0x10C3C, symBinAddr: 0x100015334, symSize: 0x34 }
  - { offsetInCU: 0x3700E, offset: 0x3700E, size: 0x8, addend: 0x0, symName: __ZNSt3__116reverse_iteratorIP8ResistorEmmB8ue170006Ev, symObjAddr: 0x10C70, symBinAddr: 0x100015368, symSize: 0x20 }
  - { offsetInCU: 0x37034, offset: 0x37034, size: 0x8, addend: 0x0, symName: __ZNSt3__116reverse_iteratorINS0_IP8ResistorEEEC2B8ue170006ES3_, symObjAddr: 0x10C90, symBinAddr: 0x100015388, symSize: 0x2C }
  - { offsetInCU: 0x3706C, offset: 0x3706C, size: 0x8, addend: 0x0, symName: __ZNSt3__116reverse_iteratorIP8ResistorEC2B8ue170006ES2_, symObjAddr: 0x10CBC, symBinAddr: 0x1000153B4, symSize: 0x28 }
  - { offsetInCU: 0x370A4, offset: 0x370A4, size: 0x8, addend: 0x0, symName: __ZNSt3__114__split_bufferI8ResistorRNS_9allocatorIS1_EEED2Ev, symObjAddr: 0x10CE4, symBinAddr: 0x1000153DC, symSize: 0x8C }
  - { offsetInCU: 0x370D0, offset: 0x370D0, size: 0x8, addend: 0x0, symName: __ZNSt3__114__split_bufferI8ResistorRNS_9allocatorIS1_EEE5clearB8ue170006Ev, symObjAddr: 0x10D70, symBinAddr: 0x100015468, symSize: 0x28 }
  - { offsetInCU: 0x370F6, offset: 0x370F6, size: 0x8, addend: 0x0, symName: __ZNSt3__116allocator_traitsINS_9allocatorI8ResistorEEE10deallocateB8ue170006ERS3_PS2_m, symObjAddr: 0x10D98, symBinAddr: 0x100015490, symSize: 0x34 }
  - { offsetInCU: 0x37138, offset: 0x37138, size: 0x8, addend: 0x0, symName: __ZNKSt3__114__split_bufferI8ResistorRNS_9allocatorIS1_EEE8capacityB8ue170006Ev, symObjAddr: 0x10DCC, symBinAddr: 0x1000154C4, symSize: 0x40 }
  - { offsetInCU: 0x3715E, offset: 0x3715E, size: 0x8, addend: 0x0, symName: __ZNSt3__114__split_bufferI8ResistorRNS_9allocatorIS1_EEE17__destruct_at_endB8ue170006EPS1_, symObjAddr: 0x10E0C, symBinAddr: 0x100015504, symSize: 0x2C }
  - { offsetInCU: 0x37192, offset: 0x37192, size: 0x8, addend: 0x0, symName: __ZNSt3__114__split_bufferI8ResistorRNS_9allocatorIS1_EEE17__destruct_at_endB8ue170006EPS1_NS_17integral_constantIbLb0EEE, symObjAddr: 0x10E38, symBinAddr: 0x100015530, symSize: 0x80 }
  - { offsetInCU: 0x371D2, offset: 0x371D2, size: 0x8, addend: 0x0, symName: __ZNSt3__19allocatorI8ResistorE10deallocateB8ue170006EPS1_m, symObjAddr: 0x10EB8, symBinAddr: 0x1000155B0, symSize: 0x44 }
  - { offsetInCU: 0x37214, offset: 0x37214, size: 0x8, addend: 0x0, symName: __ZNKSt3__114__split_bufferI8ResistorRNS_9allocatorIS1_EEE9__end_capB8ue170006Ev, symObjAddr: 0x10EFC, symBinAddr: 0x1000155F4, symSize: 0x28 }
  - { offsetInCU: 0x3723A, offset: 0x3723A, size: 0x8, addend: 0x0, symName: __ZNKSt3__117__compressed_pairIP8ResistorRNS_9allocatorIS1_EEE5firstB8ue170006Ev, symObjAddr: 0x10F24, symBinAddr: 0x10001561C, symSize: 0x24 }
  - { offsetInCU: 0x37260, offset: 0x37260, size: 0x8, addend: 0x0, symName: __ZNSt3__16vectorINS_12basic_stringIcNS_11char_traitsIcEENS_9allocatorIcEEEENS4_IS6_EEEC2ERKS8_, symObjAddr: 0x10F48, symBinAddr: 0x100015640, symSize: 0x94 }
  - { offsetInCU: 0x3729B, offset: 0x3729B, size: 0x8, addend: 0x0, symName: __ZNSt3__116allocator_traitsINS_9allocatorINS_12basic_stringIcNS_11char_traitsIcEENS1_IcEEEEEEE37select_on_container_copy_constructionB8ue170006IS7_vvEES7_RKS7_, symObjAddr: 0x10FDC, symBinAddr: 0x1000156D4, symSize: 0x10 }
  - { offsetInCU: 0x372CA, offset: 0x372CA, size: 0x8, addend: 0x0, symName: __ZNSt3__16vectorINS_12basic_stringIcNS_11char_traitsIcEENS_9allocatorIcEEEENS4_IS6_EEE16__init_with_sizeB8ue170006IPS6_SA_EEvT_T0_m, symObjAddr: 0x10FEC, symBinAddr: 0x1000156E4, symSize: 0xB8 }
  - { offsetInCU: 0x3733E, offset: 0x3733E, size: 0x8, addend: 0x0, symName: __ZNSt3__16vectorINS_12basic_stringIcNS_11char_traitsIcEENS_9allocatorIcEEEENS4_IS6_EEE18__construct_at_endIPS6_SA_EEvT_T0_m, symObjAddr: 0x110A4, symBinAddr: 0x10001579C, symSize: 0x8C }
  - { offsetInCU: 0x373D2, offset: 0x373D2, size: 0x8, addend: 0x0, symName: __ZNSt3__14pairIPNS_12basic_stringIcNS_11char_traitsIcEENS_9allocatorIcEEEES7_EC1B8ue170006IS7_S7_LPv0EEEOT_OT0_, symObjAddr: 0x1133C, symBinAddr: 0x100015A34, symSize: 0x3C }
  - { offsetInCU: 0x37430, offset: 0x37430, size: 0x8, addend: 0x0, symName: __ZNSt3__14pairIPNS_12basic_stringIcNS_11char_traitsIcEENS_9allocatorIcEEEES7_EC2B8ue170006IS7_S7_LPv0EEEOT_OT0_, symObjAddr: 0x11378, symBinAddr: 0x100015A70, symSize: 0x34 }
  - { offsetInCU: 0x3748E, offset: 0x3748E, size: 0x8, addend: 0x0, symName: __ZNSt3__116allocator_traitsINS_9allocatorINS_12basic_stringIcNS_11char_traitsIcEENS1_IcEEEEEEE9constructB8ue170006IS6_JRS6_EvEEvRS7_PT_DpOT0_, symObjAddr: 0x113AC, symBinAddr: 0x100015AA4, symSize: 0x34 }
  - { offsetInCU: 0x374E5, offset: 0x374E5, size: 0x8, addend: 0x0, symName: __ZNSt3__19allocatorINS_12basic_stringIcNS_11char_traitsIcEENS0_IcEEEEE9constructB8ue170006IS5_JRS5_EEEvPT_DpOT0_, symObjAddr: 0x113E0, symBinAddr: 0x100015AD8, symSize: 0x30 }
  - { offsetInCU: 0x3753B, offset: 0x3753B, size: 0x8, addend: 0x0, symName: __ZNSt3__112basic_stringIcNS_11char_traitsIcEENS_9allocatorIcEEE13__move_assignB8ue170006ERS5_NS_17integral_constantIbLb1EEE, symObjAddr: 0x11410, symBinAddr: 0x100015B08, symSize: 0xC8 }
  - { offsetInCU: 0x3757E, offset: 0x3757E, size: 0x8, addend: 0x0, symName: __ZNSt3__116allocator_traitsINS_9allocatorIcEEE10deallocateB8ue170006ERS2_Pcm, symObjAddr: 0x114D8, symBinAddr: 0x100015BD0, symSize: 0x34 }
  - { offsetInCU: 0x375C0, offset: 0x375C0, size: 0x8, addend: 0x0, symName: __ZNSt3__112basic_stringIcNS_11char_traitsIcEENS_9allocatorIcEEE7__allocB8ue170006Ev, symObjAddr: 0x1150C, symBinAddr: 0x100015C04, symSize: 0x24 }
  - { offsetInCU: 0x375E6, offset: 0x375E6, size: 0x8, addend: 0x0, symName: __ZNSt3__112basic_stringIcNS_11char_traitsIcEENS_9allocatorIcEEE18__get_long_pointerB8ue170006Ev, symObjAddr: 0x11530, symBinAddr: 0x100015C28, symSize: 0x28 }
  - { offsetInCU: 0x3760C, offset: 0x3760C, size: 0x8, addend: 0x0, symName: __ZNKSt3__112basic_stringIcNS_11char_traitsIcEENS_9allocatorIcEEE14__get_long_capB8ue170006Ev, symObjAddr: 0x11558, symBinAddr: 0x100015C50, symSize: 0x30 }
  - { offsetInCU: 0x37632, offset: 0x37632, size: 0x8, addend: 0x0, symName: __ZNSt3__112basic_stringIcNS_11char_traitsIcEENS_9allocatorIcEEE19__move_assign_allocB8ue170006ERS5_, symObjAddr: 0x11588, symBinAddr: 0x100015C80, symSize: 0x2C }
  - { offsetInCU: 0x37667, offset: 0x37667, size: 0x8, addend: 0x0, symName: __ZNSt3__112basic_stringIcNS_11char_traitsIcEENS_9allocatorIcEEE16__set_short_sizeB8ue170006Em, symObjAddr: 0x115B4, symBinAddr: 0x100015CAC, symSize: 0x78 }
  - { offsetInCU: 0x3769C, offset: 0x3769C, size: 0x8, addend: 0x0, symName: __ZNSt3__111char_traitsIcE6assignB8ue170006ERcRKc, symObjAddr: 0x1162C, symBinAddr: 0x100015D24, symSize: 0x24 }
  - { offsetInCU: 0x376CD, offset: 0x376CD, size: 0x8, addend: 0x0, symName: __ZNSt3__112basic_stringIcNS_11char_traitsIcEENS_9allocatorIcEEE19__get_short_pointerB8ue170006Ev, symObjAddr: 0x11650, symBinAddr: 0x100015D48, symSize: 0x28 }
  - { offsetInCU: 0x376F3, offset: 0x376F3, size: 0x8, addend: 0x0, symName: __ZNSt3__19allocatorIcE10deallocateB8ue170006EPcm, symObjAddr: 0x11678, symBinAddr: 0x100015D70, symSize: 0x40 }
  - { offsetInCU: 0x37735, offset: 0x37735, size: 0x8, addend: 0x0, symName: __ZNSt3__117__compressed_pairINS_12basic_stringIcNS_11char_traitsIcEENS_9allocatorIcEEE5__repES5_E6secondB8ue170006Ev, symObjAddr: 0x116B8, symBinAddr: 0x100015DB0, symSize: 0x24 }
  - { offsetInCU: 0x3775B, offset: 0x3775B, size: 0x8, addend: 0x0, symName: __ZNSt3__122__compressed_pair_elemINS_9allocatorIcEELi1ELb1EE5__getB8ue170006Ev, symObjAddr: 0x116DC, symBinAddr: 0x100015DD4, symSize: 0x14 }
  - { offsetInCU: 0x37781, offset: 0x37781, size: 0x8, addend: 0x0, symName: __ZNSt3__112basic_stringIcNS_11char_traitsIcEENS_9allocatorIcEEE19__move_assign_allocB8ue170006ERS5_NS_17integral_constantIbLb1EEE, symObjAddr: 0x116F0, symBinAddr: 0x100015DE8, symSize: 0x38 }
  - { offsetInCU: 0x377C2, offset: 0x377C2, size: 0x8, addend: 0x0, symName: __ZNSt3__114pointer_traitsIPcE10pointer_toB8ue170006ERc, symObjAddr: 0x11728, symBinAddr: 0x100015E20, symSize: 0x14 }
  - { offsetInCU: 0x377E5, offset: 0x377E5, size: 0x8, addend: 0x0, symName: __ZNKSt3__16vectorI8ResistorNS_9allocatorIS1_EEE11__make_iterB8ue170006EPKS1_, symObjAddr: 0x1173C, symBinAddr: 0x100015E34, symSize: 0x30 }
  - { offsetInCU: 0x3781A, offset: 0x3781A, size: 0x8, addend: 0x0, symName: __ZNSt3__111__wrap_iterIPK8ResistorEC1B8ue170006ES3_, symObjAddr: 0x1176C, symBinAddr: 0x100015E64, symSize: 0x34 }
  - { offsetInCU: 0x37852, offset: 0x37852, size: 0x8, addend: 0x0, symName: __ZNSt3__111__wrap_iterIPK8ResistorEC2B8ue170006ES3_, symObjAddr: 0x117A0, symBinAddr: 0x100015E98, symSize: 0x20 }
  - { offsetInCU: 0x3788A, offset: 0x3788A, size: 0x8, addend: 0x0, symName: __ZNSt3__16vectorI8ResistorNS_9allocatorIS1_EEEC2B8ue170006Ev, symObjAddr: 0x117C0, symBinAddr: 0x100015EB8, symSize: 0x4C }
  - { offsetInCU: 0x378B4, offset: 0x378B4, size: 0x8, addend: 0x0, symName: __ZNSt3__117__compressed_pairIP8ResistorNS_9allocatorIS1_EEEC1B8ue170006IDnNS_18__default_init_tagEEEOT_OT0_, symObjAddr: 0x1180C, symBinAddr: 0x100015F04, symSize: 0x3C }
  - { offsetInCU: 0x3790C, offset: 0x3790C, size: 0x8, addend: 0x0, symName: __ZNSt3__117__compressed_pairIP8ResistorNS_9allocatorIS1_EEEC2B8ue170006IDnNS_18__default_init_tagEEEOT_OT0_, symObjAddr: 0x11848, symBinAddr: 0x100015F40, symSize: 0x40 }
  - { offsetInCU: 0x37964, offset: 0x37964, size: 0x8, addend: 0x0, symName: __ZNSt3__122__compressed_pair_elemINS_9allocatorI8ResistorEELi1ELb1EEC2B8ue170006ENS_18__default_init_tagE, symObjAddr: 0x11888, symBinAddr: 0x100015F80, symSize: 0x2C }
  - { offsetInCU: 0x37998, offset: 0x37998, size: 0x8, addend: 0x0, symName: __ZNSt3__19allocatorI8ResistorEC2B8ue170006Ev, symObjAddr: 0x118B4, symBinAddr: 0x100015FAC, symSize: 0x2C }
  - { offsetInCU: 0x379C2, offset: 0x379C2, size: 0x8, addend: 0x0, symName: __ZNSt3__116__non_trivial_ifILb1ENS_9allocatorI8ResistorEEEC2B8ue170006Ev, symObjAddr: 0x118E0, symBinAddr: 0x100015FD8, symSize: 0x14 }
  - { offsetInCU: 0x379EC, offset: 0x379EC, size: 0x8, addend: 0x0, symName: __ZNSt3__16vectorI8ResistorNS_9allocatorIS1_EEED2B8ue170006Ev, symObjAddr: 0x118F4, symBinAddr: 0x100015FEC, symSize: 0x44 }
  - { offsetInCU: 0x37A16, offset: 0x37A16, size: 0x8, addend: 0x0, symName: __ZNSt3__16vectorI8ResistorNS_9allocatorIS1_EEE16__destroy_vectorC1B8ue170006ERS4_, symObjAddr: 0x11938, symBinAddr: 0x100016030, symSize: 0x34 }
  - { offsetInCU: 0x37A4F, offset: 0x37A4F, size: 0x8, addend: 0x0, symName: __ZNSt3__16vectorI8ResistorNS_9allocatorIS1_EEE16__destroy_vectorclB8ue170006Ev, symObjAddr: 0x1196C, symBinAddr: 0x100016064, symSize: 0x90 }
  - { offsetInCU: 0x37A75, offset: 0x37A75, size: 0x8, addend: 0x0, symName: __ZNSt3__16vectorI8ResistorNS_9allocatorIS1_EEE16__destroy_vectorC2B8ue170006ERS4_, symObjAddr: 0x119FC, symBinAddr: 0x1000160F4, symSize: 0x20 }
  - { offsetInCU: 0x37AAE, offset: 0x37AAE, size: 0x8, addend: 0x0, symName: __ZNSt3__16vectorI8ResistorNS_9allocatorIS1_EEE7__clearB8ue170006Ev, symObjAddr: 0x11A1C, symBinAddr: 0x100016114, symSize: 0x28 }
  - { offsetInCU: 0x37AD4, offset: 0x37AD4, size: 0x8, addend: 0x0, symName: __ZNSt3__16vectorI8ResistorNS_9allocatorIS1_EEE22__base_destruct_at_endB8ue170006EPS1_, symObjAddr: 0x11A44, symBinAddr: 0x10001613C, symSize: 0x8C }
...
